gpasm-1.5.0 #1285 (Sep 12 2016) obj\Debug\gpi   8-8-2021  22:26:03          PAGE  1


LOC    OBJECT CODE    LINE  SOURCE TEXT
  VALUE

                      00001 ;--------------------------------------------------------
                      00002 ; File Created by SDCC : free open source ANSI-C Compiler
                      00003 ; Version 4.1.0 #12072 (MINGW64)
                      00004 ;--------------------------------------------------------
                      00005 ; PIC port for the 14-bit core
                      00006 ;--------------------------------------------------------
                      00007         .file   "gpio.c"
                      00008         list    p=16f877a
                      00009         radix dec
                      00010         include "p16f877a.inc"
                      00001         LIST
                      00002 
                      00003 ;==========================================================================
                      00004 ; Build date : Oct 21 2015
                      00005 ;  MPASM PIC16F877A processor include
                      00006 ; 
                      00007 ;  (c) Copyright 1999-2015 Microchip Technology, All rights reserved
                      00008 ;==========================================================================
                      00009 
                      00567         LIST
                      00011 ;--------------------------------------------------------
                      00012 ; external declarations
                      00013 ;--------------------------------------------------------
  0000                00014         extern  _TRISE
  0000                00015         extern  _TRISD
  0000                00016         extern  _TRISC
  0000                00017         extern  _TRISB
  0000                00018         extern  _TRISA
  0000                00019         extern  _PORTE
  0000                00020         extern  _PORTD
  0000                00021         extern  _PORTC
  0000                00022         extern  _PORTB
  0000                00023         extern  _PORTA
                      00024 
  0000                00025         extern PSAVE
  0000                00026         extern SSAVE
  0000                00027         extern WSAVE
  0000                00028         extern STK12
  0000                00029         extern STK11
  0000                00030         extern STK10
  0000                00031         extern STK09
  0000                00032         extern STK08
  0000                00033         extern STK07
  0000                00034         extern STK06
  0000                00035         extern STK05
  0000                00036         extern STK04
  0000                00037         extern STK03
  0000                00038         extern STK02
  0000                00039         extern STK01
  0000                00040         extern STK00
                      00041 ;--------------------------------------------------------
                      00042 ; global declarations
                      00043 ;--------------------------------------------------------
gpasm-1.5.0 #1285 (Sep 12 2016) obj\Debug\gpi   8-8-2021  22:26:03          PAGE  2


LOC    OBJECT CODE    LINE  SOURCE TEXT
  VALUE

  0000                00044         global  _GPIO_InitPort
  0000                00045         global  _GPIO_InitPin
  0000                00046         global  _GPIO_UpdatePort
  0000                00047         global  _GPIO_UpdatePin
  0000                00048         global  _GPIO_SetPortData
  0000                00049         global  _GPIO_SetPortDirection
  0000                00050         global  _GPIO_SetPinState
  0000                00051         global  _GPIO_SetPinDirection
  0000                00052         global  _GPIO_GetPortData
  0000                00053         global  _GPIO_GetPortDirection
  0000                00054         global  _GPIO_GetPinState
  0000                00055         global  _GPIO_GetPinDirection
                      00056 
                      00057 ;--------------------------------------------------------
                      00058 ; global definitions
                      00059 ;--------------------------------------------------------
                      00060 ;--------------------------------------------------------
                      00061 ; absolute symbol definitions
                      00062 ;--------------------------------------------------------
                      00063 ;--------------------------------------------------------
                      00064 ; compiler-defined variables
                      00065 ;--------------------------------------------------------
                      00066 UDL_gpio_0      udata
0000                  00067 r0x1020 res     1
0001                  00068 r0x1021 res     1
0002                  00069 r0x1022 res     1
0003                  00070 r0x101C res     1
0004                  00071 r0x101D res     1
0005                  00072 r0x101E res     1
0006                  00073 r0x101F res     1
0007                  00074 r0x101A res     1
0008                  00075 r0x101B res     1
0009                  00076 r0x1018 res     1
000A                  00077 r0x1019 res     1
000B                  00078 r0x1014 res     1
000C                  00079 r0x1015 res     1
000D                  00080 r0x1016 res     1
000E                  00081 r0x1017 res     1
000F                  00082 r0x1010 res     1
0010                  00083 r0x1011 res     1
0011                  00084 r0x1012 res     1
0012                  00085 r0x1013 res     1
0013                  00086 r0x100E res     1
0014                  00087 r0x100F res     1
0015                  00088 r0x100C res     1
0016                  00089 r0x100D res     1
0017                  00090 r0x1006 res     1
0018                  00091 r0x1007 res     1
0019                  00092 r0x1008 res     1
001A                  00093 r0x1009 res     1
001B                  00094 r0x100A res     1
001C                  00095 r0x100B res     1
001D                  00096 r0x1000 res     1
gpasm-1.5.0 #1285 (Sep 12 2016) obj\Debug\gpi   8-8-2021  22:26:03          PAGE  3


LOC    OBJECT CODE    LINE  SOURCE TEXT
  VALUE

001E                  00097 r0x1001 res     1
001F                  00098 r0x1002 res     1
0020                  00099 r0x1003 res     1
0021                  00100 r0x1004 res     1
0022                  00101 r0x1005 res     1
                      00102 ;--------------------------------------------------------
                      00103 ; initialized data
                      00104 ;--------------------------------------------------------
                      00105 ;--------------------------------------------------------
                      00106 ; initialized absolute data
                      00107 ;--------------------------------------------------------
                      00108 ;--------------------------------------------------------
                      00109 ; overlayable items in internal ram 
                      00110 ;--------------------------------------------------------
                      00111 ;       udata_ovr
                      00112 ;--------------------------------------------------------
                      00113 ; code
                      00114 ;--------------------------------------------------------
                      00115 code_gpio       code
                      00116 ;***
                      00117 ;  pBlock Stats: dbName = C
                      00118 ;***
                      00119 ;has an exit
                      00120 ;7 compiler assigned registers:
                      00121 ;   r0x1000
                      00122 ;   STK00
                      00123 ;   r0x1001
                      00124 ;   r0x1002
                      00125 ;   r0x1003
                      00126 ;   r0x1004
                      00127 ;   r0x1005
                      00128 ;; Starting pCode block
                      00129 ;;; /home/sdcc-builder/build/sdcc-build/orig/sdcc/src/pic14/gen.c:2358:resultRemat *{*
                      00130 ;;; /home/sdcc-builder/build/sdcc-build/orig/sdcc/src/pic14/gen.c:2802:genLabel *{*
                      00131 ;; ***  genLabel  2805
                      00132 ;;; /home/sdcc-builder/build/sdcc-build/orig/sdcc/src/pic14/gen.c:2358:resultRemat *{*
                      00133 ;;; /home/sdcc-builder/build/sdcc-build/orig/sdcc/src/pic14/gen.c:2382:genFunction *{*
                      00134 ;; ***  genFunction  2384 curr label offset=194previous max_key=35 
                      00135 S_gpio__GPIO_GetPinDirection    code
0000                  00136 _GPIO_GetPinDirection:
                      00137 ; 2 exit points
                      00138 ;;; /home/sdcc-builder/build/sdcc-build/orig/sdcc/src/pic14/gen.c:2358:resultRemat *{*
                      00139 ;;; /home/sdcc-builder/build/sdcc-build/orig/sdcc/src/pic14/gen.c:7642:genReceive *{*
                      00140 ;; ***  genReceive  7643
                      00141 ;;      708 register type nRegs=1
                      00142 ;;; /home/sdcc-builder/build/sdcc-build/orig/sdcc/src/pic14/gen.c:1929:assignResultValue *{*
                      00143 ;; ***  assignResultValue  1931
                      00144 ;;      line = 1933 result -=-, size=0, left AOP_REG=r0x1063, size=1, right -=-, size=0
                      00145 ;; >>> /home/sdcc-builder/build/sdcc-build/orig/sdcc/src/pic14/gen.c:1407:movwf
                      00146 ;;      1126 rIdx = r0x1063 
                      00147         .line   207; "gpio.c"   tPIN_DIRECTION GPIO_GetPinDirection(tPORT port, tPIN pin)
0000   0??? 0???      00148         BANKSEL r0x1000
0002   00??           00149         MOVWF   r0x1000
gpasm-1.5.0 #1285 (Sep 12 2016) obj\Debug\gpi   8-8-2021  22:26:03          PAGE  4


LOC    OBJECT CODE    LINE  SOURCE TEXT
  VALUE

                      00150 ;;; /home/sdcc-builder/build/sdcc-build/orig/sdcc/src/pic14/gen.c:2358:resultRemat *{*
                      00151 ;;; /home/sdcc-builder/build/sdcc-build/orig/sdcc/src/pic14/gen.c:7642:genReceive *{*
                      00152 ;; ***  genReceive  7643
                      00153 ;;      708 register type nRegs=1
                      00154 ;;; /home/sdcc-builder/build/sdcc-build/orig/sdcc/src/pic14/gen.c:1929:assignResultValue *{*
                      00155 ;; ***  assignResultValue  1931
                      00156 ;;      line = 1933 result -=-, size=0, left AOP_REG=r0x1064, size=1, right -=-, size=0
                      00157 ;; >>> /home/sdcc-builder/build/sdcc-build/orig/sdcc/src/pic14/gen.c:1437:get_returnvalue
                      00158 ;; ***  popRegFromIdx,1059  , rIdx=0x7f
0003   08??           00159         MOVF    STK00,W
                      00160 ;; >>> /home/sdcc-builder/build/sdcc-build/orig/sdcc/src/pic14/gen.c:1407:movwf
                      00161 ;;      1126 rIdx = r0x1064 
0004   00??           00162         MOVWF   r0x1001
                      00163 ;;; /home/sdcc-builder/build/sdcc-build/orig/sdcc/src/pic14/gen.c:2358:resultRemat *{*
                      00164 ;;; /home/sdcc-builder/build/sdcc-build/orig/sdcc/src/pic14/gen.c:7192:genAssign *{*
                      00165 ;; ***  genAssign  7193
                      00166 ;;      708 register type nRegs=1
                      00167 ;;      line = 7202 result AOP_REG=r0x1065, size=1, left -=-, size=0, right AOP_LIT=0x00, size=1
                      00168 ;; ***  genAssign  7286
                      00169 ;; >>> /home/sdcc-builder/build/sdcc-build/orig/sdcc/src/pic14/gen.c:7298:genAssign
                      00170 ;;      1126 rIdx = r0x1065 
                      00171         .line   209; "gpio.c"   tPIN_DIRECTION ret = PIN_OUTPUT ;
0005   01??           00172         CLRF    r0x1002
                      00173 ;;; /home/sdcc-builder/build/sdcc-build/orig/sdcc/src/pic14/gen.c:2358:resultRemat *{*
                      00174 ;;; /home/sdcc-builder/build/sdcc-build/orig/sdcc/src/pic14/gen.c:3616:genCmpGt *{*
                      00175 ;; ***  genCmpGt  3617
                      00176 ;;      708 register type nRegs=1
                      00177 ;;; /home/sdcc-builder/build/sdcc-build/orig/sdcc/src/pic14/gen.c:3354:genCmp *{*
                      00178 ;;swapping arguments (AOP_TYPEs 1/2)
                      00179 ;;unsigned compare: left >= lit(0x5=5), size=1
                      00180 ;; >>> /home/sdcc-builder/build/sdcc-build/orig/sdcc/src/pic14/gen.c:3325:pic14_mov2w_regOrLit
                      00181         .line   210; "gpio.c"   switch(port)
0006   3005           00182         MOVLW   0x05
                      00183 ;; >>> /home/sdcc-builder/build/sdcc-build/orig/sdcc/src/pic14/gen.c:3492:genCmp
                      00184 ;;      1126 rIdx = r0x1063 
0007   02??           00185         SUBWF   r0x1000,W
                      00186 ;;; /home/sdcc-builder/build/sdcc-build/orig/sdcc/src/pic14/gen.c:3297:genSkipc *{*
                      00187 ;; >>> /home/sdcc-builder/build/sdcc-build/orig/sdcc/src/pic14/gen.c:3302:genSkipc
0008   1803           00188         BTFSC   STATUS,0
                      00189 ;; >>> /home/sdcc-builder/build/sdcc-build/orig/sdcc/src/pic14/gen.c:3306:genSkipc
                      00190 ;; ***  popGetLabel  key=7, label offset 233
0009   2???           00191         GOTO    _00340_DS_
                      00192 ;;genSkipc:3307: created from rifx:0000000000BC9340
                      00193 ;;; /home/sdcc-builder/build/sdcc-build/orig/sdcc/src/pic14/gen.c:2358:resultRemat *{*
                      00194 ;;; /home/sdcc-builder/build/sdcc-build/orig/sdcc/src/pic14/gen.c:2358:resultRemat *{*
                      00195 ;;; /home/sdcc-builder/build/sdcc-build/orig/sdcc/src/pic14/gen.c:7337:genJumpTab *{*
                      00196 ;; ***  genJumpTab  7338
                      00197 ;;      708 register type nRegs=1
                      00198 ;; >>> /home/sdcc-builder/build/sdcc-build/orig/sdcc/src/pic14/gen.c:7353:genJumpTab
                      00199 ;; ***  popGetLabel  key=15, label offset 233
000A   30??           00200         MOVLW   HIGH(_00348_DS_)
                      00201 ;; >>> /home/sdcc-builder/build/sdcc-build/orig/sdcc/src/pic14/gen.c:7354:genJumpTab
000B   1283 1303      00202         BANKSEL PCLATH
gpasm-1.5.0 #1285 (Sep 12 2016) obj\Debug\gpi   8-8-2021  22:26:03          PAGE  5


LOC    OBJECT CODE    LINE  SOURCE TEXT
  VALUE

000D   008A           00203         MOVWF   PCLATH
                      00204 ;; >>> /home/sdcc-builder/build/sdcc-build/orig/sdcc/src/pic14/gen.c:7355:genJumpTab
                      00205 ;; ***  popGetLabel  key=15, label offset 233
000E   30??           00206         MOVLW   _00348_DS_
                      00207 ;; >>> /home/sdcc-builder/build/sdcc-build/orig/sdcc/src/pic14/gen.c:7356:genJumpTab
                      00208 ;;      1126 rIdx = r0x1063 
000F   0??? 0???      00209         BANKSEL r0x1000
0011   07??           00210         ADDWF   r0x1000,W
                      00211 ;; >>> /home/sdcc-builder/build/sdcc-build/orig/sdcc/src/pic14/gen.c:7357:genJumpTab
0012   1C03           00212         BTFSS   STATUS,0
0013   2???           00213         GOTO    _00001_DS_
                      00214 ;; >>> /home/sdcc-builder/build/sdcc-build/orig/sdcc/src/pic14/gen.c:7358:genJumpTab
0014   1283 1303      00215         BANKSEL PCLATH
0016   0A8A           00216         INCF    PCLATH,F
                      00217 ;; >>> /home/sdcc-builder/build/sdcc-build/orig/sdcc/src/pic14/gen.c:7359:genJumpTab
0017                  00218 _00001_DS_:
0017   0082           00219         MOVWF   PCL
                      00220 ;; >>> /home/sdcc-builder/build/sdcc-build/orig/sdcc/src/pic14/gen.c:7368:genJumpTab
                      00221 ;; ***  popGetLabel  key=1, label offset 233
0018                  00222 _00348_DS_:
0018   2???           00223         GOTO    _00334_DS_
                      00224 ;; >>> /home/sdcc-builder/build/sdcc-build/orig/sdcc/src/pic14/gen.c:7368:genJumpTab
                      00225 ;; ***  popGetLabel  key=2, label offset 233
0019   2???           00226         GOTO    _00335_DS_
                      00227 ;; >>> /home/sdcc-builder/build/sdcc-build/orig/sdcc/src/pic14/gen.c:7368:genJumpTab
                      00228 ;; ***  popGetLabel  key=3, label offset 233
001A   2???           00229         GOTO    _00336_DS_
                      00230 ;; >>> /home/sdcc-builder/build/sdcc-build/orig/sdcc/src/pic14/gen.c:7368:genJumpTab
                      00231 ;; ***  popGetLabel  key=4, label offset 233
001B   2???           00232         GOTO    _00337_DS_
                      00233 ;; >>> /home/sdcc-builder/build/sdcc-build/orig/sdcc/src/pic14/gen.c:7368:genJumpTab
                      00234 ;; ***  popGetLabel  key=5, label offset 233
001C   2???           00235         GOTO    _00338_DS_
                      00236 ;;; /home/sdcc-builder/build/sdcc-build/orig/sdcc/src/pic14/gen.c:2358:resultRemat *{*
                      00237 ;;; /home/sdcc-builder/build/sdcc-build/orig/sdcc/src/pic14/gen.c:2802:genLabel *{*
                      00238 ;; ***  genLabel  2805
                      00239 ;;; /home/sdcc-builder/build/sdcc-build/orig/sdcc/src/pic14/gen.c:2358:resultRemat *{*
                      00240 ;;; /home/sdcc-builder/build/sdcc-build/orig/sdcc/src/pic14/gen.c:5667:genGenericShift *{*
                      00241 ;; ***  genGenericShift  5670
                      00242 ;;      708 register type nRegs=1
                      00243 ;;      708 register type nRegs=2
                      00244 ;; ***  mov2w  1395  offset=1
                      00245 ;; >>> /home/sdcc-builder/build/sdcc-build/orig/sdcc/src/pic14/gen.c:1398:mov2w
001D                  00246 _00334_DS_:
                      00247         .line   213; "gpio.c"   ret=  ReadRegisterPinValue(TRISA,pin) ;
001D   3000           00248         MOVLW   0x00
                      00249 ;; >>> /home/sdcc-builder/build/sdcc-build/orig/sdcc/src/pic14/gen.c:1407:movwf
                      00250 ;;      1126 rIdx = r0x1066 
001E   0??? 0???      00251         BANKSEL r0x1003
0020   00??           00252         MOVWF   r0x1003
                      00253 ;; ***  mov2w  1395  offset=0
                      00254 ;; >>> /home/sdcc-builder/build/sdcc-build/orig/sdcc/src/pic14/gen.c:1398:mov2w
0021   3001           00255         MOVLW   0x01
gpasm-1.5.0 #1285 (Sep 12 2016) obj\Debug\gpi   8-8-2021  22:26:03          PAGE  6


LOC    OBJECT CODE    LINE  SOURCE TEXT
  VALUE

                      00256 ;; >>> /home/sdcc-builder/build/sdcc-build/orig/sdcc/src/pic14/gen.c:1407:movwf
                      00257 ;;      1126 rIdx = r0x1063 
0022   00??           00258         MOVWF   r0x1000
                      00259 ;; ***  addSign  1087
                      00260 ;;; /home/sdcc-builder/build/sdcc-build/orig/sdcc/src/pic14/genarith.c:1088:addSign *{*
                      00261 ;; ***  mov2w  1395  offset=0
                      00262 ;; >>> /home/sdcc-builder/build/sdcc-build/orig/sdcc/src/pic14/gen.c:1400:mov2w
                      00263 ;;      1126 rIdx = r0x1064 
0023   08??           00264         MOVF    r0x1001,W
                      00265 ;; >>> /home/sdcc-builder/build/sdcc-build/orig/sdcc/src/pic14/gen.c:5741:genGenericShift
0024   3C00           00266         SUBLW   0x00
                      00267 ;; >>> /home/sdcc-builder/build/sdcc-build/orig/sdcc/src/pic14/gen.c:5743:genGenericShift
0025   1903           00268         BTFSC   STATUS,2
                      00269 ;; >>> /home/sdcc-builder/build/sdcc-build/orig/sdcc/src/pic14/gen.c:5744:genGenericShift
                      00270 ;; ***  popGetLabel  key=17, label offset 233
0026   2???           00271         GOTO    _00350_DS_
                      00272 ;;; /home/sdcc-builder/build/sdcc-build/orig/sdcc/src/pic14/gen.c:5618:genMultiAsm *{*
                      00273 ;; ***  genMultiAsm  5619
                      00274 ;; >>> /home/sdcc-builder/build/sdcc-build/orig/sdcc/src/pic14/gen.c:5636:genMultiAsm
                      00275 ;;      1126 rIdx = r0x1063 
0027                  00276 _00349_DS_:
0027   0??? 0???      00277         BANKSEL r0x1000
0029   0D??           00278         RLF     r0x1000,F
                      00279 ;; >>> /home/sdcc-builder/build/sdcc-build/orig/sdcc/src/pic14/gen.c:5636:genMultiAsm
                      00280 ;;      1126 rIdx = r0x1066 
002A   0D??           00281         RLF     r0x1003,F
                      00282 ;; >>> /home/sdcc-builder/build/sdcc-build/orig/sdcc/src/pic14/gen.c:5750:genGenericShift
002B   3E01           00283         ADDLW   0x01
                      00284 ;; >>> /home/sdcc-builder/build/sdcc-build/orig/sdcc/src/pic14/gen.c:5751:genGenericShift
002C   1C03           00285         BTFSS   STATUS,0
                      00286 ;; >>> /home/sdcc-builder/build/sdcc-build/orig/sdcc/src/pic14/gen.c:5752:genGenericShift
                      00287 ;; ***  popGetLabel  key=16, label offset 233
002D   2???           00288         GOTO    _00349_DS_
                      00289 ;;; /home/sdcc-builder/build/sdcc-build/orig/sdcc/src/pic14/gen.c:2358:resultRemat *{*
                      00290 ;;; /home/sdcc-builder/build/sdcc-build/orig/sdcc/src/pic14/gen.c:7386:genCast *{*
                      00291 ;; ***  genCast  7387
                      00292 ;; ***  aopForSym 324
                      00293 ;;      336 sym->rname = _TRISA, size = 1
                      00294 ;;      708 register type nRegs=2
                      00295 ;;      line = 7395 result AOP_REG=r0x1067, size=2, left -=-, size=0, right AOP_DIR=_TRISA, size=1
                      00296 ;; >>> /home/sdcc-builder/build/sdcc-build/orig/sdcc/src/pic14/gen.c:7582:genCast
                      00297 ;;      1027
                      00298 ;;      1045  _TRISA   offset=0
002E                  00299 _00350_DS_:
002E   0??? 0???      00300         BANKSEL _TRISA
0030   08??           00301         MOVF    _TRISA,W
                      00302 ;; >>> /home/sdcc-builder/build/sdcc-build/orig/sdcc/src/pic14/gen.c:7583:genCast
                      00303 ;;      1126 rIdx = r0x1067 
0031   0??? 0???      00304         BANKSEL r0x1004
0033   00??           00305         MOVWF   r0x1004
                      00306 ;; ***  addSign  1087
                      00307 ;;; /home/sdcc-builder/build/sdcc-build/orig/sdcc/src/pic14/genarith.c:1088:addSign *{*
                      00308 ;; >>> /home/sdcc-builder/build/sdcc-build/orig/sdcc/src/pic14/genarith.c:1107:addSign
gpasm-1.5.0 #1285 (Sep 12 2016) obj\Debug\gpi   8-8-2021  22:26:03          PAGE  7


LOC    OBJECT CODE    LINE  SOURCE TEXT
  VALUE

                      00309 ;;      1126 rIdx = r0x1068 
0034   01??           00310         CLRF    r0x1005
                      00311 ;;; /home/sdcc-builder/build/sdcc-build/orig/sdcc/src/pic14/gen.c:2358:resultRemat *{*
                      00312 ;;; /home/sdcc-builder/build/sdcc-build/orig/sdcc/src/pic14/gen.c:4023:genAnd *{*
                      00313 ;; ***  genAnd  4024
                      00314 ;;      708 register type nRegs=2
                      00315 ;;      708 register type nRegs=2
                      00316 ;;      708 register type nRegs=2
                      00317 ;;      line = 4059 result AOP_REG=r0x1063, size=2, left AOP_REG=r0x1063, size=2, right AOP_REG=r0x1067,
                             size=2
                      00318 ;; >>> /home/sdcc-builder/build/sdcc-build/orig/sdcc/src/pic14/gen.c:4241:genAnd
                      00319 ;;      1126 rIdx = r0x1067 
0035   08??           00320         MOVF    r0x1004,W
                      00321 ;; >>> /home/sdcc-builder/build/sdcc-build/orig/sdcc/src/pic14/gen.c:4242:genAnd
                      00322 ;;      1126 rIdx = r0x1063 
0036   05??           00323         ANDWF   r0x1000,F
                      00324 ;; >>> /home/sdcc-builder/build/sdcc-build/orig/sdcc/src/pic14/gen.c:4241:genAnd
                      00325 ;;      1126 rIdx = r0x1068 
0037   3000           00326         MOVLW   0x00
                      00327 ;; >>> /home/sdcc-builder/build/sdcc-build/orig/sdcc/src/pic14/gen.c:4242:genAnd
                      00328 ;;      1126 rIdx = r0x1066 
0038   05??           00329         ANDWF   r0x1003,F
                      00330 ;;; /home/sdcc-builder/build/sdcc-build/orig/sdcc/src/pic14/gen.c:2358:resultRemat *{*
                      00331 ;;; /home/sdcc-builder/build/sdcc-build/orig/sdcc/src/pic14/gen.c:5667:genGenericShift *{*
                      00332 ;; ***  genGenericShift  5670
                      00333 ;;      708 register type nRegs=1
                      00334 ;;      708 register type nRegs=2
                      00335 ;;      708 register type nRegs=2
                      00336 ;; ***  mov2w  1395  offset=1
                      00337 ;; >>> /home/sdcc-builder/build/sdcc-build/orig/sdcc/src/pic14/gen.c:1400:mov2w
                      00338 ;;      1126 rIdx = r0x1066 
0039   08??           00339         MOVF    r0x1003,W
                      00340 ;; >>> /home/sdcc-builder/build/sdcc-build/orig/sdcc/src/pic14/gen.c:1407:movwf
                      00341 ;;      1126 rIdx = r0x1068 
003A   00??           00342         MOVWF   r0x1005
                      00343 ;; ***  mov2w  1395  offset=0
                      00344 ;; >>> /home/sdcc-builder/build/sdcc-build/orig/sdcc/src/pic14/gen.c:1400:mov2w
                      00345 ;;      1126 rIdx = r0x1063 
003B   08??           00346         MOVF    r0x1000,W
                      00347 ;; >>> /home/sdcc-builder/build/sdcc-build/orig/sdcc/src/pic14/gen.c:1407:movwf
                      00348 ;;      1126 rIdx = r0x1067 
003C   00??           00349         MOVWF   r0x1004
                      00350 ;; ***  addSign  1087
                      00351 ;;; /home/sdcc-builder/build/sdcc-build/orig/sdcc/src/pic14/genarith.c:1088:addSign *{*
                      00352 ;; ***  mov2w  1395  offset=0
                      00353 ;; >>> /home/sdcc-builder/build/sdcc-build/orig/sdcc/src/pic14/gen.c:1400:mov2w
                      00354 ;;      1126 rIdx = r0x1064 
003D   08??           00355         MOVF    r0x1001,W
                      00356 ;; >>> /home/sdcc-builder/build/sdcc-build/orig/sdcc/src/pic14/gen.c:5741:genGenericShift
003E   3C00           00357         SUBLW   0x00
                      00358 ;; >>> /home/sdcc-builder/build/sdcc-build/orig/sdcc/src/pic14/gen.c:5743:genGenericShift
003F   1903           00359         BTFSC   STATUS,2
                      00360 ;; >>> /home/sdcc-builder/build/sdcc-build/orig/sdcc/src/pic14/gen.c:5744:genGenericShift
gpasm-1.5.0 #1285 (Sep 12 2016) obj\Debug\gpi   8-8-2021  22:26:03          PAGE  8


LOC    OBJECT CODE    LINE  SOURCE TEXT
  VALUE

                      00361 ;; ***  popGetLabel  key=19, label offset 233
0040   2???           00362         GOTO    _00352_DS_
                      00363 ;;; /home/sdcc-builder/build/sdcc-build/orig/sdcc/src/pic14/gen.c:5649:loadSignToC *{*
                      00364 ;; >>> /home/sdcc-builder/build/sdcc-build/orig/sdcc/src/pic14/gen.c:5652:loadSignToC
0041                  00365 _00351_DS_:
0041   1003           00366         BCF     STATUS,0
                      00367 ;; >>> /home/sdcc-builder/build/sdcc-build/orig/sdcc/src/pic14/gen.c:5653:loadSignToC
0042   0??? 0???      00368         BANKSEL r0x1005
0044   1B??           00369         BTFSC   r0x1005,7
                      00370 ;; >>> /home/sdcc-builder/build/sdcc-build/orig/sdcc/src/pic14/gen.c:5654:loadSignToC
0045   1403           00371         BSF     STATUS,0
                      00372 ;;; /home/sdcc-builder/build/sdcc-build/orig/sdcc/src/pic14/gen.c:5618:genMultiAsm *{*
                      00373 ;; ***  genMultiAsm  5619
                      00374 ;; >>> /home/sdcc-builder/build/sdcc-build/orig/sdcc/src/pic14/gen.c:5636:genMultiAsm
                      00375 ;;      1126 rIdx = r0x1068 
0046   0C??           00376         RRF     r0x1005,F
                      00377 ;; >>> /home/sdcc-builder/build/sdcc-build/orig/sdcc/src/pic14/gen.c:5636:genMultiAsm
                      00378 ;;      1126 rIdx = r0x1067 
0047   0C??           00379         RRF     r0x1004,F
                      00380 ;; >>> /home/sdcc-builder/build/sdcc-build/orig/sdcc/src/pic14/gen.c:5750:genGenericShift
0048   3E01           00381         ADDLW   0x01
                      00382 ;; >>> /home/sdcc-builder/build/sdcc-build/orig/sdcc/src/pic14/gen.c:5751:genGenericShift
0049   1C03           00383         BTFSS   STATUS,0
                      00384 ;; >>> /home/sdcc-builder/build/sdcc-build/orig/sdcc/src/pic14/gen.c:5752:genGenericShift
                      00385 ;; ***  popGetLabel  key=18, label offset 233
004A   2???           00386         GOTO    _00351_DS_
                      00387 ;;; /home/sdcc-builder/build/sdcc-build/orig/sdcc/src/pic14/gen.c:2358:resultRemat *{*
                      00388 ;;; /home/sdcc-builder/build/sdcc-build/orig/sdcc/src/pic14/gen.c:7386:genCast *{*
                      00389 ;; ***  genCast  7387
                      00390 ;;      708 register type nRegs=2
                      00391 ;;      708 register type nRegs=1
                      00392 ;;      line = 7395 result AOP_REG=r0x1065, size=1, left -=-, size=0, right AOP_REG=r0x1067, size=2
                      00393 ;; ***  genCast  7537
                      00394 ;; >>> /home/sdcc-builder/build/sdcc-build/orig/sdcc/src/pic14/gen.c:7561:genCast
                      00395 ;;      1126 rIdx = r0x1067 
004B                  00396 _00352_DS_:
004B   0??? 0???      00397         BANKSEL r0x1004
004D   08??           00398         MOVF    r0x1004,W
                      00399 ;; >>> /home/sdcc-builder/build/sdcc-build/orig/sdcc/src/pic14/gen.c:7562:genCast
                      00400 ;;      1126 rIdx = r0x1065 
004E   00??           00401         MOVWF   r0x1002
                      00402 ;;; /home/sdcc-builder/build/sdcc-build/orig/sdcc/src/pic14/gen.c:2358:resultRemat *{*
                      00403 ;;; /home/sdcc-builder/build/sdcc-build/orig/sdcc/src/pic14/gen.c:2820:genGoto *{*
                      00404 ;; >>> /home/sdcc-builder/build/sdcc-build/orig/sdcc/src/pic14/gen.c:2822:genGoto
                      00405 ;; ***  popGetLabel  key=7, label offset 233
                      00406         .line   214; "gpio.c"   break;
004F   2???           00407         GOTO    _00340_DS_
                      00408 ;;; /home/sdcc-builder/build/sdcc-build/orig/sdcc/src/pic14/gen.c:2358:resultRemat *{*
                      00409 ;;; /home/sdcc-builder/build/sdcc-build/orig/sdcc/src/pic14/gen.c:2802:genLabel *{*
                      00410 ;; ***  genLabel  2805
                      00411 ;;; /home/sdcc-builder/build/sdcc-build/orig/sdcc/src/pic14/gen.c:2358:resultRemat *{*
                      00412 ;;; /home/sdcc-builder/build/sdcc-build/orig/sdcc/src/pic14/gen.c:5667:genGenericShift *{*
                      00413 ;; ***  genGenericShift  5670
gpasm-1.5.0 #1285 (Sep 12 2016) obj\Debug\gpi   8-8-2021  22:26:03          PAGE  9


LOC    OBJECT CODE    LINE  SOURCE TEXT
  VALUE

                      00414 ;;      708 register type nRegs=1
                      00415 ;;      708 register type nRegs=2
                      00416 ;; ***  mov2w  1395  offset=1
                      00417 ;; >>> /home/sdcc-builder/build/sdcc-build/orig/sdcc/src/pic14/gen.c:1398:mov2w
0050                  00418 _00335_DS_:
                      00419         .line   216; "gpio.c"   ret=  ReadRegisterPinValue(TRISB,pin) ;
0050   3000           00420         MOVLW   0x00
                      00421 ;; >>> /home/sdcc-builder/build/sdcc-build/orig/sdcc/src/pic14/gen.c:1407:movwf
                      00422 ;;      1126 rIdx = r0x1066 
0051   0??? 0???      00423         BANKSEL r0x1003
0053   00??           00424         MOVWF   r0x1003
                      00425 ;; ***  mov2w  1395  offset=0
                      00426 ;; >>> /home/sdcc-builder/build/sdcc-build/orig/sdcc/src/pic14/gen.c:1398:mov2w
0054   3001           00427         MOVLW   0x01
                      00428 ;; >>> /home/sdcc-builder/build/sdcc-build/orig/sdcc/src/pic14/gen.c:1407:movwf
                      00429 ;;      1126 rIdx = r0x1063 
0055   00??           00430         MOVWF   r0x1000
                      00431 ;; ***  addSign  1087
                      00432 ;;; /home/sdcc-builder/build/sdcc-build/orig/sdcc/src/pic14/genarith.c:1088:addSign *{*
                      00433 ;; ***  mov2w  1395  offset=0
                      00434 ;; >>> /home/sdcc-builder/build/sdcc-build/orig/sdcc/src/pic14/gen.c:1400:mov2w
                      00435 ;;      1126 rIdx = r0x1064 
0056   08??           00436         MOVF    r0x1001,W
                      00437 ;; >>> /home/sdcc-builder/build/sdcc-build/orig/sdcc/src/pic14/gen.c:5741:genGenericShift
0057   3C00           00438         SUBLW   0x00
                      00439 ;; >>> /home/sdcc-builder/build/sdcc-build/orig/sdcc/src/pic14/gen.c:5743:genGenericShift
0058   1903           00440         BTFSC   STATUS,2
                      00441 ;; >>> /home/sdcc-builder/build/sdcc-build/orig/sdcc/src/pic14/gen.c:5744:genGenericShift
                      00442 ;; ***  popGetLabel  key=21, label offset 233
0059   2???           00443         GOTO    _00354_DS_
                      00444 ;;; /home/sdcc-builder/build/sdcc-build/orig/sdcc/src/pic14/gen.c:5618:genMultiAsm *{*
                      00445 ;; ***  genMultiAsm  5619
                      00446 ;; >>> /home/sdcc-builder/build/sdcc-build/orig/sdcc/src/pic14/gen.c:5636:genMultiAsm
                      00447 ;;      1126 rIdx = r0x1063 
005A                  00448 _00353_DS_:
005A   0??? 0???      00449         BANKSEL r0x1000
005C   0D??           00450         RLF     r0x1000,F
                      00451 ;; >>> /home/sdcc-builder/build/sdcc-build/orig/sdcc/src/pic14/gen.c:5636:genMultiAsm
                      00452 ;;      1126 rIdx = r0x1066 
005D   0D??           00453         RLF     r0x1003,F
                      00454 ;; >>> /home/sdcc-builder/build/sdcc-build/orig/sdcc/src/pic14/gen.c:5750:genGenericShift
005E   3E01           00455         ADDLW   0x01
                      00456 ;; >>> /home/sdcc-builder/build/sdcc-build/orig/sdcc/src/pic14/gen.c:5751:genGenericShift
005F   1C03           00457         BTFSS   STATUS,0
                      00458 ;; >>> /home/sdcc-builder/build/sdcc-build/orig/sdcc/src/pic14/gen.c:5752:genGenericShift
                      00459 ;; ***  popGetLabel  key=20, label offset 233
0060   2???           00460         GOTO    _00353_DS_
                      00461 ;;; /home/sdcc-builder/build/sdcc-build/orig/sdcc/src/pic14/gen.c:2358:resultRemat *{*
                      00462 ;;; /home/sdcc-builder/build/sdcc-build/orig/sdcc/src/pic14/gen.c:7386:genCast *{*
                      00463 ;; ***  genCast  7387
                      00464 ;; ***  aopForSym 324
                      00465 ;;      336 sym->rname = _TRISB, size = 1
                      00466 ;;      708 register type nRegs=2
gpasm-1.5.0 #1285 (Sep 12 2016) obj\Debug\gpi   8-8-2021  22:26:03          PAGE 10


LOC    OBJECT CODE    LINE  SOURCE TEXT
  VALUE

                      00467 ;;      line = 7395 result AOP_REG=r0x1067, size=2, left -=-, size=0, right AOP_DIR=_TRISB, size=1
                      00468 ;; >>> /home/sdcc-builder/build/sdcc-build/orig/sdcc/src/pic14/gen.c:7582:genCast
                      00469 ;;      1027
                      00470 ;;      1045  _TRISB   offset=0
0061                  00471 _00354_DS_:
0061   0??? 0???      00472         BANKSEL _TRISB
0063   08??           00473         MOVF    _TRISB,W
                      00474 ;; >>> /home/sdcc-builder/build/sdcc-build/orig/sdcc/src/pic14/gen.c:7583:genCast
                      00475 ;;      1126 rIdx = r0x1067 
0064   0??? 0???      00476         BANKSEL r0x1004
0066   00??           00477         MOVWF   r0x1004
                      00478 ;; ***  addSign  1087
                      00479 ;;; /home/sdcc-builder/build/sdcc-build/orig/sdcc/src/pic14/genarith.c:1088:addSign *{*
                      00480 ;; >>> /home/sdcc-builder/build/sdcc-build/orig/sdcc/src/pic14/genarith.c:1107:addSign
                      00481 ;;      1126 rIdx = r0x1068 
0067   01??           00482         CLRF    r0x1005
                      00483 ;;; /home/sdcc-builder/build/sdcc-build/orig/sdcc/src/pic14/gen.c:2358:resultRemat *{*
                      00484 ;;; /home/sdcc-builder/build/sdcc-build/orig/sdcc/src/pic14/gen.c:4023:genAnd *{*
                      00485 ;; ***  genAnd  4024
                      00486 ;;      708 register type nRegs=2
                      00487 ;;      708 register type nRegs=2
                      00488 ;;      708 register type nRegs=2
                      00489 ;;      line = 4059 result AOP_REG=r0x1063, size=2, left AOP_REG=r0x1063, size=2, right AOP_REG=r0x1067,
                             size=2
                      00490 ;; >>> /home/sdcc-builder/build/sdcc-build/orig/sdcc/src/pic14/gen.c:4241:genAnd
                      00491 ;;      1126 rIdx = r0x1067 
0068   08??           00492         MOVF    r0x1004,W
                      00493 ;; >>> /home/sdcc-builder/build/sdcc-build/orig/sdcc/src/pic14/gen.c:4242:genAnd
                      00494 ;;      1126 rIdx = r0x1063 
0069   05??           00495         ANDWF   r0x1000,F
                      00496 ;; >>> /home/sdcc-builder/build/sdcc-build/orig/sdcc/src/pic14/gen.c:4241:genAnd
                      00497 ;;      1126 rIdx = r0x1068 
006A   3000           00498         MOVLW   0x00
                      00499 ;; >>> /home/sdcc-builder/build/sdcc-build/orig/sdcc/src/pic14/gen.c:4242:genAnd
                      00500 ;;      1126 rIdx = r0x1066 
006B   05??           00501         ANDWF   r0x1003,F
                      00502 ;;; /home/sdcc-builder/build/sdcc-build/orig/sdcc/src/pic14/gen.c:2358:resultRemat *{*
                      00503 ;;; /home/sdcc-builder/build/sdcc-build/orig/sdcc/src/pic14/gen.c:5667:genGenericShift *{*
                      00504 ;; ***  genGenericShift  5670
                      00505 ;;      708 register type nRegs=1
                      00506 ;;      708 register type nRegs=2
                      00507 ;;      708 register type nRegs=2
                      00508 ;; ***  mov2w  1395  offset=1
                      00509 ;; >>> /home/sdcc-builder/build/sdcc-build/orig/sdcc/src/pic14/gen.c:1400:mov2w
                      00510 ;;      1126 rIdx = r0x1066 
006C   08??           00511         MOVF    r0x1003,W
                      00512 ;; >>> /home/sdcc-builder/build/sdcc-build/orig/sdcc/src/pic14/gen.c:1407:movwf
                      00513 ;;      1126 rIdx = r0x1068 
006D   00??           00514         MOVWF   r0x1005
                      00515 ;; ***  mov2w  1395  offset=0
                      00516 ;; >>> /home/sdcc-builder/build/sdcc-build/orig/sdcc/src/pic14/gen.c:1400:mov2w
                      00517 ;;      1126 rIdx = r0x1063 
006E   08??           00518         MOVF    r0x1000,W
gpasm-1.5.0 #1285 (Sep 12 2016) obj\Debug\gpi   8-8-2021  22:26:03          PAGE 11


LOC    OBJECT CODE    LINE  SOURCE TEXT
  VALUE

                      00519 ;; >>> /home/sdcc-builder/build/sdcc-build/orig/sdcc/src/pic14/gen.c:1407:movwf
                      00520 ;;      1126 rIdx = r0x1067 
006F   00??           00521         MOVWF   r0x1004
                      00522 ;; ***  addSign  1087
                      00523 ;;; /home/sdcc-builder/build/sdcc-build/orig/sdcc/src/pic14/genarith.c:1088:addSign *{*
                      00524 ;; ***  mov2w  1395  offset=0
                      00525 ;; >>> /home/sdcc-builder/build/sdcc-build/orig/sdcc/src/pic14/gen.c:1400:mov2w
                      00526 ;;      1126 rIdx = r0x1064 
0070   08??           00527         MOVF    r0x1001,W
                      00528 ;; >>> /home/sdcc-builder/build/sdcc-build/orig/sdcc/src/pic14/gen.c:5741:genGenericShift
0071   3C00           00529         SUBLW   0x00
                      00530 ;; >>> /home/sdcc-builder/build/sdcc-build/orig/sdcc/src/pic14/gen.c:5743:genGenericShift
0072   1903           00531         BTFSC   STATUS,2
                      00532 ;; >>> /home/sdcc-builder/build/sdcc-build/orig/sdcc/src/pic14/gen.c:5744:genGenericShift
                      00533 ;; ***  popGetLabel  key=23, label offset 233
0073   2???           00534         GOTO    _00356_DS_
                      00535 ;;; /home/sdcc-builder/build/sdcc-build/orig/sdcc/src/pic14/gen.c:5649:loadSignToC *{*
                      00536 ;; >>> /home/sdcc-builder/build/sdcc-build/orig/sdcc/src/pic14/gen.c:5652:loadSignToC
0074                  00537 _00355_DS_:
0074   1003           00538         BCF     STATUS,0
                      00539 ;; >>> /home/sdcc-builder/build/sdcc-build/orig/sdcc/src/pic14/gen.c:5653:loadSignToC
0075   0??? 0???      00540         BANKSEL r0x1005
0077   1B??           00541         BTFSC   r0x1005,7
                      00542 ;; >>> /home/sdcc-builder/build/sdcc-build/orig/sdcc/src/pic14/gen.c:5654:loadSignToC
0078   1403           00543         BSF     STATUS,0
                      00544 ;;; /home/sdcc-builder/build/sdcc-build/orig/sdcc/src/pic14/gen.c:5618:genMultiAsm *{*
                      00545 ;; ***  genMultiAsm  5619
                      00546 ;; >>> /home/sdcc-builder/build/sdcc-build/orig/sdcc/src/pic14/gen.c:5636:genMultiAsm
                      00547 ;;      1126 rIdx = r0x1068 
0079   0C??           00548         RRF     r0x1005,F
                      00549 ;; >>> /home/sdcc-builder/build/sdcc-build/orig/sdcc/src/pic14/gen.c:5636:genMultiAsm
                      00550 ;;      1126 rIdx = r0x1067 
007A   0C??           00551         RRF     r0x1004,F
                      00552 ;; >>> /home/sdcc-builder/build/sdcc-build/orig/sdcc/src/pic14/gen.c:5750:genGenericShift
007B   3E01           00553         ADDLW   0x01
                      00554 ;; >>> /home/sdcc-builder/build/sdcc-build/orig/sdcc/src/pic14/gen.c:5751:genGenericShift
007C   1C03           00555         BTFSS   STATUS,0
                      00556 ;; >>> /home/sdcc-builder/build/sdcc-build/orig/sdcc/src/pic14/gen.c:5752:genGenericShift
                      00557 ;; ***  popGetLabel  key=22, label offset 233
007D   2???           00558         GOTO    _00355_DS_
                      00559 ;;; /home/sdcc-builder/build/sdcc-build/orig/sdcc/src/pic14/gen.c:2358:resultRemat *{*
                      00560 ;;; /home/sdcc-builder/build/sdcc-build/orig/sdcc/src/pic14/gen.c:7386:genCast *{*
                      00561 ;; ***  genCast  7387
                      00562 ;;      708 register type nRegs=2
                      00563 ;;      708 register type nRegs=1
                      00564 ;;      line = 7395 result AOP_REG=r0x1065, size=1, left -=-, size=0, right AOP_REG=r0x1067, size=2
                      00565 ;; ***  genCast  7537
                      00566 ;; >>> /home/sdcc-builder/build/sdcc-build/orig/sdcc/src/pic14/gen.c:7561:genCast
                      00567 ;;      1126 rIdx = r0x1067 
007E                  00568 _00356_DS_:
007E   0??? 0???      00569         BANKSEL r0x1004
0080   08??           00570         MOVF    r0x1004,W
                      00571 ;; >>> /home/sdcc-builder/build/sdcc-build/orig/sdcc/src/pic14/gen.c:7562:genCast
gpasm-1.5.0 #1285 (Sep 12 2016) obj\Debug\gpi   8-8-2021  22:26:03          PAGE 12


LOC    OBJECT CODE    LINE  SOURCE TEXT
  VALUE

                      00572 ;;      1126 rIdx = r0x1065 
0081   00??           00573         MOVWF   r0x1002
                      00574 ;;; /home/sdcc-builder/build/sdcc-build/orig/sdcc/src/pic14/gen.c:2358:resultRemat *{*
                      00575 ;;; /home/sdcc-builder/build/sdcc-build/orig/sdcc/src/pic14/gen.c:2820:genGoto *{*
                      00576 ;; >>> /home/sdcc-builder/build/sdcc-build/orig/sdcc/src/pic14/gen.c:2822:genGoto
                      00577 ;; ***  popGetLabel  key=7, label offset 233
                      00578         .line   217; "gpio.c"   break;
0082   2???           00579         GOTO    _00340_DS_
                      00580 ;;; /home/sdcc-builder/build/sdcc-build/orig/sdcc/src/pic14/gen.c:2358:resultRemat *{*
                      00581 ;;; /home/sdcc-builder/build/sdcc-build/orig/sdcc/src/pic14/gen.c:2802:genLabel *{*
                      00582 ;; ***  genLabel  2805
                      00583 ;;; /home/sdcc-builder/build/sdcc-build/orig/sdcc/src/pic14/gen.c:2358:resultRemat *{*
                      00584 ;;; /home/sdcc-builder/build/sdcc-build/orig/sdcc/src/pic14/gen.c:5667:genGenericShift *{*
                      00585 ;; ***  genGenericShift  5670
                      00586 ;;      708 register type nRegs=1
                      00587 ;;      708 register type nRegs=2
                      00588 ;; ***  mov2w  1395  offset=1
                      00589 ;; >>> /home/sdcc-builder/build/sdcc-build/orig/sdcc/src/pic14/gen.c:1398:mov2w
0083                  00590 _00336_DS_:
                      00591         .line   219; "gpio.c"   ret=  ReadRegisterPinValue(TRISC,pin) ;
0083   3000           00592         MOVLW   0x00
                      00593 ;; >>> /home/sdcc-builder/build/sdcc-build/orig/sdcc/src/pic14/gen.c:1407:movwf
                      00594 ;;      1126 rIdx = r0x1066 
0084   0??? 0???      00595         BANKSEL r0x1003
0086   00??           00596         MOVWF   r0x1003
                      00597 ;; ***  mov2w  1395  offset=0
                      00598 ;; >>> /home/sdcc-builder/build/sdcc-build/orig/sdcc/src/pic14/gen.c:1398:mov2w
0087   3001           00599         MOVLW   0x01
                      00600 ;; >>> /home/sdcc-builder/build/sdcc-build/orig/sdcc/src/pic14/gen.c:1407:movwf
                      00601 ;;      1126 rIdx = r0x1063 
0088   00??           00602         MOVWF   r0x1000
                      00603 ;; ***  addSign  1087
                      00604 ;;; /home/sdcc-builder/build/sdcc-build/orig/sdcc/src/pic14/genarith.c:1088:addSign *{*
                      00605 ;; ***  mov2w  1395  offset=0
                      00606 ;; >>> /home/sdcc-builder/build/sdcc-build/orig/sdcc/src/pic14/gen.c:1400:mov2w
                      00607 ;;      1126 rIdx = r0x1064 
0089   08??           00608         MOVF    r0x1001,W
                      00609 ;; >>> /home/sdcc-builder/build/sdcc-build/orig/sdcc/src/pic14/gen.c:5741:genGenericShift
008A   3C00           00610         SUBLW   0x00
                      00611 ;; >>> /home/sdcc-builder/build/sdcc-build/orig/sdcc/src/pic14/gen.c:5743:genGenericShift
008B   1903           00612         BTFSC   STATUS,2
                      00613 ;; >>> /home/sdcc-builder/build/sdcc-build/orig/sdcc/src/pic14/gen.c:5744:genGenericShift
                      00614 ;; ***  popGetLabel  key=25, label offset 233
008C   2???           00615         GOTO    _00358_DS_
                      00616 ;;; /home/sdcc-builder/build/sdcc-build/orig/sdcc/src/pic14/gen.c:5618:genMultiAsm *{*
                      00617 ;; ***  genMultiAsm  5619
                      00618 ;; >>> /home/sdcc-builder/build/sdcc-build/orig/sdcc/src/pic14/gen.c:5636:genMultiAsm
                      00619 ;;      1126 rIdx = r0x1063 
008D                  00620 _00357_DS_:
008D   0??? 0???      00621         BANKSEL r0x1000
008F   0D??           00622         RLF     r0x1000,F
                      00623 ;; >>> /home/sdcc-builder/build/sdcc-build/orig/sdcc/src/pic14/gen.c:5636:genMultiAsm
                      00624 ;;      1126 rIdx = r0x1066 
gpasm-1.5.0 #1285 (Sep 12 2016) obj\Debug\gpi   8-8-2021  22:26:03          PAGE 13


LOC    OBJECT CODE    LINE  SOURCE TEXT
  VALUE

0090   0D??           00625         RLF     r0x1003,F
                      00626 ;; >>> /home/sdcc-builder/build/sdcc-build/orig/sdcc/src/pic14/gen.c:5750:genGenericShift
0091   3E01           00627         ADDLW   0x01
                      00628 ;; >>> /home/sdcc-builder/build/sdcc-build/orig/sdcc/src/pic14/gen.c:5751:genGenericShift
0092   1C03           00629         BTFSS   STATUS,0
                      00630 ;; >>> /home/sdcc-builder/build/sdcc-build/orig/sdcc/src/pic14/gen.c:5752:genGenericShift
                      00631 ;; ***  popGetLabel  key=24, label offset 233
0093   2???           00632         GOTO    _00357_DS_
                      00633 ;;; /home/sdcc-builder/build/sdcc-build/orig/sdcc/src/pic14/gen.c:2358:resultRemat *{*
                      00634 ;;; /home/sdcc-builder/build/sdcc-build/orig/sdcc/src/pic14/gen.c:7386:genCast *{*
                      00635 ;; ***  genCast  7387
                      00636 ;; ***  aopForSym 324
                      00637 ;;      336 sym->rname = _TRISC, size = 1
                      00638 ;;      708 register type nRegs=2
                      00639 ;;      line = 7395 result AOP_REG=r0x1067, size=2, left -=-, size=0, right AOP_DIR=_TRISC, size=1
                      00640 ;; >>> /home/sdcc-builder/build/sdcc-build/orig/sdcc/src/pic14/gen.c:7582:genCast
                      00641 ;;      1027
                      00642 ;;      1045  _TRISC   offset=0
0094                  00643 _00358_DS_:
0094   0??? 0???      00644         BANKSEL _TRISC
0096   08??           00645         MOVF    _TRISC,W
                      00646 ;; >>> /home/sdcc-builder/build/sdcc-build/orig/sdcc/src/pic14/gen.c:7583:genCast
                      00647 ;;      1126 rIdx = r0x1067 
0097   0??? 0???      00648         BANKSEL r0x1004
0099   00??           00649         MOVWF   r0x1004
                      00650 ;; ***  addSign  1087
                      00651 ;;; /home/sdcc-builder/build/sdcc-build/orig/sdcc/src/pic14/genarith.c:1088:addSign *{*
                      00652 ;; >>> /home/sdcc-builder/build/sdcc-build/orig/sdcc/src/pic14/genarith.c:1107:addSign
                      00653 ;;      1126 rIdx = r0x1068 
009A   01??           00654         CLRF    r0x1005
                      00655 ;;; /home/sdcc-builder/build/sdcc-build/orig/sdcc/src/pic14/gen.c:2358:resultRemat *{*
                      00656 ;;; /home/sdcc-builder/build/sdcc-build/orig/sdcc/src/pic14/gen.c:4023:genAnd *{*
                      00657 ;; ***  genAnd  4024
                      00658 ;;      708 register type nRegs=2
                      00659 ;;      708 register type nRegs=2
                      00660 ;;      708 register type nRegs=2
                      00661 ;;      line = 4059 result AOP_REG=r0x1063, size=2, left AOP_REG=r0x1063, size=2, right AOP_REG=r0x1067,
                             size=2
                      00662 ;; >>> /home/sdcc-builder/build/sdcc-build/orig/sdcc/src/pic14/gen.c:4241:genAnd
                      00663 ;;      1126 rIdx = r0x1067 
009B   08??           00664         MOVF    r0x1004,W
                      00665 ;; >>> /home/sdcc-builder/build/sdcc-build/orig/sdcc/src/pic14/gen.c:4242:genAnd
                      00666 ;;      1126 rIdx = r0x1063 
009C   05??           00667         ANDWF   r0x1000,F
                      00668 ;; >>> /home/sdcc-builder/build/sdcc-build/orig/sdcc/src/pic14/gen.c:4241:genAnd
                      00669 ;;      1126 rIdx = r0x1068 
009D   3000           00670         MOVLW   0x00
                      00671 ;; >>> /home/sdcc-builder/build/sdcc-build/orig/sdcc/src/pic14/gen.c:4242:genAnd
                      00672 ;;      1126 rIdx = r0x1066 
009E   05??           00673         ANDWF   r0x1003,F
                      00674 ;;; /home/sdcc-builder/build/sdcc-build/orig/sdcc/src/pic14/gen.c:2358:resultRemat *{*
                      00675 ;;; /home/sdcc-builder/build/sdcc-build/orig/sdcc/src/pic14/gen.c:5667:genGenericShift *{*
                      00676 ;; ***  genGenericShift  5670
gpasm-1.5.0 #1285 (Sep 12 2016) obj\Debug\gpi   8-8-2021  22:26:03          PAGE 14


LOC    OBJECT CODE    LINE  SOURCE TEXT
  VALUE

                      00677 ;;      708 register type nRegs=1
                      00678 ;;      708 register type nRegs=2
                      00679 ;;      708 register type nRegs=2
                      00680 ;; ***  mov2w  1395  offset=1
                      00681 ;; >>> /home/sdcc-builder/build/sdcc-build/orig/sdcc/src/pic14/gen.c:1400:mov2w
                      00682 ;;      1126 rIdx = r0x1066 
009F   08??           00683         MOVF    r0x1003,W
                      00684 ;; >>> /home/sdcc-builder/build/sdcc-build/orig/sdcc/src/pic14/gen.c:1407:movwf
                      00685 ;;      1126 rIdx = r0x1068 
00A0   00??           00686         MOVWF   r0x1005
                      00687 ;; ***  mov2w  1395  offset=0
                      00688 ;; >>> /home/sdcc-builder/build/sdcc-build/orig/sdcc/src/pic14/gen.c:1400:mov2w
                      00689 ;;      1126 rIdx = r0x1063 
00A1   08??           00690         MOVF    r0x1000,W
                      00691 ;; >>> /home/sdcc-builder/build/sdcc-build/orig/sdcc/src/pic14/gen.c:1407:movwf
                      00692 ;;      1126 rIdx = r0x1067 
00A2   00??           00693         MOVWF   r0x1004
                      00694 ;; ***  addSign  1087
                      00695 ;;; /home/sdcc-builder/build/sdcc-build/orig/sdcc/src/pic14/genarith.c:1088:addSign *{*
                      00696 ;; ***  mov2w  1395  offset=0
                      00697 ;; >>> /home/sdcc-builder/build/sdcc-build/orig/sdcc/src/pic14/gen.c:1400:mov2w
                      00698 ;;      1126 rIdx = r0x1064 
00A3   08??           00699         MOVF    r0x1001,W
                      00700 ;; >>> /home/sdcc-builder/build/sdcc-build/orig/sdcc/src/pic14/gen.c:5741:genGenericShift
00A4   3C00           00701         SUBLW   0x00
                      00702 ;; >>> /home/sdcc-builder/build/sdcc-build/orig/sdcc/src/pic14/gen.c:5743:genGenericShift
00A5   1903           00703         BTFSC   STATUS,2
                      00704 ;; >>> /home/sdcc-builder/build/sdcc-build/orig/sdcc/src/pic14/gen.c:5744:genGenericShift
                      00705 ;; ***  popGetLabel  key=27, label offset 233
00A6   2???           00706         GOTO    _00360_DS_
                      00707 ;;; /home/sdcc-builder/build/sdcc-build/orig/sdcc/src/pic14/gen.c:5649:loadSignToC *{*
                      00708 ;; >>> /home/sdcc-builder/build/sdcc-build/orig/sdcc/src/pic14/gen.c:5652:loadSignToC
00A7                  00709 _00359_DS_:
00A7   1003           00710         BCF     STATUS,0
                      00711 ;; >>> /home/sdcc-builder/build/sdcc-build/orig/sdcc/src/pic14/gen.c:5653:loadSignToC
00A8   0??? 0???      00712         BANKSEL r0x1005
00AA   1B??           00713         BTFSC   r0x1005,7
                      00714 ;; >>> /home/sdcc-builder/build/sdcc-build/orig/sdcc/src/pic14/gen.c:5654:loadSignToC
00AB   1403           00715         BSF     STATUS,0
                      00716 ;;; /home/sdcc-builder/build/sdcc-build/orig/sdcc/src/pic14/gen.c:5618:genMultiAsm *{*
                      00717 ;; ***  genMultiAsm  5619
                      00718 ;; >>> /home/sdcc-builder/build/sdcc-build/orig/sdcc/src/pic14/gen.c:5636:genMultiAsm
                      00719 ;;      1126 rIdx = r0x1068 
00AC   0C??           00720         RRF     r0x1005,F
                      00721 ;; >>> /home/sdcc-builder/build/sdcc-build/orig/sdcc/src/pic14/gen.c:5636:genMultiAsm
                      00722 ;;      1126 rIdx = r0x1067 
00AD   0C??           00723         RRF     r0x1004,F
                      00724 ;; >>> /home/sdcc-builder/build/sdcc-build/orig/sdcc/src/pic14/gen.c:5750:genGenericShift
00AE   3E01           00725         ADDLW   0x01
                      00726 ;; >>> /home/sdcc-builder/build/sdcc-build/orig/sdcc/src/pic14/gen.c:5751:genGenericShift
00AF   1C03           00727         BTFSS   STATUS,0
                      00728 ;; >>> /home/sdcc-builder/build/sdcc-build/orig/sdcc/src/pic14/gen.c:5752:genGenericShift
                      00729 ;; ***  popGetLabel  key=26, label offset 233
gpasm-1.5.0 #1285 (Sep 12 2016) obj\Debug\gpi   8-8-2021  22:26:03          PAGE 15


LOC    OBJECT CODE    LINE  SOURCE TEXT
  VALUE

00B0   2???           00730         GOTO    _00359_DS_
                      00731 ;;; /home/sdcc-builder/build/sdcc-build/orig/sdcc/src/pic14/gen.c:2358:resultRemat *{*
                      00732 ;;; /home/sdcc-builder/build/sdcc-build/orig/sdcc/src/pic14/gen.c:7386:genCast *{*
                      00733 ;; ***  genCast  7387
                      00734 ;;      708 register type nRegs=2
                      00735 ;;      708 register type nRegs=1
                      00736 ;;      line = 7395 result AOP_REG=r0x1065, size=1, left -=-, size=0, right AOP_REG=r0x1067, size=2
                      00737 ;; ***  genCast  7537
                      00738 ;; >>> /home/sdcc-builder/build/sdcc-build/orig/sdcc/src/pic14/gen.c:7561:genCast
                      00739 ;;      1126 rIdx = r0x1067 
00B1                  00740 _00360_DS_:
00B1   0??? 0???      00741         BANKSEL r0x1004
00B3   08??           00742         MOVF    r0x1004,W
                      00743 ;; >>> /home/sdcc-builder/build/sdcc-build/orig/sdcc/src/pic14/gen.c:7562:genCast
                      00744 ;;      1126 rIdx = r0x1065 
00B4   00??           00745         MOVWF   r0x1002
                      00746 ;;; /home/sdcc-builder/build/sdcc-build/orig/sdcc/src/pic14/gen.c:2358:resultRemat *{*
                      00747 ;;; /home/sdcc-builder/build/sdcc-build/orig/sdcc/src/pic14/gen.c:2820:genGoto *{*
                      00748 ;; >>> /home/sdcc-builder/build/sdcc-build/orig/sdcc/src/pic14/gen.c:2822:genGoto
                      00749 ;; ***  popGetLabel  key=7, label offset 233
                      00750         .line   220; "gpio.c"   break;
00B5   2???           00751         GOTO    _00340_DS_
                      00752 ;;; /home/sdcc-builder/build/sdcc-build/orig/sdcc/src/pic14/gen.c:2358:resultRemat *{*
                      00753 ;;; /home/sdcc-builder/build/sdcc-build/orig/sdcc/src/pic14/gen.c:2802:genLabel *{*
                      00754 ;; ***  genLabel  2805
                      00755 ;;; /home/sdcc-builder/build/sdcc-build/orig/sdcc/src/pic14/gen.c:2358:resultRemat *{*
                      00756 ;;; /home/sdcc-builder/build/sdcc-build/orig/sdcc/src/pic14/gen.c:5667:genGenericShift *{*
                      00757 ;; ***  genGenericShift  5670
                      00758 ;;      708 register type nRegs=1
                      00759 ;;      708 register type nRegs=2
                      00760 ;; ***  mov2w  1395  offset=1
                      00761 ;; >>> /home/sdcc-builder/build/sdcc-build/orig/sdcc/src/pic14/gen.c:1398:mov2w
00B6                  00762 _00337_DS_:
                      00763         .line   222; "gpio.c"   ret=  ReadRegisterPinValue(TRISD,pin) ;
00B6   3000           00764         MOVLW   0x00
                      00765 ;; >>> /home/sdcc-builder/build/sdcc-build/orig/sdcc/src/pic14/gen.c:1407:movwf
                      00766 ;;      1126 rIdx = r0x1066 
00B7   0??? 0???      00767         BANKSEL r0x1003
00B9   00??           00768         MOVWF   r0x1003
                      00769 ;; ***  mov2w  1395  offset=0
                      00770 ;; >>> /home/sdcc-builder/build/sdcc-build/orig/sdcc/src/pic14/gen.c:1398:mov2w
00BA   3001           00771         MOVLW   0x01
                      00772 ;; >>> /home/sdcc-builder/build/sdcc-build/orig/sdcc/src/pic14/gen.c:1407:movwf
                      00773 ;;      1126 rIdx = r0x1063 
00BB   00??           00774         MOVWF   r0x1000
                      00775 ;; ***  addSign  1087
                      00776 ;;; /home/sdcc-builder/build/sdcc-build/orig/sdcc/src/pic14/genarith.c:1088:addSign *{*
                      00777 ;; ***  mov2w  1395  offset=0
                      00778 ;; >>> /home/sdcc-builder/build/sdcc-build/orig/sdcc/src/pic14/gen.c:1400:mov2w
                      00779 ;;      1126 rIdx = r0x1064 
00BC   08??           00780         MOVF    r0x1001,W
                      00781 ;; >>> /home/sdcc-builder/build/sdcc-build/orig/sdcc/src/pic14/gen.c:5741:genGenericShift
00BD   3C00           00782         SUBLW   0x00
gpasm-1.5.0 #1285 (Sep 12 2016) obj\Debug\gpi   8-8-2021  22:26:03          PAGE 16


LOC    OBJECT CODE    LINE  SOURCE TEXT
  VALUE

                      00783 ;; >>> /home/sdcc-builder/build/sdcc-build/orig/sdcc/src/pic14/gen.c:5743:genGenericShift
00BE   1903           00784         BTFSC   STATUS,2
                      00785 ;; >>> /home/sdcc-builder/build/sdcc-build/orig/sdcc/src/pic14/gen.c:5744:genGenericShift
                      00786 ;; ***  popGetLabel  key=29, label offset 233
00BF   2???           00787         GOTO    _00362_DS_
                      00788 ;;; /home/sdcc-builder/build/sdcc-build/orig/sdcc/src/pic14/gen.c:5618:genMultiAsm *{*
                      00789 ;; ***  genMultiAsm  5619
                      00790 ;; >>> /home/sdcc-builder/build/sdcc-build/orig/sdcc/src/pic14/gen.c:5636:genMultiAsm
                      00791 ;;      1126 rIdx = r0x1063 
00C0                  00792 _00361_DS_:
00C0   0??? 0???      00793         BANKSEL r0x1000
00C2   0D??           00794         RLF     r0x1000,F
                      00795 ;; >>> /home/sdcc-builder/build/sdcc-build/orig/sdcc/src/pic14/gen.c:5636:genMultiAsm
                      00796 ;;      1126 rIdx = r0x1066 
00C3   0D??           00797         RLF     r0x1003,F
                      00798 ;; >>> /home/sdcc-builder/build/sdcc-build/orig/sdcc/src/pic14/gen.c:5750:genGenericShift
00C4   3E01           00799         ADDLW   0x01
                      00800 ;; >>> /home/sdcc-builder/build/sdcc-build/orig/sdcc/src/pic14/gen.c:5751:genGenericShift
00C5   1C03           00801         BTFSS   STATUS,0
                      00802 ;; >>> /home/sdcc-builder/build/sdcc-build/orig/sdcc/src/pic14/gen.c:5752:genGenericShift
                      00803 ;; ***  popGetLabel  key=28, label offset 233
00C6   2???           00804         GOTO    _00361_DS_
                      00805 ;;; /home/sdcc-builder/build/sdcc-build/orig/sdcc/src/pic14/gen.c:2358:resultRemat *{*
                      00806 ;;; /home/sdcc-builder/build/sdcc-build/orig/sdcc/src/pic14/gen.c:7386:genCast *{*
                      00807 ;; ***  genCast  7387
                      00808 ;; ***  aopForSym 324
                      00809 ;;      336 sym->rname = _TRISD, size = 1
                      00810 ;;      708 register type nRegs=2
                      00811 ;;      line = 7395 result AOP_REG=r0x1067, size=2, left -=-, size=0, right AOP_DIR=_TRISD, size=1
                      00812 ;; >>> /home/sdcc-builder/build/sdcc-build/orig/sdcc/src/pic14/gen.c:7582:genCast
                      00813 ;;      1027
                      00814 ;;      1045  _TRISD   offset=0
00C7                  00815 _00362_DS_:
00C7   0??? 0???      00816         BANKSEL _TRISD
00C9   08??           00817         MOVF    _TRISD,W
                      00818 ;; >>> /home/sdcc-builder/build/sdcc-build/orig/sdcc/src/pic14/gen.c:7583:genCast
                      00819 ;;      1126 rIdx = r0x1067 
00CA   0??? 0???      00820         BANKSEL r0x1004
00CC   00??           00821         MOVWF   r0x1004
                      00822 ;; ***  addSign  1087
                      00823 ;;; /home/sdcc-builder/build/sdcc-build/orig/sdcc/src/pic14/genarith.c:1088:addSign *{*
                      00824 ;; >>> /home/sdcc-builder/build/sdcc-build/orig/sdcc/src/pic14/genarith.c:1107:addSign
                      00825 ;;      1126 rIdx = r0x1068 
00CD   01??           00826         CLRF    r0x1005
                      00827 ;;; /home/sdcc-builder/build/sdcc-build/orig/sdcc/src/pic14/gen.c:2358:resultRemat *{*
                      00828 ;;; /home/sdcc-builder/build/sdcc-build/orig/sdcc/src/pic14/gen.c:4023:genAnd *{*
                      00829 ;; ***  genAnd  4024
                      00830 ;;      708 register type nRegs=2
                      00831 ;;      708 register type nRegs=2
                      00832 ;;      708 register type nRegs=2
                      00833 ;;      line = 4059 result AOP_REG=r0x1063, size=2, left AOP_REG=r0x1063, size=2, right AOP_REG=r0x1067,
                             size=2
                      00834 ;; >>> /home/sdcc-builder/build/sdcc-build/orig/sdcc/src/pic14/gen.c:4241:genAnd
gpasm-1.5.0 #1285 (Sep 12 2016) obj\Debug\gpi   8-8-2021  22:26:03          PAGE 17


LOC    OBJECT CODE    LINE  SOURCE TEXT
  VALUE

                      00835 ;;      1126 rIdx = r0x1067 
00CE   08??           00836         MOVF    r0x1004,W
                      00837 ;; >>> /home/sdcc-builder/build/sdcc-build/orig/sdcc/src/pic14/gen.c:4242:genAnd
                      00838 ;;      1126 rIdx = r0x1063 
00CF   05??           00839         ANDWF   r0x1000,F
                      00840 ;; >>> /home/sdcc-builder/build/sdcc-build/orig/sdcc/src/pic14/gen.c:4241:genAnd
                      00841 ;;      1126 rIdx = r0x1068 
00D0   3000           00842         MOVLW   0x00
                      00843 ;; >>> /home/sdcc-builder/build/sdcc-build/orig/sdcc/src/pic14/gen.c:4242:genAnd
                      00844 ;;      1126 rIdx = r0x1066 
00D1   05??           00845         ANDWF   r0x1003,F
                      00846 ;;; /home/sdcc-builder/build/sdcc-build/orig/sdcc/src/pic14/gen.c:2358:resultRemat *{*
                      00847 ;;; /home/sdcc-builder/build/sdcc-build/orig/sdcc/src/pic14/gen.c:5667:genGenericShift *{*
                      00848 ;; ***  genGenericShift  5670
                      00849 ;;      708 register type nRegs=1
                      00850 ;;      708 register type nRegs=2
                      00851 ;;      708 register type nRegs=2
                      00852 ;; ***  mov2w  1395  offset=1
                      00853 ;; >>> /home/sdcc-builder/build/sdcc-build/orig/sdcc/src/pic14/gen.c:1400:mov2w
                      00854 ;;      1126 rIdx = r0x1066 
00D2   08??           00855         MOVF    r0x1003,W
                      00856 ;; >>> /home/sdcc-builder/build/sdcc-build/orig/sdcc/src/pic14/gen.c:1407:movwf
                      00857 ;;      1126 rIdx = r0x1068 
00D3   00??           00858         MOVWF   r0x1005
                      00859 ;; ***  mov2w  1395  offset=0
                      00860 ;; >>> /home/sdcc-builder/build/sdcc-build/orig/sdcc/src/pic14/gen.c:1400:mov2w
                      00861 ;;      1126 rIdx = r0x1063 
00D4   08??           00862         MOVF    r0x1000,W
                      00863 ;; >>> /home/sdcc-builder/build/sdcc-build/orig/sdcc/src/pic14/gen.c:1407:movwf
                      00864 ;;      1126 rIdx = r0x1067 
00D5   00??           00865         MOVWF   r0x1004
                      00866 ;; ***  addSign  1087
                      00867 ;;; /home/sdcc-builder/build/sdcc-build/orig/sdcc/src/pic14/genarith.c:1088:addSign *{*
                      00868 ;; ***  mov2w  1395  offset=0
                      00869 ;; >>> /home/sdcc-builder/build/sdcc-build/orig/sdcc/src/pic14/gen.c:1400:mov2w
                      00870 ;;      1126 rIdx = r0x1064 
00D6   08??           00871         MOVF    r0x1001,W
                      00872 ;; >>> /home/sdcc-builder/build/sdcc-build/orig/sdcc/src/pic14/gen.c:5741:genGenericShift
00D7   3C00           00873         SUBLW   0x00
                      00874 ;; >>> /home/sdcc-builder/build/sdcc-build/orig/sdcc/src/pic14/gen.c:5743:genGenericShift
00D8   1903           00875         BTFSC   STATUS,2
                      00876 ;; >>> /home/sdcc-builder/build/sdcc-build/orig/sdcc/src/pic14/gen.c:5744:genGenericShift
                      00877 ;; ***  popGetLabel  key=31, label offset 233
00D9   2???           00878         GOTO    _00364_DS_
                      00879 ;;; /home/sdcc-builder/build/sdcc-build/orig/sdcc/src/pic14/gen.c:5649:loadSignToC *{*
                      00880 ;; >>> /home/sdcc-builder/build/sdcc-build/orig/sdcc/src/pic14/gen.c:5652:loadSignToC
00DA                  00881 _00363_DS_:
00DA   1003           00882         BCF     STATUS,0
                      00883 ;; >>> /home/sdcc-builder/build/sdcc-build/orig/sdcc/src/pic14/gen.c:5653:loadSignToC
00DB   0??? 0???      00884         BANKSEL r0x1005
00DD   1B??           00885         BTFSC   r0x1005,7
                      00886 ;; >>> /home/sdcc-builder/build/sdcc-build/orig/sdcc/src/pic14/gen.c:5654:loadSignToC
00DE   1403           00887         BSF     STATUS,0
gpasm-1.5.0 #1285 (Sep 12 2016) obj\Debug\gpi   8-8-2021  22:26:03          PAGE 18


LOC    OBJECT CODE    LINE  SOURCE TEXT
  VALUE

                      00888 ;;; /home/sdcc-builder/build/sdcc-build/orig/sdcc/src/pic14/gen.c:5618:genMultiAsm *{*
                      00889 ;; ***  genMultiAsm  5619
                      00890 ;; >>> /home/sdcc-builder/build/sdcc-build/orig/sdcc/src/pic14/gen.c:5636:genMultiAsm
                      00891 ;;      1126 rIdx = r0x1068 
00DF   0C??           00892         RRF     r0x1005,F
                      00893 ;; >>> /home/sdcc-builder/build/sdcc-build/orig/sdcc/src/pic14/gen.c:5636:genMultiAsm
                      00894 ;;      1126 rIdx = r0x1067 
00E0   0C??           00895         RRF     r0x1004,F
                      00896 ;; >>> /home/sdcc-builder/build/sdcc-build/orig/sdcc/src/pic14/gen.c:5750:genGenericShift
00E1   3E01           00897         ADDLW   0x01
                      00898 ;; >>> /home/sdcc-builder/build/sdcc-build/orig/sdcc/src/pic14/gen.c:5751:genGenericShift
00E2   1C03           00899         BTFSS   STATUS,0
                      00900 ;; >>> /home/sdcc-builder/build/sdcc-build/orig/sdcc/src/pic14/gen.c:5752:genGenericShift
                      00901 ;; ***  popGetLabel  key=30, label offset 233
00E3   2???           00902         GOTO    _00363_DS_
                      00903 ;;; /home/sdcc-builder/build/sdcc-build/orig/sdcc/src/pic14/gen.c:2358:resultRemat *{*
                      00904 ;;; /home/sdcc-builder/build/sdcc-build/orig/sdcc/src/pic14/gen.c:7386:genCast *{*
                      00905 ;; ***  genCast  7387
                      00906 ;;      708 register type nRegs=2
                      00907 ;;      708 register type nRegs=1
                      00908 ;;      line = 7395 result AOP_REG=r0x1065, size=1, left -=-, size=0, right AOP_REG=r0x1067, size=2
                      00909 ;; ***  genCast  7537
                      00910 ;; >>> /home/sdcc-builder/build/sdcc-build/orig/sdcc/src/pic14/gen.c:7561:genCast
                      00911 ;;      1126 rIdx = r0x1067 
00E4                  00912 _00364_DS_:
00E4   0??? 0???      00913         BANKSEL r0x1004
00E6   08??           00914         MOVF    r0x1004,W
                      00915 ;; >>> /home/sdcc-builder/build/sdcc-build/orig/sdcc/src/pic14/gen.c:7562:genCast
                      00916 ;;      1126 rIdx = r0x1065 
00E7   00??           00917         MOVWF   r0x1002
                      00918 ;;; /home/sdcc-builder/build/sdcc-build/orig/sdcc/src/pic14/gen.c:2358:resultRemat *{*
                      00919 ;;; /home/sdcc-builder/build/sdcc-build/orig/sdcc/src/pic14/gen.c:2820:genGoto *{*
                      00920 ;; >>> /home/sdcc-builder/build/sdcc-build/orig/sdcc/src/pic14/gen.c:2822:genGoto
                      00921 ;; ***  popGetLabel  key=7, label offset 233
                      00922         .line   223; "gpio.c"   break;
00E8   2???           00923         GOTO    _00340_DS_
                      00924 ;;; /home/sdcc-builder/build/sdcc-build/orig/sdcc/src/pic14/gen.c:2358:resultRemat *{*
                      00925 ;;; /home/sdcc-builder/build/sdcc-build/orig/sdcc/src/pic14/gen.c:2802:genLabel *{*
                      00926 ;; ***  genLabel  2805
                      00927 ;;; /home/sdcc-builder/build/sdcc-build/orig/sdcc/src/pic14/gen.c:2358:resultRemat *{*
                      00928 ;;; /home/sdcc-builder/build/sdcc-build/orig/sdcc/src/pic14/gen.c:5667:genGenericShift *{*
                      00929 ;; ***  genGenericShift  5670
                      00930 ;;      708 register type nRegs=1
                      00931 ;;      708 register type nRegs=2
                      00932 ;; ***  mov2w  1395  offset=1
                      00933 ;; >>> /home/sdcc-builder/build/sdcc-build/orig/sdcc/src/pic14/gen.c:1398:mov2w
00E9                  00934 _00338_DS_:
                      00935         .line   225; "gpio.c"   ret=  ReadRegisterPinValue(TRISE,pin) ;
00E9   3000           00936         MOVLW   0x00
                      00937 ;; >>> /home/sdcc-builder/build/sdcc-build/orig/sdcc/src/pic14/gen.c:1407:movwf
                      00938 ;;      1126 rIdx = r0x1066 
00EA   0??? 0???      00939         BANKSEL r0x1003
00EC   00??           00940         MOVWF   r0x1003
gpasm-1.5.0 #1285 (Sep 12 2016) obj\Debug\gpi   8-8-2021  22:26:03          PAGE 19


LOC    OBJECT CODE    LINE  SOURCE TEXT
  VALUE

                      00941 ;; ***  mov2w  1395  offset=0
                      00942 ;; >>> /home/sdcc-builder/build/sdcc-build/orig/sdcc/src/pic14/gen.c:1398:mov2w
00ED   3001           00943         MOVLW   0x01
                      00944 ;; >>> /home/sdcc-builder/build/sdcc-build/orig/sdcc/src/pic14/gen.c:1407:movwf
                      00945 ;;      1126 rIdx = r0x1063 
00EE   00??           00946         MOVWF   r0x1000
                      00947 ;; ***  addSign  1087
                      00948 ;;; /home/sdcc-builder/build/sdcc-build/orig/sdcc/src/pic14/genarith.c:1088:addSign *{*
                      00949 ;; ***  mov2w  1395  offset=0
                      00950 ;; >>> /home/sdcc-builder/build/sdcc-build/orig/sdcc/src/pic14/gen.c:1400:mov2w
                      00951 ;;      1126 rIdx = r0x1064 
00EF   08??           00952         MOVF    r0x1001,W
                      00953 ;; >>> /home/sdcc-builder/build/sdcc-build/orig/sdcc/src/pic14/gen.c:5741:genGenericShift
00F0   3C00           00954         SUBLW   0x00
                      00955 ;; >>> /home/sdcc-builder/build/sdcc-build/orig/sdcc/src/pic14/gen.c:5743:genGenericShift
00F1   1903           00956         BTFSC   STATUS,2
                      00957 ;; >>> /home/sdcc-builder/build/sdcc-build/orig/sdcc/src/pic14/gen.c:5744:genGenericShift
                      00958 ;; ***  popGetLabel  key=33, label offset 233
00F2   2???           00959         GOTO    _00366_DS_
                      00960 ;;; /home/sdcc-builder/build/sdcc-build/orig/sdcc/src/pic14/gen.c:5618:genMultiAsm *{*
                      00961 ;; ***  genMultiAsm  5619
                      00962 ;; >>> /home/sdcc-builder/build/sdcc-build/orig/sdcc/src/pic14/gen.c:5636:genMultiAsm
                      00963 ;;      1126 rIdx = r0x1063 
00F3                  00964 _00365_DS_:
00F3   0??? 0???      00965         BANKSEL r0x1000
00F5   0D??           00966         RLF     r0x1000,F
                      00967 ;; >>> /home/sdcc-builder/build/sdcc-build/orig/sdcc/src/pic14/gen.c:5636:genMultiAsm
                      00968 ;;      1126 rIdx = r0x1066 
00F6   0D??           00969         RLF     r0x1003,F
                      00970 ;; >>> /home/sdcc-builder/build/sdcc-build/orig/sdcc/src/pic14/gen.c:5750:genGenericShift
00F7   3E01           00971         ADDLW   0x01
                      00972 ;; >>> /home/sdcc-builder/build/sdcc-build/orig/sdcc/src/pic14/gen.c:5751:genGenericShift
00F8   1C03           00973         BTFSS   STATUS,0
                      00974 ;; >>> /home/sdcc-builder/build/sdcc-build/orig/sdcc/src/pic14/gen.c:5752:genGenericShift
                      00975 ;; ***  popGetLabel  key=32, label offset 233
00F9   2???           00976         GOTO    _00365_DS_
                      00977 ;;; /home/sdcc-builder/build/sdcc-build/orig/sdcc/src/pic14/gen.c:2358:resultRemat *{*
                      00978 ;;; /home/sdcc-builder/build/sdcc-build/orig/sdcc/src/pic14/gen.c:7386:genCast *{*
                      00979 ;; ***  genCast  7387
                      00980 ;; ***  aopForSym 324
                      00981 ;;      336 sym->rname = _TRISE, size = 1
                      00982 ;;      708 register type nRegs=2
                      00983 ;;      line = 7395 result AOP_REG=r0x1067, size=2, left -=-, size=0, right AOP_DIR=_TRISE, size=1
                      00984 ;; >>> /home/sdcc-builder/build/sdcc-build/orig/sdcc/src/pic14/gen.c:7582:genCast
                      00985 ;;      1027
                      00986 ;;      1045  _TRISE   offset=0
00FA                  00987 _00366_DS_:
00FA   0??? 0???      00988         BANKSEL _TRISE
00FC   08??           00989         MOVF    _TRISE,W
                      00990 ;; >>> /home/sdcc-builder/build/sdcc-build/orig/sdcc/src/pic14/gen.c:7583:genCast
                      00991 ;;      1126 rIdx = r0x1067 
00FD   0??? 0???      00992         BANKSEL r0x1004
00FF   00??           00993         MOVWF   r0x1004
gpasm-1.5.0 #1285 (Sep 12 2016) obj\Debug\gpi   8-8-2021  22:26:03          PAGE 20


LOC    OBJECT CODE    LINE  SOURCE TEXT
  VALUE

                      00994 ;; ***  addSign  1087
                      00995 ;;; /home/sdcc-builder/build/sdcc-build/orig/sdcc/src/pic14/genarith.c:1088:addSign *{*
                      00996 ;; >>> /home/sdcc-builder/build/sdcc-build/orig/sdcc/src/pic14/genarith.c:1107:addSign
                      00997 ;;      1126 rIdx = r0x1068 
0100   01??           00998         CLRF    r0x1005
                      00999 ;;; /home/sdcc-builder/build/sdcc-build/orig/sdcc/src/pic14/gen.c:2358:resultRemat *{*
                      01000 ;;; /home/sdcc-builder/build/sdcc-build/orig/sdcc/src/pic14/gen.c:4023:genAnd *{*
                      01001 ;; ***  genAnd  4024
                      01002 ;;      708 register type nRegs=2
                      01003 ;;      708 register type nRegs=2
                      01004 ;;      708 register type nRegs=2
                      01005 ;;      line = 4059 result AOP_REG=r0x1063, size=2, left AOP_REG=r0x1063, size=2, right AOP_REG=r0x1067,
                             size=2
                      01006 ;; >>> /home/sdcc-builder/build/sdcc-build/orig/sdcc/src/pic14/gen.c:4241:genAnd
                      01007 ;;      1126 rIdx = r0x1067 
0101   08??           01008         MOVF    r0x1004,W
                      01009 ;; >>> /home/sdcc-builder/build/sdcc-build/orig/sdcc/src/pic14/gen.c:4242:genAnd
                      01010 ;;      1126 rIdx = r0x1063 
0102   05??           01011         ANDWF   r0x1000,F
                      01012 ;; >>> /home/sdcc-builder/build/sdcc-build/orig/sdcc/src/pic14/gen.c:4241:genAnd
                      01013 ;;      1126 rIdx = r0x1068 
0103   3000           01014         MOVLW   0x00
                      01015 ;; >>> /home/sdcc-builder/build/sdcc-build/orig/sdcc/src/pic14/gen.c:4242:genAnd
                      01016 ;;      1126 rIdx = r0x1066 
0104   05??           01017         ANDWF   r0x1003,F
                      01018 ;;; /home/sdcc-builder/build/sdcc-build/orig/sdcc/src/pic14/gen.c:2358:resultRemat *{*
                      01019 ;;; /home/sdcc-builder/build/sdcc-build/orig/sdcc/src/pic14/gen.c:5667:genGenericShift *{*
                      01020 ;; ***  genGenericShift  5670
                      01021 ;;      708 register type nRegs=1
                      01022 ;;      708 register type nRegs=2
                      01023 ;;      708 register type nRegs=2
                      01024 ;; ***  mov2w  1395  offset=1
                      01025 ;; >>> /home/sdcc-builder/build/sdcc-build/orig/sdcc/src/pic14/gen.c:1400:mov2w
                      01026 ;;      1126 rIdx = r0x1066 
0105   08??           01027         MOVF    r0x1003,W
                      01028 ;; >>> /home/sdcc-builder/build/sdcc-build/orig/sdcc/src/pic14/gen.c:1407:movwf
                      01029 ;;      1126 rIdx = r0x1068 
0106   00??           01030         MOVWF   r0x1005
                      01031 ;; ***  mov2w  1395  offset=0
                      01032 ;; >>> /home/sdcc-builder/build/sdcc-build/orig/sdcc/src/pic14/gen.c:1400:mov2w
                      01033 ;;      1126 rIdx = r0x1063 
0107   08??           01034         MOVF    r0x1000,W
                      01035 ;; >>> /home/sdcc-builder/build/sdcc-build/orig/sdcc/src/pic14/gen.c:1407:movwf
                      01036 ;;      1126 rIdx = r0x1067 
0108   00??           01037         MOVWF   r0x1004
                      01038 ;; ***  addSign  1087
                      01039 ;;; /home/sdcc-builder/build/sdcc-build/orig/sdcc/src/pic14/genarith.c:1088:addSign *{*
                      01040 ;; ***  mov2w  1395  offset=0
                      01041 ;; >>> /home/sdcc-builder/build/sdcc-build/orig/sdcc/src/pic14/gen.c:1400:mov2w
                      01042 ;;      1126 rIdx = r0x1064 
0109   08??           01043         MOVF    r0x1001,W
                      01044 ;; >>> /home/sdcc-builder/build/sdcc-build/orig/sdcc/src/pic14/gen.c:5741:genGenericShift
010A   3C00           01045         SUBLW   0x00
gpasm-1.5.0 #1285 (Sep 12 2016) obj\Debug\gpi   8-8-2021  22:26:03          PAGE 21


LOC    OBJECT CODE    LINE  SOURCE TEXT
  VALUE

                      01046 ;; >>> /home/sdcc-builder/build/sdcc-build/orig/sdcc/src/pic14/gen.c:5743:genGenericShift
010B   1903           01047         BTFSC   STATUS,2
                      01048 ;; >>> /home/sdcc-builder/build/sdcc-build/orig/sdcc/src/pic14/gen.c:5744:genGenericShift
                      01049 ;; ***  popGetLabel  key=35, label offset 233
010C   2???           01050         GOTO    _00368_DS_
                      01051 ;;; /home/sdcc-builder/build/sdcc-build/orig/sdcc/src/pic14/gen.c:5649:loadSignToC *{*
                      01052 ;; >>> /home/sdcc-builder/build/sdcc-build/orig/sdcc/src/pic14/gen.c:5652:loadSignToC
010D                  01053 _00367_DS_:
010D   1003           01054         BCF     STATUS,0
                      01055 ;; >>> /home/sdcc-builder/build/sdcc-build/orig/sdcc/src/pic14/gen.c:5653:loadSignToC
010E   0??? 0???      01056         BANKSEL r0x1005
0110   1B??           01057         BTFSC   r0x1005,7
                      01058 ;; >>> /home/sdcc-builder/build/sdcc-build/orig/sdcc/src/pic14/gen.c:5654:loadSignToC
0111   1403           01059         BSF     STATUS,0
                      01060 ;;; /home/sdcc-builder/build/sdcc-build/orig/sdcc/src/pic14/gen.c:5618:genMultiAsm *{*
                      01061 ;; ***  genMultiAsm  5619
                      01062 ;; >>> /home/sdcc-builder/build/sdcc-build/orig/sdcc/src/pic14/gen.c:5636:genMultiAsm
                      01063 ;;      1126 rIdx = r0x1068 
0112   0C??           01064         RRF     r0x1005,F
                      01065 ;; >>> /home/sdcc-builder/build/sdcc-build/orig/sdcc/src/pic14/gen.c:5636:genMultiAsm
                      01066 ;;      1126 rIdx = r0x1067 
0113   0C??           01067         RRF     r0x1004,F
                      01068 ;; >>> /home/sdcc-builder/build/sdcc-build/orig/sdcc/src/pic14/gen.c:5750:genGenericShift
0114   3E01           01069         ADDLW   0x01
                      01070 ;; >>> /home/sdcc-builder/build/sdcc-build/orig/sdcc/src/pic14/gen.c:5751:genGenericShift
0115   1C03           01071         BTFSS   STATUS,0
                      01072 ;; >>> /home/sdcc-builder/build/sdcc-build/orig/sdcc/src/pic14/gen.c:5752:genGenericShift
                      01073 ;; ***  popGetLabel  key=34, label offset 233
0116   2???           01074         GOTO    _00367_DS_
                      01075 ;;; /home/sdcc-builder/build/sdcc-build/orig/sdcc/src/pic14/gen.c:2358:resultRemat *{*
                      01076 ;;; /home/sdcc-builder/build/sdcc-build/orig/sdcc/src/pic14/gen.c:7386:genCast *{*
                      01077 ;; ***  genCast  7387
                      01078 ;;      708 register type nRegs=2
                      01079 ;;      708 register type nRegs=1
                      01080 ;;      line = 7395 result AOP_REG=r0x1065, size=1, left -=-, size=0, right AOP_REG=r0x1067, size=2
                      01081 ;; ***  genCast  7537
                      01082 ;; >>> /home/sdcc-builder/build/sdcc-build/orig/sdcc/src/pic14/gen.c:7561:genCast
                      01083 ;;      1126 rIdx = r0x1067 
0117                  01084 _00368_DS_:
0117   0??? 0???      01085         BANKSEL r0x1004
0119   08??           01086         MOVF    r0x1004,W
                      01087 ;; >>> /home/sdcc-builder/build/sdcc-build/orig/sdcc/src/pic14/gen.c:7562:genCast
                      01088 ;;      1126 rIdx = r0x1065 
011A   00??           01089         MOVWF   r0x1002
                      01090 ;;; /home/sdcc-builder/build/sdcc-build/orig/sdcc/src/pic14/gen.c:2358:resultRemat *{*
                      01091 ;;; /home/sdcc-builder/build/sdcc-build/orig/sdcc/src/pic14/gen.c:2802:genLabel *{*
                      01092 ;; ***  genLabel  2805
                      01093 ;;; /home/sdcc-builder/build/sdcc-build/orig/sdcc/src/pic14/gen.c:2358:resultRemat *{*
                      01094 ;;; /home/sdcc-builder/build/sdcc-build/orig/sdcc/src/pic14/gen.c:2725:genRet *{*
                      01095 ;; ***  genRet  2727
                      01096 ;;      708 register type nRegs=1
                      01097 ;;; /home/sdcc-builder/build/sdcc-build/orig/sdcc/src/pic14/gen.c:1357:mov2w_op *{*
                      01098 ;; ***  mov2w  1395  offset=0
gpasm-1.5.0 #1285 (Sep 12 2016) obj\Debug\gpi   8-8-2021  22:26:03          PAGE 22


LOC    OBJECT CODE    LINE  SOURCE TEXT
  VALUE

                      01099 ;; >>> /home/sdcc-builder/build/sdcc-build/orig/sdcc/src/pic14/gen.c:1400:mov2w
                      01100 ;;      1126 rIdx = r0x1065 
011B                  01101 _00340_DS_:
                      01102         .line   231; "gpio.c"   return ret ;
011B   0??? 0???      01103         BANKSEL r0x1002
011D   08??           01104         MOVF    r0x1002,W
                      01105 ;;; /home/sdcc-builder/build/sdcc-build/orig/sdcc/src/pic14/gen.c:2358:resultRemat *{*
                      01106 ;;; /home/sdcc-builder/build/sdcc-build/orig/sdcc/src/pic14/gen.c:2802:genLabel *{*
                      01107 ;; ***  genLabel  2805
                      01108 ;;; /home/sdcc-builder/build/sdcc-build/orig/sdcc/src/pic14/gen.c:2358:resultRemat *{*
                      01109 ;;; /home/sdcc-builder/build/sdcc-build/orig/sdcc/src/pic14/gen.c:2570:genEndFunction *{*
                      01110 ;; ***  genEndFunction  2572
                      01111         .line   232; "gpio.c"   }
011E   0008           01112         RETURN  
                      01113 ; exit point of _GPIO_GetPinDirection
                      01114 
                      01115 ;***
                      01116 ;  pBlock Stats: dbName = C
                      01117 ;***
                      01118 ;has an exit
                      01119 ;7 compiler assigned registers:
                      01120 ;   r0x1006
                      01121 ;   STK00
                      01122 ;   r0x1007
                      01123 ;   r0x1008
                      01124 ;   r0x1009
                      01125 ;   r0x100A
                      01126 ;   r0x100B
                      01127 ;; Starting pCode block
                      01128 ;;; /home/sdcc-builder/build/sdcc-build/orig/sdcc/src/pic14/gen.c:2358:resultRemat *{*
                      01129 ;;; /home/sdcc-builder/build/sdcc-build/orig/sdcc/src/pic14/gen.c:2802:genLabel *{*
                      01130 ;; ***  genLabel  2805
                      01131 ;;; /home/sdcc-builder/build/sdcc-build/orig/sdcc/src/pic14/gen.c:2358:resultRemat *{*
                      01132 ;;; /home/sdcc-builder/build/sdcc-build/orig/sdcc/src/pic14/gen.c:2382:genFunction *{*
                      01133 ;; ***  genFunction  2384 curr label offset=175previous max_key=15 
                      01134 S_gpio__GPIO_GetPinState        code
0000                  01135 _GPIO_GetPinState:
                      01136 ; 2 exit points
                      01137 ;;; /home/sdcc-builder/build/sdcc-build/orig/sdcc/src/pic14/gen.c:2358:resultRemat *{*
                      01138 ;;; /home/sdcc-builder/build/sdcc-build/orig/sdcc/src/pic14/gen.c:7642:genReceive *{*
                      01139 ;; ***  genReceive  7643
                      01140 ;;      708 register type nRegs=1
                      01141 ;;; /home/sdcc-builder/build/sdcc-build/orig/sdcc/src/pic14/gen.c:1929:assignResultValue *{*
                      01142 ;; ***  assignResultValue  1931
                      01143 ;;      line = 1933 result -=-, size=0, left AOP_REG=r0x105D, size=1, right -=-, size=0
                      01144 ;; >>> /home/sdcc-builder/build/sdcc-build/orig/sdcc/src/pic14/gen.c:1407:movwf
                      01145 ;;      1126 rIdx = r0x105D 
                      01146         .line   181; "gpio.c"   tSTATE GPIO_GetPinState(tPORT port , tPIN pin)
0000   0??? 0???      01147         BANKSEL r0x1006
0002   00??           01148         MOVWF   r0x1006
                      01149 ;;; /home/sdcc-builder/build/sdcc-build/orig/sdcc/src/pic14/gen.c:2358:resultRemat *{*
                      01150 ;;; /home/sdcc-builder/build/sdcc-build/orig/sdcc/src/pic14/gen.c:7642:genReceive *{*
                      01151 ;; ***  genReceive  7643
gpasm-1.5.0 #1285 (Sep 12 2016) obj\Debug\gpi   8-8-2021  22:26:03          PAGE 23


LOC    OBJECT CODE    LINE  SOURCE TEXT
  VALUE

                      01152 ;;      708 register type nRegs=1
                      01153 ;;; /home/sdcc-builder/build/sdcc-build/orig/sdcc/src/pic14/gen.c:1929:assignResultValue *{*
                      01154 ;; ***  assignResultValue  1931
                      01155 ;;      line = 1933 result -=-, size=0, left AOP_REG=r0x105E, size=1, right -=-, size=0
                      01156 ;; >>> /home/sdcc-builder/build/sdcc-build/orig/sdcc/src/pic14/gen.c:1437:get_returnvalue
                      01157 ;; ***  popRegFromIdx,1059  , rIdx=0x7f
0003   08??           01158         MOVF    STK00,W
                      01159 ;; >>> /home/sdcc-builder/build/sdcc-build/orig/sdcc/src/pic14/gen.c:1407:movwf
                      01160 ;;      1126 rIdx = r0x105E 
0004   00??           01161         MOVWF   r0x1007
                      01162 ;;; /home/sdcc-builder/build/sdcc-build/orig/sdcc/src/pic14/gen.c:2358:resultRemat *{*
                      01163 ;;; /home/sdcc-builder/build/sdcc-build/orig/sdcc/src/pic14/gen.c:7192:genAssign *{*
                      01164 ;; ***  genAssign  7193
                      01165 ;;      708 register type nRegs=1
                      01166 ;;      line = 7202 result AOP_REG=r0x105F, size=1, left -=-, size=0, right AOP_LIT=0x00, size=1
                      01167 ;; ***  genAssign  7286
                      01168 ;; >>> /home/sdcc-builder/build/sdcc-build/orig/sdcc/src/pic14/gen.c:7298:genAssign
                      01169 ;;      1126 rIdx = r0x105F 
                      01170         .line   183; "gpio.c"   tSTATE ret = LOW ;
0005   01??           01171         CLRF    r0x1008
                      01172 ;;; /home/sdcc-builder/build/sdcc-build/orig/sdcc/src/pic14/gen.c:2358:resultRemat *{*
                      01173 ;;; /home/sdcc-builder/build/sdcc-build/orig/sdcc/src/pic14/gen.c:3616:genCmpGt *{*
                      01174 ;; ***  genCmpGt  3617
                      01175 ;;      708 register type nRegs=1
                      01176 ;;; /home/sdcc-builder/build/sdcc-build/orig/sdcc/src/pic14/gen.c:3354:genCmp *{*
                      01177 ;;swapping arguments (AOP_TYPEs 1/2)
                      01178 ;;unsigned compare: left >= lit(0x5=5), size=1
                      01179 ;; >>> /home/sdcc-builder/build/sdcc-build/orig/sdcc/src/pic14/gen.c:3325:pic14_mov2w_regOrLit
                      01180         .line   184; "gpio.c"   switch(port)
0006   3005           01181         MOVLW   0x05
                      01182 ;; >>> /home/sdcc-builder/build/sdcc-build/orig/sdcc/src/pic14/gen.c:3492:genCmp
                      01183 ;;      1126 rIdx = r0x105D 
0007   02??           01184         SUBWF   r0x1006,W
                      01185 ;;; /home/sdcc-builder/build/sdcc-build/orig/sdcc/src/pic14/gen.c:3297:genSkipc *{*
                      01186 ;; >>> /home/sdcc-builder/build/sdcc-build/orig/sdcc/src/pic14/gen.c:3302:genSkipc
0008   1803           01187         BTFSC   STATUS,0
                      01188 ;; >>> /home/sdcc-builder/build/sdcc-build/orig/sdcc/src/pic14/gen.c:3306:genSkipc
                      01189 ;; ***  popGetLabel  key=7, label offset 194
0009   2???           01190         GOTO    _00301_DS_
                      01191 ;;genSkipc:3307: created from rifx:0000000000BC9340
                      01192 ;;; /home/sdcc-builder/build/sdcc-build/orig/sdcc/src/pic14/gen.c:2358:resultRemat *{*
                      01193 ;;; /home/sdcc-builder/build/sdcc-build/orig/sdcc/src/pic14/gen.c:2358:resultRemat *{*
                      01194 ;;; /home/sdcc-builder/build/sdcc-build/orig/sdcc/src/pic14/gen.c:7337:genJumpTab *{*
                      01195 ;; ***  genJumpTab  7338
                      01196 ;;      708 register type nRegs=1
                      01197 ;; >>> /home/sdcc-builder/build/sdcc-build/orig/sdcc/src/pic14/gen.c:7353:genJumpTab
                      01198 ;; ***  popGetLabel  key=15, label offset 194
000A   30??           01199         MOVLW   HIGH(_00309_DS_)
                      01200 ;; >>> /home/sdcc-builder/build/sdcc-build/orig/sdcc/src/pic14/gen.c:7354:genJumpTab
000B   1283 1303      01201         BANKSEL PCLATH
000D   008A           01202         MOVWF   PCLATH
                      01203 ;; >>> /home/sdcc-builder/build/sdcc-build/orig/sdcc/src/pic14/gen.c:7355:genJumpTab
                      01204 ;; ***  popGetLabel  key=15, label offset 194
gpasm-1.5.0 #1285 (Sep 12 2016) obj\Debug\gpi   8-8-2021  22:26:03          PAGE 24


LOC    OBJECT CODE    LINE  SOURCE TEXT
  VALUE

000E   30??           01205         MOVLW   _00309_DS_
                      01206 ;; >>> /home/sdcc-builder/build/sdcc-build/orig/sdcc/src/pic14/gen.c:7356:genJumpTab
                      01207 ;;      1126 rIdx = r0x105D 
000F   0??? 0???      01208         BANKSEL r0x1006
0011   07??           01209         ADDWF   r0x1006,W
                      01210 ;; >>> /home/sdcc-builder/build/sdcc-build/orig/sdcc/src/pic14/gen.c:7357:genJumpTab
0012   1C03           01211         BTFSS   STATUS,0
0013   2???           01212         GOTO    _00002_DS_
                      01213 ;; >>> /home/sdcc-builder/build/sdcc-build/orig/sdcc/src/pic14/gen.c:7358:genJumpTab
0014   1283 1303      01214         BANKSEL PCLATH
0016   0A8A           01215         INCF    PCLATH,F
                      01216 ;; >>> /home/sdcc-builder/build/sdcc-build/orig/sdcc/src/pic14/gen.c:7359:genJumpTab
0017                  01217 _00002_DS_:
0017   0082           01218         MOVWF   PCL
                      01219 ;; >>> /home/sdcc-builder/build/sdcc-build/orig/sdcc/src/pic14/gen.c:7368:genJumpTab
                      01220 ;; ***  popGetLabel  key=1, label offset 194
0018                  01221 _00309_DS_:
0018   2???           01222         GOTO    _00295_DS_
                      01223 ;; >>> /home/sdcc-builder/build/sdcc-build/orig/sdcc/src/pic14/gen.c:7368:genJumpTab
                      01224 ;; ***  popGetLabel  key=2, label offset 194
0019   2???           01225         GOTO    _00296_DS_
                      01226 ;; >>> /home/sdcc-builder/build/sdcc-build/orig/sdcc/src/pic14/gen.c:7368:genJumpTab
                      01227 ;; ***  popGetLabel  key=3, label offset 194
001A   2???           01228         GOTO    _00297_DS_
                      01229 ;; >>> /home/sdcc-builder/build/sdcc-build/orig/sdcc/src/pic14/gen.c:7368:genJumpTab
                      01230 ;; ***  popGetLabel  key=4, label offset 194
001B   2???           01231         GOTO    _00298_DS_
                      01232 ;; >>> /home/sdcc-builder/build/sdcc-build/orig/sdcc/src/pic14/gen.c:7368:genJumpTab
                      01233 ;; ***  popGetLabel  key=5, label offset 194
001C   2???           01234         GOTO    _00299_DS_
                      01235 ;;; /home/sdcc-builder/build/sdcc-build/orig/sdcc/src/pic14/gen.c:2358:resultRemat *{*
                      01236 ;;; /home/sdcc-builder/build/sdcc-build/orig/sdcc/src/pic14/gen.c:2802:genLabel *{*
                      01237 ;; ***  genLabel  2805
                      01238 ;;; /home/sdcc-builder/build/sdcc-build/orig/sdcc/src/pic14/gen.c:2358:resultRemat *{*
                      01239 ;;; /home/sdcc-builder/build/sdcc-build/orig/sdcc/src/pic14/gen.c:5667:genGenericShift *{*
                      01240 ;; ***  genGenericShift  5670
                      01241 ;;      708 register type nRegs=1
                      01242 ;;      708 register type nRegs=2
                      01243 ;; ***  mov2w  1395  offset=1
                      01244 ;; >>> /home/sdcc-builder/build/sdcc-build/orig/sdcc/src/pic14/gen.c:1398:mov2w
001D                  01245 _00295_DS_:
                      01246         .line   187; "gpio.c"   ret=  ReadRegisterPinValue(PORTA,pin) ;
001D   3000           01247         MOVLW   0x00
                      01248 ;; >>> /home/sdcc-builder/build/sdcc-build/orig/sdcc/src/pic14/gen.c:1407:movwf
                      01249 ;;      1126 rIdx = r0x1060 
001E   0??? 0???      01250         BANKSEL r0x1009
0020   00??           01251         MOVWF   r0x1009
                      01252 ;; ***  mov2w  1395  offset=0
                      01253 ;; >>> /home/sdcc-builder/build/sdcc-build/orig/sdcc/src/pic14/gen.c:1398:mov2w
0021   3001           01254         MOVLW   0x01
                      01255 ;; >>> /home/sdcc-builder/build/sdcc-build/orig/sdcc/src/pic14/gen.c:1407:movwf
                      01256 ;;      1126 rIdx = r0x105D 
0022   00??           01257         MOVWF   r0x1006
gpasm-1.5.0 #1285 (Sep 12 2016) obj\Debug\gpi   8-8-2021  22:26:03          PAGE 25


LOC    OBJECT CODE    LINE  SOURCE TEXT
  VALUE

                      01258 ;; ***  addSign  1087
                      01259 ;;; /home/sdcc-builder/build/sdcc-build/orig/sdcc/src/pic14/genarith.c:1088:addSign *{*
                      01260 ;; ***  mov2w  1395  offset=0
                      01261 ;; >>> /home/sdcc-builder/build/sdcc-build/orig/sdcc/src/pic14/gen.c:1400:mov2w
                      01262 ;;      1126 rIdx = r0x105E 
0023   08??           01263         MOVF    r0x1007,W
                      01264 ;; >>> /home/sdcc-builder/build/sdcc-build/orig/sdcc/src/pic14/gen.c:5741:genGenericShift
0024   3C00           01265         SUBLW   0x00
                      01266 ;; >>> /home/sdcc-builder/build/sdcc-build/orig/sdcc/src/pic14/gen.c:5743:genGenericShift
0025   1903           01267         BTFSC   STATUS,2
                      01268 ;; >>> /home/sdcc-builder/build/sdcc-build/orig/sdcc/src/pic14/gen.c:5744:genGenericShift
                      01269 ;; ***  popGetLabel  key=17, label offset 194
0026   2???           01270         GOTO    _00311_DS_
                      01271 ;;; /home/sdcc-builder/build/sdcc-build/orig/sdcc/src/pic14/gen.c:5618:genMultiAsm *{*
                      01272 ;; ***  genMultiAsm  5619
                      01273 ;; >>> /home/sdcc-builder/build/sdcc-build/orig/sdcc/src/pic14/gen.c:5636:genMultiAsm
                      01274 ;;      1126 rIdx = r0x105D 
0027                  01275 _00310_DS_:
0027   0??? 0???      01276         BANKSEL r0x1006
0029   0D??           01277         RLF     r0x1006,F
                      01278 ;; >>> /home/sdcc-builder/build/sdcc-build/orig/sdcc/src/pic14/gen.c:5636:genMultiAsm
                      01279 ;;      1126 rIdx = r0x1060 
002A   0D??           01280         RLF     r0x1009,F
                      01281 ;; >>> /home/sdcc-builder/build/sdcc-build/orig/sdcc/src/pic14/gen.c:5750:genGenericShift
002B   3E01           01282         ADDLW   0x01
                      01283 ;; >>> /home/sdcc-builder/build/sdcc-build/orig/sdcc/src/pic14/gen.c:5751:genGenericShift
002C   1C03           01284         BTFSS   STATUS,0
                      01285 ;; >>> /home/sdcc-builder/build/sdcc-build/orig/sdcc/src/pic14/gen.c:5752:genGenericShift
                      01286 ;; ***  popGetLabel  key=16, label offset 194
002D   2???           01287         GOTO    _00310_DS_
                      01288 ;;; /home/sdcc-builder/build/sdcc-build/orig/sdcc/src/pic14/gen.c:2358:resultRemat *{*
                      01289 ;;; /home/sdcc-builder/build/sdcc-build/orig/sdcc/src/pic14/gen.c:7386:genCast *{*
                      01290 ;; ***  genCast  7387
                      01291 ;; ***  aopForSym 324
                      01292 ;;      336 sym->rname = _PORTA, size = 1
                      01293 ;;      708 register type nRegs=2
                      01294 ;;      line = 7395 result AOP_REG=r0x1061, size=2, left -=-, size=0, right AOP_DIR=_PORTA, size=1
                      01295 ;; >>> /home/sdcc-builder/build/sdcc-build/orig/sdcc/src/pic14/gen.c:7582:genCast
                      01296 ;;      1027
                      01297 ;;      1045  _PORTA   offset=0
002E                  01298 _00311_DS_:
002E   0??? 0???      01299         BANKSEL _PORTA
0030   08??           01300         MOVF    _PORTA,W
                      01301 ;; >>> /home/sdcc-builder/build/sdcc-build/orig/sdcc/src/pic14/gen.c:7583:genCast
                      01302 ;;      1126 rIdx = r0x1061 
0031   0??? 0???      01303         BANKSEL r0x100A
0033   00??           01304         MOVWF   r0x100A
                      01305 ;; ***  addSign  1087
                      01306 ;;; /home/sdcc-builder/build/sdcc-build/orig/sdcc/src/pic14/genarith.c:1088:addSign *{*
                      01307 ;; >>> /home/sdcc-builder/build/sdcc-build/orig/sdcc/src/pic14/genarith.c:1107:addSign
                      01308 ;;      1126 rIdx = r0x1062 
0034   01??           01309         CLRF    r0x100B
                      01310 ;;; /home/sdcc-builder/build/sdcc-build/orig/sdcc/src/pic14/gen.c:2358:resultRemat *{*
gpasm-1.5.0 #1285 (Sep 12 2016) obj\Debug\gpi   8-8-2021  22:26:03          PAGE 26


LOC    OBJECT CODE    LINE  SOURCE TEXT
  VALUE

                      01311 ;;; /home/sdcc-builder/build/sdcc-build/orig/sdcc/src/pic14/gen.c:4023:genAnd *{*
                      01312 ;; ***  genAnd  4024
                      01313 ;;      708 register type nRegs=2
                      01314 ;;      708 register type nRegs=2
                      01315 ;;      708 register type nRegs=2
                      01316 ;;      line = 4059 result AOP_REG=r0x105D, size=2, left AOP_REG=r0x105D, size=2, right AOP_REG=r0x1061,
                             size=2
                      01317 ;; >>> /home/sdcc-builder/build/sdcc-build/orig/sdcc/src/pic14/gen.c:4241:genAnd
                      01318 ;;      1126 rIdx = r0x1061 
0035   08??           01319         MOVF    r0x100A,W
                      01320 ;; >>> /home/sdcc-builder/build/sdcc-build/orig/sdcc/src/pic14/gen.c:4242:genAnd
                      01321 ;;      1126 rIdx = r0x105D 
0036   05??           01322         ANDWF   r0x1006,F
                      01323 ;; >>> /home/sdcc-builder/build/sdcc-build/orig/sdcc/src/pic14/gen.c:4241:genAnd
                      01324 ;;      1126 rIdx = r0x1062 
0037   3000           01325         MOVLW   0x00
                      01326 ;; >>> /home/sdcc-builder/build/sdcc-build/orig/sdcc/src/pic14/gen.c:4242:genAnd
                      01327 ;;      1126 rIdx = r0x1060 
0038   05??           01328         ANDWF   r0x1009,F
                      01329 ;;; /home/sdcc-builder/build/sdcc-build/orig/sdcc/src/pic14/gen.c:2358:resultRemat *{*
                      01330 ;;; /home/sdcc-builder/build/sdcc-build/orig/sdcc/src/pic14/gen.c:5667:genGenericShift *{*
                      01331 ;; ***  genGenericShift  5670
                      01332 ;;      708 register type nRegs=1
                      01333 ;;      708 register type nRegs=2
                      01334 ;;      708 register type nRegs=2
                      01335 ;; ***  mov2w  1395  offset=1
                      01336 ;; >>> /home/sdcc-builder/build/sdcc-build/orig/sdcc/src/pic14/gen.c:1400:mov2w
                      01337 ;;      1126 rIdx = r0x1060 
0039   08??           01338         MOVF    r0x1009,W
                      01339 ;; >>> /home/sdcc-builder/build/sdcc-build/orig/sdcc/src/pic14/gen.c:1407:movwf
                      01340 ;;      1126 rIdx = r0x1062 
003A   00??           01341         MOVWF   r0x100B
                      01342 ;; ***  mov2w  1395  offset=0
                      01343 ;; >>> /home/sdcc-builder/build/sdcc-build/orig/sdcc/src/pic14/gen.c:1400:mov2w
                      01344 ;;      1126 rIdx = r0x105D 
003B   08??           01345         MOVF    r0x1006,W
                      01346 ;; >>> /home/sdcc-builder/build/sdcc-build/orig/sdcc/src/pic14/gen.c:1407:movwf
                      01347 ;;      1126 rIdx = r0x1061 
003C   00??           01348         MOVWF   r0x100A
                      01349 ;; ***  addSign  1087
                      01350 ;;; /home/sdcc-builder/build/sdcc-build/orig/sdcc/src/pic14/genarith.c:1088:addSign *{*
                      01351 ;; ***  mov2w  1395  offset=0
                      01352 ;; >>> /home/sdcc-builder/build/sdcc-build/orig/sdcc/src/pic14/gen.c:1400:mov2w
                      01353 ;;      1126 rIdx = r0x105E 
003D   08??           01354         MOVF    r0x1007,W
                      01355 ;; >>> /home/sdcc-builder/build/sdcc-build/orig/sdcc/src/pic14/gen.c:5741:genGenericShift
003E   3C00           01356         SUBLW   0x00
                      01357 ;; >>> /home/sdcc-builder/build/sdcc-build/orig/sdcc/src/pic14/gen.c:5743:genGenericShift
003F   1903           01358         BTFSC   STATUS,2
                      01359 ;; >>> /home/sdcc-builder/build/sdcc-build/orig/sdcc/src/pic14/gen.c:5744:genGenericShift
                      01360 ;; ***  popGetLabel  key=19, label offset 194
0040   2???           01361         GOTO    _00313_DS_
                      01362 ;;; /home/sdcc-builder/build/sdcc-build/orig/sdcc/src/pic14/gen.c:5649:loadSignToC *{*
gpasm-1.5.0 #1285 (Sep 12 2016) obj\Debug\gpi   8-8-2021  22:26:03          PAGE 27


LOC    OBJECT CODE    LINE  SOURCE TEXT
  VALUE

                      01363 ;; >>> /home/sdcc-builder/build/sdcc-build/orig/sdcc/src/pic14/gen.c:5652:loadSignToC
0041                  01364 _00312_DS_:
0041   1003           01365         BCF     STATUS,0
                      01366 ;; >>> /home/sdcc-builder/build/sdcc-build/orig/sdcc/src/pic14/gen.c:5653:loadSignToC
0042   0??? 0???      01367         BANKSEL r0x100B
0044   1B??           01368         BTFSC   r0x100B,7
                      01369 ;; >>> /home/sdcc-builder/build/sdcc-build/orig/sdcc/src/pic14/gen.c:5654:loadSignToC
0045   1403           01370         BSF     STATUS,0
                      01371 ;;; /home/sdcc-builder/build/sdcc-build/orig/sdcc/src/pic14/gen.c:5618:genMultiAsm *{*
                      01372 ;; ***  genMultiAsm  5619
                      01373 ;; >>> /home/sdcc-builder/build/sdcc-build/orig/sdcc/src/pic14/gen.c:5636:genMultiAsm
                      01374 ;;      1126 rIdx = r0x1062 
0046   0C??           01375         RRF     r0x100B,F
                      01376 ;; >>> /home/sdcc-builder/build/sdcc-build/orig/sdcc/src/pic14/gen.c:5636:genMultiAsm
                      01377 ;;      1126 rIdx = r0x1061 
0047   0C??           01378         RRF     r0x100A,F
                      01379 ;; >>> /home/sdcc-builder/build/sdcc-build/orig/sdcc/src/pic14/gen.c:5750:genGenericShift
0048   3E01           01380         ADDLW   0x01
                      01381 ;; >>> /home/sdcc-builder/build/sdcc-build/orig/sdcc/src/pic14/gen.c:5751:genGenericShift
0049   1C03           01382         BTFSS   STATUS,0
                      01383 ;; >>> /home/sdcc-builder/build/sdcc-build/orig/sdcc/src/pic14/gen.c:5752:genGenericShift
                      01384 ;; ***  popGetLabel  key=18, label offset 194
004A   2???           01385         GOTO    _00312_DS_
                      01386 ;;; /home/sdcc-builder/build/sdcc-build/orig/sdcc/src/pic14/gen.c:2358:resultRemat *{*
                      01387 ;;; /home/sdcc-builder/build/sdcc-build/orig/sdcc/src/pic14/gen.c:7386:genCast *{*
                      01388 ;; ***  genCast  7387
                      01389 ;;      708 register type nRegs=2
                      01390 ;;      708 register type nRegs=1
                      01391 ;;      line = 7395 result AOP_REG=r0x105F, size=1, left -=-, size=0, right AOP_REG=r0x1061, size=2
                      01392 ;; ***  genCast  7537
                      01393 ;; >>> /home/sdcc-builder/build/sdcc-build/orig/sdcc/src/pic14/gen.c:7561:genCast
                      01394 ;;      1126 rIdx = r0x1061 
004B                  01395 _00313_DS_:
004B   0??? 0???      01396         BANKSEL r0x100A
004D   08??           01397         MOVF    r0x100A,W
                      01398 ;; >>> /home/sdcc-builder/build/sdcc-build/orig/sdcc/src/pic14/gen.c:7562:genCast
                      01399 ;;      1126 rIdx = r0x105F 
004E   00??           01400         MOVWF   r0x1008
                      01401 ;;; /home/sdcc-builder/build/sdcc-build/orig/sdcc/src/pic14/gen.c:2358:resultRemat *{*
                      01402 ;;; /home/sdcc-builder/build/sdcc-build/orig/sdcc/src/pic14/gen.c:2820:genGoto *{*
                      01403 ;; >>> /home/sdcc-builder/build/sdcc-build/orig/sdcc/src/pic14/gen.c:2822:genGoto
                      01404 ;; ***  popGetLabel  key=7, label offset 194
                      01405         .line   188; "gpio.c"   break;
004F   2???           01406         GOTO    _00301_DS_
                      01407 ;;; /home/sdcc-builder/build/sdcc-build/orig/sdcc/src/pic14/gen.c:2358:resultRemat *{*
                      01408 ;;; /home/sdcc-builder/build/sdcc-build/orig/sdcc/src/pic14/gen.c:2802:genLabel *{*
                      01409 ;; ***  genLabel  2805
                      01410 ;;; /home/sdcc-builder/build/sdcc-build/orig/sdcc/src/pic14/gen.c:2358:resultRemat *{*
                      01411 ;;; /home/sdcc-builder/build/sdcc-build/orig/sdcc/src/pic14/gen.c:5667:genGenericShift *{*
                      01412 ;; ***  genGenericShift  5670
                      01413 ;;      708 register type nRegs=1
                      01414 ;;      708 register type nRegs=2
                      01415 ;; ***  mov2w  1395  offset=1
gpasm-1.5.0 #1285 (Sep 12 2016) obj\Debug\gpi   8-8-2021  22:26:03          PAGE 28


LOC    OBJECT CODE    LINE  SOURCE TEXT
  VALUE

                      01416 ;; >>> /home/sdcc-builder/build/sdcc-build/orig/sdcc/src/pic14/gen.c:1398:mov2w
0050                  01417 _00296_DS_:
                      01418         .line   190; "gpio.c"   ret=  ReadRegisterPinValue(PORTB,pin) ;
0050   3000           01419         MOVLW   0x00
                      01420 ;; >>> /home/sdcc-builder/build/sdcc-build/orig/sdcc/src/pic14/gen.c:1407:movwf
                      01421 ;;      1126 rIdx = r0x1060 
0051   0??? 0???      01422         BANKSEL r0x1009
0053   00??           01423         MOVWF   r0x1009
                      01424 ;; ***  mov2w  1395  offset=0
                      01425 ;; >>> /home/sdcc-builder/build/sdcc-build/orig/sdcc/src/pic14/gen.c:1398:mov2w
0054   3001           01426         MOVLW   0x01
                      01427 ;; >>> /home/sdcc-builder/build/sdcc-build/orig/sdcc/src/pic14/gen.c:1407:movwf
                      01428 ;;      1126 rIdx = r0x105D 
0055   00??           01429         MOVWF   r0x1006
                      01430 ;; ***  addSign  1087
                      01431 ;;; /home/sdcc-builder/build/sdcc-build/orig/sdcc/src/pic14/genarith.c:1088:addSign *{*
                      01432 ;; ***  mov2w  1395  offset=0
                      01433 ;; >>> /home/sdcc-builder/build/sdcc-build/orig/sdcc/src/pic14/gen.c:1400:mov2w
                      01434 ;;      1126 rIdx = r0x105E 
0056   08??           01435         MOVF    r0x1007,W
                      01436 ;; >>> /home/sdcc-builder/build/sdcc-build/orig/sdcc/src/pic14/gen.c:5741:genGenericShift
0057   3C00           01437         SUBLW   0x00
                      01438 ;; >>> /home/sdcc-builder/build/sdcc-build/orig/sdcc/src/pic14/gen.c:5743:genGenericShift
0058   1903           01439         BTFSC   STATUS,2
                      01440 ;; >>> /home/sdcc-builder/build/sdcc-build/orig/sdcc/src/pic14/gen.c:5744:genGenericShift
                      01441 ;; ***  popGetLabel  key=21, label offset 194
0059   2???           01442         GOTO    _00315_DS_
                      01443 ;;; /home/sdcc-builder/build/sdcc-build/orig/sdcc/src/pic14/gen.c:5618:genMultiAsm *{*
                      01444 ;; ***  genMultiAsm  5619
                      01445 ;; >>> /home/sdcc-builder/build/sdcc-build/orig/sdcc/src/pic14/gen.c:5636:genMultiAsm
                      01446 ;;      1126 rIdx = r0x105D 
005A                  01447 _00314_DS_:
005A   0??? 0???      01448         BANKSEL r0x1006
005C   0D??           01449         RLF     r0x1006,F
                      01450 ;; >>> /home/sdcc-builder/build/sdcc-build/orig/sdcc/src/pic14/gen.c:5636:genMultiAsm
                      01451 ;;      1126 rIdx = r0x1060 
005D   0D??           01452         RLF     r0x1009,F
                      01453 ;; >>> /home/sdcc-builder/build/sdcc-build/orig/sdcc/src/pic14/gen.c:5750:genGenericShift
005E   3E01           01454         ADDLW   0x01
                      01455 ;; >>> /home/sdcc-builder/build/sdcc-build/orig/sdcc/src/pic14/gen.c:5751:genGenericShift
005F   1C03           01456         BTFSS   STATUS,0
                      01457 ;; >>> /home/sdcc-builder/build/sdcc-build/orig/sdcc/src/pic14/gen.c:5752:genGenericShift
                      01458 ;; ***  popGetLabel  key=20, label offset 194
0060   2???           01459         GOTO    _00314_DS_
                      01460 ;;; /home/sdcc-builder/build/sdcc-build/orig/sdcc/src/pic14/gen.c:2358:resultRemat *{*
                      01461 ;;; /home/sdcc-builder/build/sdcc-build/orig/sdcc/src/pic14/gen.c:7386:genCast *{*
                      01462 ;; ***  genCast  7387
                      01463 ;; ***  aopForSym 324
                      01464 ;;      336 sym->rname = _PORTB, size = 1
                      01465 ;;      708 register type nRegs=2
                      01466 ;;      line = 7395 result AOP_REG=r0x1061, size=2, left -=-, size=0, right AOP_DIR=_PORTB, size=1
                      01467 ;; >>> /home/sdcc-builder/build/sdcc-build/orig/sdcc/src/pic14/gen.c:7582:genCast
                      01468 ;;      1027
gpasm-1.5.0 #1285 (Sep 12 2016) obj\Debug\gpi   8-8-2021  22:26:03          PAGE 29


LOC    OBJECT CODE    LINE  SOURCE TEXT
  VALUE

                      01469 ;;      1045  _PORTB   offset=0
0061                  01470 _00315_DS_:
0061   0??? 0???      01471         BANKSEL _PORTB
0063   08??           01472         MOVF    _PORTB,W
                      01473 ;; >>> /home/sdcc-builder/build/sdcc-build/orig/sdcc/src/pic14/gen.c:7583:genCast
                      01474 ;;      1126 rIdx = r0x1061 
0064   0??? 0???      01475         BANKSEL r0x100A
0066   00??           01476         MOVWF   r0x100A
                      01477 ;; ***  addSign  1087
                      01478 ;;; /home/sdcc-builder/build/sdcc-build/orig/sdcc/src/pic14/genarith.c:1088:addSign *{*
                      01479 ;; >>> /home/sdcc-builder/build/sdcc-build/orig/sdcc/src/pic14/genarith.c:1107:addSign
                      01480 ;;      1126 rIdx = r0x1062 
0067   01??           01481         CLRF    r0x100B
                      01482 ;;; /home/sdcc-builder/build/sdcc-build/orig/sdcc/src/pic14/gen.c:2358:resultRemat *{*
                      01483 ;;; /home/sdcc-builder/build/sdcc-build/orig/sdcc/src/pic14/gen.c:4023:genAnd *{*
                      01484 ;; ***  genAnd  4024
                      01485 ;;      708 register type nRegs=2
                      01486 ;;      708 register type nRegs=2
                      01487 ;;      708 register type nRegs=2
                      01488 ;;      line = 4059 result AOP_REG=r0x105D, size=2, left AOP_REG=r0x105D, size=2, right AOP_REG=r0x1061,
                             size=2
                      01489 ;; >>> /home/sdcc-builder/build/sdcc-build/orig/sdcc/src/pic14/gen.c:4241:genAnd
                      01490 ;;      1126 rIdx = r0x1061 
0068   08??           01491         MOVF    r0x100A,W
                      01492 ;; >>> /home/sdcc-builder/build/sdcc-build/orig/sdcc/src/pic14/gen.c:4242:genAnd
                      01493 ;;      1126 rIdx = r0x105D 
0069   05??           01494         ANDWF   r0x1006,F
                      01495 ;; >>> /home/sdcc-builder/build/sdcc-build/orig/sdcc/src/pic14/gen.c:4241:genAnd
                      01496 ;;      1126 rIdx = r0x1062 
006A   3000           01497         MOVLW   0x00
                      01498 ;; >>> /home/sdcc-builder/build/sdcc-build/orig/sdcc/src/pic14/gen.c:4242:genAnd
                      01499 ;;      1126 rIdx = r0x1060 
006B   05??           01500         ANDWF   r0x1009,F
                      01501 ;;; /home/sdcc-builder/build/sdcc-build/orig/sdcc/src/pic14/gen.c:2358:resultRemat *{*
                      01502 ;;; /home/sdcc-builder/build/sdcc-build/orig/sdcc/src/pic14/gen.c:5667:genGenericShift *{*
                      01503 ;; ***  genGenericShift  5670
                      01504 ;;      708 register type nRegs=1
                      01505 ;;      708 register type nRegs=2
                      01506 ;;      708 register type nRegs=2
                      01507 ;; ***  mov2w  1395  offset=1
                      01508 ;; >>> /home/sdcc-builder/build/sdcc-build/orig/sdcc/src/pic14/gen.c:1400:mov2w
                      01509 ;;      1126 rIdx = r0x1060 
006C   08??           01510         MOVF    r0x1009,W
                      01511 ;; >>> /home/sdcc-builder/build/sdcc-build/orig/sdcc/src/pic14/gen.c:1407:movwf
                      01512 ;;      1126 rIdx = r0x1062 
006D   00??           01513         MOVWF   r0x100B
                      01514 ;; ***  mov2w  1395  offset=0
                      01515 ;; >>> /home/sdcc-builder/build/sdcc-build/orig/sdcc/src/pic14/gen.c:1400:mov2w
                      01516 ;;      1126 rIdx = r0x105D 
006E   08??           01517         MOVF    r0x1006,W
                      01518 ;; >>> /home/sdcc-builder/build/sdcc-build/orig/sdcc/src/pic14/gen.c:1407:movwf
                      01519 ;;      1126 rIdx = r0x1061 
006F   00??           01520         MOVWF   r0x100A
gpasm-1.5.0 #1285 (Sep 12 2016) obj\Debug\gpi   8-8-2021  22:26:03          PAGE 30


LOC    OBJECT CODE    LINE  SOURCE TEXT
  VALUE

                      01521 ;; ***  addSign  1087
                      01522 ;;; /home/sdcc-builder/build/sdcc-build/orig/sdcc/src/pic14/genarith.c:1088:addSign *{*
                      01523 ;; ***  mov2w  1395  offset=0
                      01524 ;; >>> /home/sdcc-builder/build/sdcc-build/orig/sdcc/src/pic14/gen.c:1400:mov2w
                      01525 ;;      1126 rIdx = r0x105E 
0070   08??           01526         MOVF    r0x1007,W
                      01527 ;; >>> /home/sdcc-builder/build/sdcc-build/orig/sdcc/src/pic14/gen.c:5741:genGenericShift
0071   3C00           01528         SUBLW   0x00
                      01529 ;; >>> /home/sdcc-builder/build/sdcc-build/orig/sdcc/src/pic14/gen.c:5743:genGenericShift
0072   1903           01530         BTFSC   STATUS,2
                      01531 ;; >>> /home/sdcc-builder/build/sdcc-build/orig/sdcc/src/pic14/gen.c:5744:genGenericShift
                      01532 ;; ***  popGetLabel  key=23, label offset 194
0073   2???           01533         GOTO    _00317_DS_
                      01534 ;;; /home/sdcc-builder/build/sdcc-build/orig/sdcc/src/pic14/gen.c:5649:loadSignToC *{*
                      01535 ;; >>> /home/sdcc-builder/build/sdcc-build/orig/sdcc/src/pic14/gen.c:5652:loadSignToC
0074                  01536 _00316_DS_:
0074   1003           01537         BCF     STATUS,0
                      01538 ;; >>> /home/sdcc-builder/build/sdcc-build/orig/sdcc/src/pic14/gen.c:5653:loadSignToC
0075   0??? 0???      01539         BANKSEL r0x100B
0077   1B??           01540         BTFSC   r0x100B,7
                      01541 ;; >>> /home/sdcc-builder/build/sdcc-build/orig/sdcc/src/pic14/gen.c:5654:loadSignToC
0078   1403           01542         BSF     STATUS,0
                      01543 ;;; /home/sdcc-builder/build/sdcc-build/orig/sdcc/src/pic14/gen.c:5618:genMultiAsm *{*
                      01544 ;; ***  genMultiAsm  5619
                      01545 ;; >>> /home/sdcc-builder/build/sdcc-build/orig/sdcc/src/pic14/gen.c:5636:genMultiAsm
                      01546 ;;      1126 rIdx = r0x1062 
0079   0C??           01547         RRF     r0x100B,F
                      01548 ;; >>> /home/sdcc-builder/build/sdcc-build/orig/sdcc/src/pic14/gen.c:5636:genMultiAsm
                      01549 ;;      1126 rIdx = r0x1061 
007A   0C??           01550         RRF     r0x100A,F
                      01551 ;; >>> /home/sdcc-builder/build/sdcc-build/orig/sdcc/src/pic14/gen.c:5750:genGenericShift
007B   3E01           01552         ADDLW   0x01
                      01553 ;; >>> /home/sdcc-builder/build/sdcc-build/orig/sdcc/src/pic14/gen.c:5751:genGenericShift
007C   1C03           01554         BTFSS   STATUS,0
                      01555 ;; >>> /home/sdcc-builder/build/sdcc-build/orig/sdcc/src/pic14/gen.c:5752:genGenericShift
                      01556 ;; ***  popGetLabel  key=22, label offset 194
007D   2???           01557         GOTO    _00316_DS_
                      01558 ;;; /home/sdcc-builder/build/sdcc-build/orig/sdcc/src/pic14/gen.c:2358:resultRemat *{*
                      01559 ;;; /home/sdcc-builder/build/sdcc-build/orig/sdcc/src/pic14/gen.c:7386:genCast *{*
                      01560 ;; ***  genCast  7387
                      01561 ;;      708 register type nRegs=2
                      01562 ;;      708 register type nRegs=1
                      01563 ;;      line = 7395 result AOP_REG=r0x105F, size=1, left -=-, size=0, right AOP_REG=r0x1061, size=2
                      01564 ;; ***  genCast  7537
                      01565 ;; >>> /home/sdcc-builder/build/sdcc-build/orig/sdcc/src/pic14/gen.c:7561:genCast
                      01566 ;;      1126 rIdx = r0x1061 
007E                  01567 _00317_DS_:
007E   0??? 0???      01568         BANKSEL r0x100A
0080   08??           01569         MOVF    r0x100A,W
                      01570 ;; >>> /home/sdcc-builder/build/sdcc-build/orig/sdcc/src/pic14/gen.c:7562:genCast
                      01571 ;;      1126 rIdx = r0x105F 
0081   00??           01572         MOVWF   r0x1008
                      01573 ;;; /home/sdcc-builder/build/sdcc-build/orig/sdcc/src/pic14/gen.c:2358:resultRemat *{*
gpasm-1.5.0 #1285 (Sep 12 2016) obj\Debug\gpi   8-8-2021  22:26:03          PAGE 31


LOC    OBJECT CODE    LINE  SOURCE TEXT
  VALUE

                      01574 ;;; /home/sdcc-builder/build/sdcc-build/orig/sdcc/src/pic14/gen.c:2820:genGoto *{*
                      01575 ;; >>> /home/sdcc-builder/build/sdcc-build/orig/sdcc/src/pic14/gen.c:2822:genGoto
                      01576 ;; ***  popGetLabel  key=7, label offset 194
                      01577         .line   191; "gpio.c"   break;
0082   2???           01578         GOTO    _00301_DS_
                      01579 ;;; /home/sdcc-builder/build/sdcc-build/orig/sdcc/src/pic14/gen.c:2358:resultRemat *{*
                      01580 ;;; /home/sdcc-builder/build/sdcc-build/orig/sdcc/src/pic14/gen.c:2802:genLabel *{*
                      01581 ;; ***  genLabel  2805
                      01582 ;;; /home/sdcc-builder/build/sdcc-build/orig/sdcc/src/pic14/gen.c:2358:resultRemat *{*
                      01583 ;;; /home/sdcc-builder/build/sdcc-build/orig/sdcc/src/pic14/gen.c:5667:genGenericShift *{*
                      01584 ;; ***  genGenericShift  5670
                      01585 ;;      708 register type nRegs=1
                      01586 ;;      708 register type nRegs=2
                      01587 ;; ***  mov2w  1395  offset=1
                      01588 ;; >>> /home/sdcc-builder/build/sdcc-build/orig/sdcc/src/pic14/gen.c:1398:mov2w
0083                  01589 _00297_DS_:
                      01590         .line   193; "gpio.c"   ret=  ReadRegisterPinValue(PORTC,pin) ;
0083   3000           01591         MOVLW   0x00
                      01592 ;; >>> /home/sdcc-builder/build/sdcc-build/orig/sdcc/src/pic14/gen.c:1407:movwf
                      01593 ;;      1126 rIdx = r0x1060 
0084   0??? 0???      01594         BANKSEL r0x1009
0086   00??           01595         MOVWF   r0x1009
                      01596 ;; ***  mov2w  1395  offset=0
                      01597 ;; >>> /home/sdcc-builder/build/sdcc-build/orig/sdcc/src/pic14/gen.c:1398:mov2w
0087   3001           01598         MOVLW   0x01
                      01599 ;; >>> /home/sdcc-builder/build/sdcc-build/orig/sdcc/src/pic14/gen.c:1407:movwf
                      01600 ;;      1126 rIdx = r0x105D 
0088   00??           01601         MOVWF   r0x1006
                      01602 ;; ***  addSign  1087
                      01603 ;;; /home/sdcc-builder/build/sdcc-build/orig/sdcc/src/pic14/genarith.c:1088:addSign *{*
                      01604 ;; ***  mov2w  1395  offset=0
                      01605 ;; >>> /home/sdcc-builder/build/sdcc-build/orig/sdcc/src/pic14/gen.c:1400:mov2w
                      01606 ;;      1126 rIdx = r0x105E 
0089   08??           01607         MOVF    r0x1007,W
                      01608 ;; >>> /home/sdcc-builder/build/sdcc-build/orig/sdcc/src/pic14/gen.c:5741:genGenericShift
008A   3C00           01609         SUBLW   0x00
                      01610 ;; >>> /home/sdcc-builder/build/sdcc-build/orig/sdcc/src/pic14/gen.c:5743:genGenericShift
008B   1903           01611         BTFSC   STATUS,2
                      01612 ;; >>> /home/sdcc-builder/build/sdcc-build/orig/sdcc/src/pic14/gen.c:5744:genGenericShift
                      01613 ;; ***  popGetLabel  key=25, label offset 194
008C   2???           01614         GOTO    _00319_DS_
                      01615 ;;; /home/sdcc-builder/build/sdcc-build/orig/sdcc/src/pic14/gen.c:5618:genMultiAsm *{*
                      01616 ;; ***  genMultiAsm  5619
                      01617 ;; >>> /home/sdcc-builder/build/sdcc-build/orig/sdcc/src/pic14/gen.c:5636:genMultiAsm
                      01618 ;;      1126 rIdx = r0x105D 
008D                  01619 _00318_DS_:
008D   0??? 0???      01620         BANKSEL r0x1006
008F   0D??           01621         RLF     r0x1006,F
                      01622 ;; >>> /home/sdcc-builder/build/sdcc-build/orig/sdcc/src/pic14/gen.c:5636:genMultiAsm
                      01623 ;;      1126 rIdx = r0x1060 
0090   0D??           01624         RLF     r0x1009,F
                      01625 ;; >>> /home/sdcc-builder/build/sdcc-build/orig/sdcc/src/pic14/gen.c:5750:genGenericShift
0091   3E01           01626         ADDLW   0x01
gpasm-1.5.0 #1285 (Sep 12 2016) obj\Debug\gpi   8-8-2021  22:26:03          PAGE 32


LOC    OBJECT CODE    LINE  SOURCE TEXT
  VALUE

                      01627 ;; >>> /home/sdcc-builder/build/sdcc-build/orig/sdcc/src/pic14/gen.c:5751:genGenericShift
0092   1C03           01628         BTFSS   STATUS,0
                      01629 ;; >>> /home/sdcc-builder/build/sdcc-build/orig/sdcc/src/pic14/gen.c:5752:genGenericShift
                      01630 ;; ***  popGetLabel  key=24, label offset 194
0093   2???           01631         GOTO    _00318_DS_
                      01632 ;;; /home/sdcc-builder/build/sdcc-build/orig/sdcc/src/pic14/gen.c:2358:resultRemat *{*
                      01633 ;;; /home/sdcc-builder/build/sdcc-build/orig/sdcc/src/pic14/gen.c:7386:genCast *{*
                      01634 ;; ***  genCast  7387
                      01635 ;; ***  aopForSym 324
                      01636 ;;      336 sym->rname = _PORTC, size = 1
                      01637 ;;      708 register type nRegs=2
                      01638 ;;      line = 7395 result AOP_REG=r0x1061, size=2, left -=-, size=0, right AOP_DIR=_PORTC, size=1
                      01639 ;; >>> /home/sdcc-builder/build/sdcc-build/orig/sdcc/src/pic14/gen.c:7582:genCast
                      01640 ;;      1027
                      01641 ;;      1045  _PORTC   offset=0
0094                  01642 _00319_DS_:
0094   0??? 0???      01643         BANKSEL _PORTC
0096   08??           01644         MOVF    _PORTC,W
                      01645 ;; >>> /home/sdcc-builder/build/sdcc-build/orig/sdcc/src/pic14/gen.c:7583:genCast
                      01646 ;;      1126 rIdx = r0x1061 
0097   0??? 0???      01647         BANKSEL r0x100A
0099   00??           01648         MOVWF   r0x100A
                      01649 ;; ***  addSign  1087
                      01650 ;;; /home/sdcc-builder/build/sdcc-build/orig/sdcc/src/pic14/genarith.c:1088:addSign *{*
                      01651 ;; >>> /home/sdcc-builder/build/sdcc-build/orig/sdcc/src/pic14/genarith.c:1107:addSign
                      01652 ;;      1126 rIdx = r0x1062 
009A   01??           01653         CLRF    r0x100B
                      01654 ;;; /home/sdcc-builder/build/sdcc-build/orig/sdcc/src/pic14/gen.c:2358:resultRemat *{*
                      01655 ;;; /home/sdcc-builder/build/sdcc-build/orig/sdcc/src/pic14/gen.c:4023:genAnd *{*
                      01656 ;; ***  genAnd  4024
                      01657 ;;      708 register type nRegs=2
                      01658 ;;      708 register type nRegs=2
                      01659 ;;      708 register type nRegs=2
                      01660 ;;      line = 4059 result AOP_REG=r0x105D, size=2, left AOP_REG=r0x105D, size=2, right AOP_REG=r0x1061,
                             size=2
                      01661 ;; >>> /home/sdcc-builder/build/sdcc-build/orig/sdcc/src/pic14/gen.c:4241:genAnd
                      01662 ;;      1126 rIdx = r0x1061 
009B   08??           01663         MOVF    r0x100A,W
                      01664 ;; >>> /home/sdcc-builder/build/sdcc-build/orig/sdcc/src/pic14/gen.c:4242:genAnd
                      01665 ;;      1126 rIdx = r0x105D 
009C   05??           01666         ANDWF   r0x1006,F
                      01667 ;; >>> /home/sdcc-builder/build/sdcc-build/orig/sdcc/src/pic14/gen.c:4241:genAnd
                      01668 ;;      1126 rIdx = r0x1062 
009D   3000           01669         MOVLW   0x00
                      01670 ;; >>> /home/sdcc-builder/build/sdcc-build/orig/sdcc/src/pic14/gen.c:4242:genAnd
                      01671 ;;      1126 rIdx = r0x1060 
009E   05??           01672         ANDWF   r0x1009,F
                      01673 ;;; /home/sdcc-builder/build/sdcc-build/orig/sdcc/src/pic14/gen.c:2358:resultRemat *{*
                      01674 ;;; /home/sdcc-builder/build/sdcc-build/orig/sdcc/src/pic14/gen.c:5667:genGenericShift *{*
                      01675 ;; ***  genGenericShift  5670
                      01676 ;;      708 register type nRegs=1
                      01677 ;;      708 register type nRegs=2
                      01678 ;;      708 register type nRegs=2
gpasm-1.5.0 #1285 (Sep 12 2016) obj\Debug\gpi   8-8-2021  22:26:03          PAGE 33


LOC    OBJECT CODE    LINE  SOURCE TEXT
  VALUE

                      01679 ;; ***  mov2w  1395  offset=1
                      01680 ;; >>> /home/sdcc-builder/build/sdcc-build/orig/sdcc/src/pic14/gen.c:1400:mov2w
                      01681 ;;      1126 rIdx = r0x1060 
009F   08??           01682         MOVF    r0x1009,W
                      01683 ;; >>> /home/sdcc-builder/build/sdcc-build/orig/sdcc/src/pic14/gen.c:1407:movwf
                      01684 ;;      1126 rIdx = r0x1062 
00A0   00??           01685         MOVWF   r0x100B
                      01686 ;; ***  mov2w  1395  offset=0
                      01687 ;; >>> /home/sdcc-builder/build/sdcc-build/orig/sdcc/src/pic14/gen.c:1400:mov2w
                      01688 ;;      1126 rIdx = r0x105D 
00A1   08??           01689         MOVF    r0x1006,W
                      01690 ;; >>> /home/sdcc-builder/build/sdcc-build/orig/sdcc/src/pic14/gen.c:1407:movwf
                      01691 ;;      1126 rIdx = r0x1061 
00A2   00??           01692         MOVWF   r0x100A
                      01693 ;; ***  addSign  1087
                      01694 ;;; /home/sdcc-builder/build/sdcc-build/orig/sdcc/src/pic14/genarith.c:1088:addSign *{*
                      01695 ;; ***  mov2w  1395  offset=0
                      01696 ;; >>> /home/sdcc-builder/build/sdcc-build/orig/sdcc/src/pic14/gen.c:1400:mov2w
                      01697 ;;      1126 rIdx = r0x105E 
00A3   08??           01698         MOVF    r0x1007,W
                      01699 ;; >>> /home/sdcc-builder/build/sdcc-build/orig/sdcc/src/pic14/gen.c:5741:genGenericShift
00A4   3C00           01700         SUBLW   0x00
                      01701 ;; >>> /home/sdcc-builder/build/sdcc-build/orig/sdcc/src/pic14/gen.c:5743:genGenericShift
00A5   1903           01702         BTFSC   STATUS,2
                      01703 ;; >>> /home/sdcc-builder/build/sdcc-build/orig/sdcc/src/pic14/gen.c:5744:genGenericShift
                      01704 ;; ***  popGetLabel  key=27, label offset 194
00A6   2???           01705         GOTO    _00321_DS_
                      01706 ;;; /home/sdcc-builder/build/sdcc-build/orig/sdcc/src/pic14/gen.c:5649:loadSignToC *{*
                      01707 ;; >>> /home/sdcc-builder/build/sdcc-build/orig/sdcc/src/pic14/gen.c:5652:loadSignToC
00A7                  01708 _00320_DS_:
00A7   1003           01709         BCF     STATUS,0
                      01710 ;; >>> /home/sdcc-builder/build/sdcc-build/orig/sdcc/src/pic14/gen.c:5653:loadSignToC
00A8   0??? 0???      01711         BANKSEL r0x100B
00AA   1B??           01712         BTFSC   r0x100B,7
                      01713 ;; >>> /home/sdcc-builder/build/sdcc-build/orig/sdcc/src/pic14/gen.c:5654:loadSignToC
00AB   1403           01714         BSF     STATUS,0
                      01715 ;;; /home/sdcc-builder/build/sdcc-build/orig/sdcc/src/pic14/gen.c:5618:genMultiAsm *{*
                      01716 ;; ***  genMultiAsm  5619
                      01717 ;; >>> /home/sdcc-builder/build/sdcc-build/orig/sdcc/src/pic14/gen.c:5636:genMultiAsm
                      01718 ;;      1126 rIdx = r0x1062 
00AC   0C??           01719         RRF     r0x100B,F
                      01720 ;; >>> /home/sdcc-builder/build/sdcc-build/orig/sdcc/src/pic14/gen.c:5636:genMultiAsm
                      01721 ;;      1126 rIdx = r0x1061 
00AD   0C??           01722         RRF     r0x100A,F
                      01723 ;; >>> /home/sdcc-builder/build/sdcc-build/orig/sdcc/src/pic14/gen.c:5750:genGenericShift
00AE   3E01           01724         ADDLW   0x01
                      01725 ;; >>> /home/sdcc-builder/build/sdcc-build/orig/sdcc/src/pic14/gen.c:5751:genGenericShift
00AF   1C03           01726         BTFSS   STATUS,0
                      01727 ;; >>> /home/sdcc-builder/build/sdcc-build/orig/sdcc/src/pic14/gen.c:5752:genGenericShift
                      01728 ;; ***  popGetLabel  key=26, label offset 194
00B0   2???           01729         GOTO    _00320_DS_
                      01730 ;;; /home/sdcc-builder/build/sdcc-build/orig/sdcc/src/pic14/gen.c:2358:resultRemat *{*
                      01731 ;;; /home/sdcc-builder/build/sdcc-build/orig/sdcc/src/pic14/gen.c:7386:genCast *{*
gpasm-1.5.0 #1285 (Sep 12 2016) obj\Debug\gpi   8-8-2021  22:26:03          PAGE 34


LOC    OBJECT CODE    LINE  SOURCE TEXT
  VALUE

                      01732 ;; ***  genCast  7387
                      01733 ;;      708 register type nRegs=2
                      01734 ;;      708 register type nRegs=1
                      01735 ;;      line = 7395 result AOP_REG=r0x105F, size=1, left -=-, size=0, right AOP_REG=r0x1061, size=2
                      01736 ;; ***  genCast  7537
                      01737 ;; >>> /home/sdcc-builder/build/sdcc-build/orig/sdcc/src/pic14/gen.c:7561:genCast
                      01738 ;;      1126 rIdx = r0x1061 
00B1                  01739 _00321_DS_:
00B1   0??? 0???      01740         BANKSEL r0x100A
00B3   08??           01741         MOVF    r0x100A,W
                      01742 ;; >>> /home/sdcc-builder/build/sdcc-build/orig/sdcc/src/pic14/gen.c:7562:genCast
                      01743 ;;      1126 rIdx = r0x105F 
00B4   00??           01744         MOVWF   r0x1008
                      01745 ;;; /home/sdcc-builder/build/sdcc-build/orig/sdcc/src/pic14/gen.c:2358:resultRemat *{*
                      01746 ;;; /home/sdcc-builder/build/sdcc-build/orig/sdcc/src/pic14/gen.c:2820:genGoto *{*
                      01747 ;; >>> /home/sdcc-builder/build/sdcc-build/orig/sdcc/src/pic14/gen.c:2822:genGoto
                      01748 ;; ***  popGetLabel  key=7, label offset 194
                      01749         .line   194; "gpio.c"   break;
00B5   2???           01750         GOTO    _00301_DS_
                      01751 ;;; /home/sdcc-builder/build/sdcc-build/orig/sdcc/src/pic14/gen.c:2358:resultRemat *{*
                      01752 ;;; /home/sdcc-builder/build/sdcc-build/orig/sdcc/src/pic14/gen.c:2802:genLabel *{*
                      01753 ;; ***  genLabel  2805
                      01754 ;;; /home/sdcc-builder/build/sdcc-build/orig/sdcc/src/pic14/gen.c:2358:resultRemat *{*
                      01755 ;;; /home/sdcc-builder/build/sdcc-build/orig/sdcc/src/pic14/gen.c:5667:genGenericShift *{*
                      01756 ;; ***  genGenericShift  5670
                      01757 ;;      708 register type nRegs=1
                      01758 ;;      708 register type nRegs=2
                      01759 ;; ***  mov2w  1395  offset=1
                      01760 ;; >>> /home/sdcc-builder/build/sdcc-build/orig/sdcc/src/pic14/gen.c:1398:mov2w
00B6                  01761 _00298_DS_:
                      01762         .line   196; "gpio.c"   ret=  ReadRegisterPinValue(PORTD,pin) ;
00B6   3000           01763         MOVLW   0x00
                      01764 ;; >>> /home/sdcc-builder/build/sdcc-build/orig/sdcc/src/pic14/gen.c:1407:movwf
                      01765 ;;      1126 rIdx = r0x1060 
00B7   0??? 0???      01766         BANKSEL r0x1009
00B9   00??           01767         MOVWF   r0x1009
                      01768 ;; ***  mov2w  1395  offset=0
                      01769 ;; >>> /home/sdcc-builder/build/sdcc-build/orig/sdcc/src/pic14/gen.c:1398:mov2w
00BA   3001           01770         MOVLW   0x01
                      01771 ;; >>> /home/sdcc-builder/build/sdcc-build/orig/sdcc/src/pic14/gen.c:1407:movwf
                      01772 ;;      1126 rIdx = r0x105D 
00BB   00??           01773         MOVWF   r0x1006
                      01774 ;; ***  addSign  1087
                      01775 ;;; /home/sdcc-builder/build/sdcc-build/orig/sdcc/src/pic14/genarith.c:1088:addSign *{*
                      01776 ;; ***  mov2w  1395  offset=0
                      01777 ;; >>> /home/sdcc-builder/build/sdcc-build/orig/sdcc/src/pic14/gen.c:1400:mov2w
                      01778 ;;      1126 rIdx = r0x105E 
00BC   08??           01779         MOVF    r0x1007,W
                      01780 ;; >>> /home/sdcc-builder/build/sdcc-build/orig/sdcc/src/pic14/gen.c:5741:genGenericShift
00BD   3C00           01781         SUBLW   0x00
                      01782 ;; >>> /home/sdcc-builder/build/sdcc-build/orig/sdcc/src/pic14/gen.c:5743:genGenericShift
00BE   1903           01783         BTFSC   STATUS,2
                      01784 ;; >>> /home/sdcc-builder/build/sdcc-build/orig/sdcc/src/pic14/gen.c:5744:genGenericShift
gpasm-1.5.0 #1285 (Sep 12 2016) obj\Debug\gpi   8-8-2021  22:26:03          PAGE 35


LOC    OBJECT CODE    LINE  SOURCE TEXT
  VALUE

                      01785 ;; ***  popGetLabel  key=29, label offset 194
00BF   2???           01786         GOTO    _00323_DS_
                      01787 ;;; /home/sdcc-builder/build/sdcc-build/orig/sdcc/src/pic14/gen.c:5618:genMultiAsm *{*
                      01788 ;; ***  genMultiAsm  5619
                      01789 ;; >>> /home/sdcc-builder/build/sdcc-build/orig/sdcc/src/pic14/gen.c:5636:genMultiAsm
                      01790 ;;      1126 rIdx = r0x105D 
00C0                  01791 _00322_DS_:
00C0   0??? 0???      01792         BANKSEL r0x1006
00C2   0D??           01793         RLF     r0x1006,F
                      01794 ;; >>> /home/sdcc-builder/build/sdcc-build/orig/sdcc/src/pic14/gen.c:5636:genMultiAsm
                      01795 ;;      1126 rIdx = r0x1060 
00C3   0D??           01796         RLF     r0x1009,F
                      01797 ;; >>> /home/sdcc-builder/build/sdcc-build/orig/sdcc/src/pic14/gen.c:5750:genGenericShift
00C4   3E01           01798         ADDLW   0x01
                      01799 ;; >>> /home/sdcc-builder/build/sdcc-build/orig/sdcc/src/pic14/gen.c:5751:genGenericShift
00C5   1C03           01800         BTFSS   STATUS,0
                      01801 ;; >>> /home/sdcc-builder/build/sdcc-build/orig/sdcc/src/pic14/gen.c:5752:genGenericShift
                      01802 ;; ***  popGetLabel  key=28, label offset 194
00C6   2???           01803         GOTO    _00322_DS_
                      01804 ;;; /home/sdcc-builder/build/sdcc-build/orig/sdcc/src/pic14/gen.c:2358:resultRemat *{*
                      01805 ;;; /home/sdcc-builder/build/sdcc-build/orig/sdcc/src/pic14/gen.c:7386:genCast *{*
                      01806 ;; ***  genCast  7387
                      01807 ;; ***  aopForSym 324
                      01808 ;;      336 sym->rname = _PORTD, size = 1
                      01809 ;;      708 register type nRegs=2
                      01810 ;;      line = 7395 result AOP_REG=r0x1061, size=2, left -=-, size=0, right AOP_DIR=_PORTD, size=1
                      01811 ;; >>> /home/sdcc-builder/build/sdcc-build/orig/sdcc/src/pic14/gen.c:7582:genCast
                      01812 ;;      1027
                      01813 ;;      1045  _PORTD   offset=0
00C7                  01814 _00323_DS_:
00C7   0??? 0???      01815         BANKSEL _PORTD
00C9   08??           01816         MOVF    _PORTD,W
                      01817 ;; >>> /home/sdcc-builder/build/sdcc-build/orig/sdcc/src/pic14/gen.c:7583:genCast
                      01818 ;;      1126 rIdx = r0x1061 
00CA   0??? 0???      01819         BANKSEL r0x100A
00CC   00??           01820         MOVWF   r0x100A
                      01821 ;; ***  addSign  1087
                      01822 ;;; /home/sdcc-builder/build/sdcc-build/orig/sdcc/src/pic14/genarith.c:1088:addSign *{*
                      01823 ;; >>> /home/sdcc-builder/build/sdcc-build/orig/sdcc/src/pic14/genarith.c:1107:addSign
                      01824 ;;      1126 rIdx = r0x1062 
00CD   01??           01825         CLRF    r0x100B
                      01826 ;;; /home/sdcc-builder/build/sdcc-build/orig/sdcc/src/pic14/gen.c:2358:resultRemat *{*
                      01827 ;;; /home/sdcc-builder/build/sdcc-build/orig/sdcc/src/pic14/gen.c:4023:genAnd *{*
                      01828 ;; ***  genAnd  4024
                      01829 ;;      708 register type nRegs=2
                      01830 ;;      708 register type nRegs=2
                      01831 ;;      708 register type nRegs=2
                      01832 ;;      line = 4059 result AOP_REG=r0x105D, size=2, left AOP_REG=r0x105D, size=2, right AOP_REG=r0x1061,
                             size=2
                      01833 ;; >>> /home/sdcc-builder/build/sdcc-build/orig/sdcc/src/pic14/gen.c:4241:genAnd
                      01834 ;;      1126 rIdx = r0x1061 
00CE   08??           01835         MOVF    r0x100A,W
                      01836 ;; >>> /home/sdcc-builder/build/sdcc-build/orig/sdcc/src/pic14/gen.c:4242:genAnd
gpasm-1.5.0 #1285 (Sep 12 2016) obj\Debug\gpi   8-8-2021  22:26:03          PAGE 36


LOC    OBJECT CODE    LINE  SOURCE TEXT
  VALUE

                      01837 ;;      1126 rIdx = r0x105D 
00CF   05??           01838         ANDWF   r0x1006,F
                      01839 ;; >>> /home/sdcc-builder/build/sdcc-build/orig/sdcc/src/pic14/gen.c:4241:genAnd
                      01840 ;;      1126 rIdx = r0x1062 
00D0   3000           01841         MOVLW   0x00
                      01842 ;; >>> /home/sdcc-builder/build/sdcc-build/orig/sdcc/src/pic14/gen.c:4242:genAnd
                      01843 ;;      1126 rIdx = r0x1060 
00D1   05??           01844         ANDWF   r0x1009,F
                      01845 ;;; /home/sdcc-builder/build/sdcc-build/orig/sdcc/src/pic14/gen.c:2358:resultRemat *{*
                      01846 ;;; /home/sdcc-builder/build/sdcc-build/orig/sdcc/src/pic14/gen.c:5667:genGenericShift *{*
                      01847 ;; ***  genGenericShift  5670
                      01848 ;;      708 register type nRegs=1
                      01849 ;;      708 register type nRegs=2
                      01850 ;;      708 register type nRegs=2
                      01851 ;; ***  mov2w  1395  offset=1
                      01852 ;; >>> /home/sdcc-builder/build/sdcc-build/orig/sdcc/src/pic14/gen.c:1400:mov2w
                      01853 ;;      1126 rIdx = r0x1060 
00D2   08??           01854         MOVF    r0x1009,W
                      01855 ;; >>> /home/sdcc-builder/build/sdcc-build/orig/sdcc/src/pic14/gen.c:1407:movwf
                      01856 ;;      1126 rIdx = r0x1062 
00D3   00??           01857         MOVWF   r0x100B
                      01858 ;; ***  mov2w  1395  offset=0
                      01859 ;; >>> /home/sdcc-builder/build/sdcc-build/orig/sdcc/src/pic14/gen.c:1400:mov2w
                      01860 ;;      1126 rIdx = r0x105D 
00D4   08??           01861         MOVF    r0x1006,W
                      01862 ;; >>> /home/sdcc-builder/build/sdcc-build/orig/sdcc/src/pic14/gen.c:1407:movwf
                      01863 ;;      1126 rIdx = r0x1061 
00D5   00??           01864         MOVWF   r0x100A
                      01865 ;; ***  addSign  1087
                      01866 ;;; /home/sdcc-builder/build/sdcc-build/orig/sdcc/src/pic14/genarith.c:1088:addSign *{*
                      01867 ;; ***  mov2w  1395  offset=0
                      01868 ;; >>> /home/sdcc-builder/build/sdcc-build/orig/sdcc/src/pic14/gen.c:1400:mov2w
                      01869 ;;      1126 rIdx = r0x105E 
00D6   08??           01870         MOVF    r0x1007,W
                      01871 ;; >>> /home/sdcc-builder/build/sdcc-build/orig/sdcc/src/pic14/gen.c:5741:genGenericShift
00D7   3C00           01872         SUBLW   0x00
                      01873 ;; >>> /home/sdcc-builder/build/sdcc-build/orig/sdcc/src/pic14/gen.c:5743:genGenericShift
00D8   1903           01874         BTFSC   STATUS,2
                      01875 ;; >>> /home/sdcc-builder/build/sdcc-build/orig/sdcc/src/pic14/gen.c:5744:genGenericShift
                      01876 ;; ***  popGetLabel  key=31, label offset 194
00D9   2???           01877         GOTO    _00325_DS_
                      01878 ;;; /home/sdcc-builder/build/sdcc-build/orig/sdcc/src/pic14/gen.c:5649:loadSignToC *{*
                      01879 ;; >>> /home/sdcc-builder/build/sdcc-build/orig/sdcc/src/pic14/gen.c:5652:loadSignToC
00DA                  01880 _00324_DS_:
00DA   1003           01881         BCF     STATUS,0
                      01882 ;; >>> /home/sdcc-builder/build/sdcc-build/orig/sdcc/src/pic14/gen.c:5653:loadSignToC
00DB   0??? 0???      01883         BANKSEL r0x100B
00DD   1B??           01884         BTFSC   r0x100B,7
                      01885 ;; >>> /home/sdcc-builder/build/sdcc-build/orig/sdcc/src/pic14/gen.c:5654:loadSignToC
00DE   1403           01886         BSF     STATUS,0
                      01887 ;;; /home/sdcc-builder/build/sdcc-build/orig/sdcc/src/pic14/gen.c:5618:genMultiAsm *{*
                      01888 ;; ***  genMultiAsm  5619
                      01889 ;; >>> /home/sdcc-builder/build/sdcc-build/orig/sdcc/src/pic14/gen.c:5636:genMultiAsm
gpasm-1.5.0 #1285 (Sep 12 2016) obj\Debug\gpi   8-8-2021  22:26:03          PAGE 37


LOC    OBJECT CODE    LINE  SOURCE TEXT
  VALUE

                      01890 ;;      1126 rIdx = r0x1062 
00DF   0C??           01891         RRF     r0x100B,F
                      01892 ;; >>> /home/sdcc-builder/build/sdcc-build/orig/sdcc/src/pic14/gen.c:5636:genMultiAsm
                      01893 ;;      1126 rIdx = r0x1061 
00E0   0C??           01894         RRF     r0x100A,F
                      01895 ;; >>> /home/sdcc-builder/build/sdcc-build/orig/sdcc/src/pic14/gen.c:5750:genGenericShift
00E1   3E01           01896         ADDLW   0x01
                      01897 ;; >>> /home/sdcc-builder/build/sdcc-build/orig/sdcc/src/pic14/gen.c:5751:genGenericShift
00E2   1C03           01898         BTFSS   STATUS,0
                      01899 ;; >>> /home/sdcc-builder/build/sdcc-build/orig/sdcc/src/pic14/gen.c:5752:genGenericShift
                      01900 ;; ***  popGetLabel  key=30, label offset 194
00E3   2???           01901         GOTO    _00324_DS_
                      01902 ;;; /home/sdcc-builder/build/sdcc-build/orig/sdcc/src/pic14/gen.c:2358:resultRemat *{*
                      01903 ;;; /home/sdcc-builder/build/sdcc-build/orig/sdcc/src/pic14/gen.c:7386:genCast *{*
                      01904 ;; ***  genCast  7387
                      01905 ;;      708 register type nRegs=2
                      01906 ;;      708 register type nRegs=1
                      01907 ;;      line = 7395 result AOP_REG=r0x105F, size=1, left -=-, size=0, right AOP_REG=r0x1061, size=2
                      01908 ;; ***  genCast  7537
                      01909 ;; >>> /home/sdcc-builder/build/sdcc-build/orig/sdcc/src/pic14/gen.c:7561:genCast
                      01910 ;;      1126 rIdx = r0x1061 
00E4                  01911 _00325_DS_:
00E4   0??? 0???      01912         BANKSEL r0x100A
00E6   08??           01913         MOVF    r0x100A,W
                      01914 ;; >>> /home/sdcc-builder/build/sdcc-build/orig/sdcc/src/pic14/gen.c:7562:genCast
                      01915 ;;      1126 rIdx = r0x105F 
00E7   00??           01916         MOVWF   r0x1008
                      01917 ;;; /home/sdcc-builder/build/sdcc-build/orig/sdcc/src/pic14/gen.c:2358:resultRemat *{*
                      01918 ;;; /home/sdcc-builder/build/sdcc-build/orig/sdcc/src/pic14/gen.c:2820:genGoto *{*
                      01919 ;; >>> /home/sdcc-builder/build/sdcc-build/orig/sdcc/src/pic14/gen.c:2822:genGoto
                      01920 ;; ***  popGetLabel  key=7, label offset 194
                      01921         .line   197; "gpio.c"   break;
00E8   2???           01922         GOTO    _00301_DS_
                      01923 ;;; /home/sdcc-builder/build/sdcc-build/orig/sdcc/src/pic14/gen.c:2358:resultRemat *{*
                      01924 ;;; /home/sdcc-builder/build/sdcc-build/orig/sdcc/src/pic14/gen.c:2802:genLabel *{*
                      01925 ;; ***  genLabel  2805
                      01926 ;;; /home/sdcc-builder/build/sdcc-build/orig/sdcc/src/pic14/gen.c:2358:resultRemat *{*
                      01927 ;;; /home/sdcc-builder/build/sdcc-build/orig/sdcc/src/pic14/gen.c:5667:genGenericShift *{*
                      01928 ;; ***  genGenericShift  5670
                      01929 ;;      708 register type nRegs=1
                      01930 ;;      708 register type nRegs=2
                      01931 ;; ***  mov2w  1395  offset=1
                      01932 ;; >>> /home/sdcc-builder/build/sdcc-build/orig/sdcc/src/pic14/gen.c:1398:mov2w
00E9                  01933 _00299_DS_:
                      01934         .line   199; "gpio.c"   ret=  ReadRegisterPinValue(PORTE,pin) ;
00E9   3000           01935         MOVLW   0x00
                      01936 ;; >>> /home/sdcc-builder/build/sdcc-build/orig/sdcc/src/pic14/gen.c:1407:movwf
                      01937 ;;      1126 rIdx = r0x1060 
00EA   0??? 0???      01938         BANKSEL r0x1009
00EC   00??           01939         MOVWF   r0x1009
                      01940 ;; ***  mov2w  1395  offset=0
                      01941 ;; >>> /home/sdcc-builder/build/sdcc-build/orig/sdcc/src/pic14/gen.c:1398:mov2w
00ED   3001           01942         MOVLW   0x01
gpasm-1.5.0 #1285 (Sep 12 2016) obj\Debug\gpi   8-8-2021  22:26:03          PAGE 38


LOC    OBJECT CODE    LINE  SOURCE TEXT
  VALUE

                      01943 ;; >>> /home/sdcc-builder/build/sdcc-build/orig/sdcc/src/pic14/gen.c:1407:movwf
                      01944 ;;      1126 rIdx = r0x105D 
00EE   00??           01945         MOVWF   r0x1006
                      01946 ;; ***  addSign  1087
                      01947 ;;; /home/sdcc-builder/build/sdcc-build/orig/sdcc/src/pic14/genarith.c:1088:addSign *{*
                      01948 ;; ***  mov2w  1395  offset=0
                      01949 ;; >>> /home/sdcc-builder/build/sdcc-build/orig/sdcc/src/pic14/gen.c:1400:mov2w
                      01950 ;;      1126 rIdx = r0x105E 
00EF   08??           01951         MOVF    r0x1007,W
                      01952 ;; >>> /home/sdcc-builder/build/sdcc-build/orig/sdcc/src/pic14/gen.c:5741:genGenericShift
00F0   3C00           01953         SUBLW   0x00
                      01954 ;; >>> /home/sdcc-builder/build/sdcc-build/orig/sdcc/src/pic14/gen.c:5743:genGenericShift
00F1   1903           01955         BTFSC   STATUS,2
                      01956 ;; >>> /home/sdcc-builder/build/sdcc-build/orig/sdcc/src/pic14/gen.c:5744:genGenericShift
                      01957 ;; ***  popGetLabel  key=33, label offset 194
00F2   2???           01958         GOTO    _00327_DS_
                      01959 ;;; /home/sdcc-builder/build/sdcc-build/orig/sdcc/src/pic14/gen.c:5618:genMultiAsm *{*
                      01960 ;; ***  genMultiAsm  5619
                      01961 ;; >>> /home/sdcc-builder/build/sdcc-build/orig/sdcc/src/pic14/gen.c:5636:genMultiAsm
                      01962 ;;      1126 rIdx = r0x105D 
00F3                  01963 _00326_DS_:
00F3   0??? 0???      01964         BANKSEL r0x1006
00F5   0D??           01965         RLF     r0x1006,F
                      01966 ;; >>> /home/sdcc-builder/build/sdcc-build/orig/sdcc/src/pic14/gen.c:5636:genMultiAsm
                      01967 ;;      1126 rIdx = r0x1060 
00F6   0D??           01968         RLF     r0x1009,F
                      01969 ;; >>> /home/sdcc-builder/build/sdcc-build/orig/sdcc/src/pic14/gen.c:5750:genGenericShift
00F7   3E01           01970         ADDLW   0x01
                      01971 ;; >>> /home/sdcc-builder/build/sdcc-build/orig/sdcc/src/pic14/gen.c:5751:genGenericShift
00F8   1C03           01972         BTFSS   STATUS,0
                      01973 ;; >>> /home/sdcc-builder/build/sdcc-build/orig/sdcc/src/pic14/gen.c:5752:genGenericShift
                      01974 ;; ***  popGetLabel  key=32, label offset 194
00F9   2???           01975         GOTO    _00326_DS_
                      01976 ;;; /home/sdcc-builder/build/sdcc-build/orig/sdcc/src/pic14/gen.c:2358:resultRemat *{*
                      01977 ;;; /home/sdcc-builder/build/sdcc-build/orig/sdcc/src/pic14/gen.c:7386:genCast *{*
                      01978 ;; ***  genCast  7387
                      01979 ;; ***  aopForSym 324
                      01980 ;;      336 sym->rname = _PORTE, size = 1
                      01981 ;;      708 register type nRegs=2
                      01982 ;;      line = 7395 result AOP_REG=r0x1061, size=2, left -=-, size=0, right AOP_DIR=_PORTE, size=1
                      01983 ;; >>> /home/sdcc-builder/build/sdcc-build/orig/sdcc/src/pic14/gen.c:7582:genCast
                      01984 ;;      1027
                      01985 ;;      1045  _PORTE   offset=0
00FA                  01986 _00327_DS_:
00FA   0??? 0???      01987         BANKSEL _PORTE
00FC   08??           01988         MOVF    _PORTE,W
                      01989 ;; >>> /home/sdcc-builder/build/sdcc-build/orig/sdcc/src/pic14/gen.c:7583:genCast
                      01990 ;;      1126 rIdx = r0x1061 
00FD   0??? 0???      01991         BANKSEL r0x100A
00FF   00??           01992         MOVWF   r0x100A
                      01993 ;; ***  addSign  1087
                      01994 ;;; /home/sdcc-builder/build/sdcc-build/orig/sdcc/src/pic14/genarith.c:1088:addSign *{*
                      01995 ;; >>> /home/sdcc-builder/build/sdcc-build/orig/sdcc/src/pic14/genarith.c:1107:addSign
gpasm-1.5.0 #1285 (Sep 12 2016) obj\Debug\gpi   8-8-2021  22:26:03          PAGE 39


LOC    OBJECT CODE    LINE  SOURCE TEXT
  VALUE

                      01996 ;;      1126 rIdx = r0x1062 
0100   01??           01997         CLRF    r0x100B
                      01998 ;;; /home/sdcc-builder/build/sdcc-build/orig/sdcc/src/pic14/gen.c:2358:resultRemat *{*
                      01999 ;;; /home/sdcc-builder/build/sdcc-build/orig/sdcc/src/pic14/gen.c:4023:genAnd *{*
                      02000 ;; ***  genAnd  4024
                      02001 ;;      708 register type nRegs=2
                      02002 ;;      708 register type nRegs=2
                      02003 ;;      708 register type nRegs=2
                      02004 ;;      line = 4059 result AOP_REG=r0x105D, size=2, left AOP_REG=r0x105D, size=2, right AOP_REG=r0x1061,
                             size=2
                      02005 ;; >>> /home/sdcc-builder/build/sdcc-build/orig/sdcc/src/pic14/gen.c:4241:genAnd
                      02006 ;;      1126 rIdx = r0x1061 
0101   08??           02007         MOVF    r0x100A,W
                      02008 ;; >>> /home/sdcc-builder/build/sdcc-build/orig/sdcc/src/pic14/gen.c:4242:genAnd
                      02009 ;;      1126 rIdx = r0x105D 
0102   05??           02010         ANDWF   r0x1006,F
                      02011 ;; >>> /home/sdcc-builder/build/sdcc-build/orig/sdcc/src/pic14/gen.c:4241:genAnd
                      02012 ;;      1126 rIdx = r0x1062 
0103   3000           02013         MOVLW   0x00
                      02014 ;; >>> /home/sdcc-builder/build/sdcc-build/orig/sdcc/src/pic14/gen.c:4242:genAnd
                      02015 ;;      1126 rIdx = r0x1060 
0104   05??           02016         ANDWF   r0x1009,F
                      02017 ;;; /home/sdcc-builder/build/sdcc-build/orig/sdcc/src/pic14/gen.c:2358:resultRemat *{*
                      02018 ;;; /home/sdcc-builder/build/sdcc-build/orig/sdcc/src/pic14/gen.c:5667:genGenericShift *{*
                      02019 ;; ***  genGenericShift  5670
                      02020 ;;      708 register type nRegs=1
                      02021 ;;      708 register type nRegs=2
                      02022 ;;      708 register type nRegs=2
                      02023 ;; ***  mov2w  1395  offset=1
                      02024 ;; >>> /home/sdcc-builder/build/sdcc-build/orig/sdcc/src/pic14/gen.c:1400:mov2w
                      02025 ;;      1126 rIdx = r0x1060 
0105   08??           02026         MOVF    r0x1009,W
                      02027 ;; >>> /home/sdcc-builder/build/sdcc-build/orig/sdcc/src/pic14/gen.c:1407:movwf
                      02028 ;;      1126 rIdx = r0x1062 
0106   00??           02029         MOVWF   r0x100B
                      02030 ;; ***  mov2w  1395  offset=0
                      02031 ;; >>> /home/sdcc-builder/build/sdcc-build/orig/sdcc/src/pic14/gen.c:1400:mov2w
                      02032 ;;      1126 rIdx = r0x105D 
0107   08??           02033         MOVF    r0x1006,W
                      02034 ;; >>> /home/sdcc-builder/build/sdcc-build/orig/sdcc/src/pic14/gen.c:1407:movwf
                      02035 ;;      1126 rIdx = r0x1061 
0108   00??           02036         MOVWF   r0x100A
                      02037 ;; ***  addSign  1087
                      02038 ;;; /home/sdcc-builder/build/sdcc-build/orig/sdcc/src/pic14/genarith.c:1088:addSign *{*
                      02039 ;; ***  mov2w  1395  offset=0
                      02040 ;; >>> /home/sdcc-builder/build/sdcc-build/orig/sdcc/src/pic14/gen.c:1400:mov2w
                      02041 ;;      1126 rIdx = r0x105E 
0109   08??           02042         MOVF    r0x1007,W
                      02043 ;; >>> /home/sdcc-builder/build/sdcc-build/orig/sdcc/src/pic14/gen.c:5741:genGenericShift
010A   3C00           02044         SUBLW   0x00
                      02045 ;; >>> /home/sdcc-builder/build/sdcc-build/orig/sdcc/src/pic14/gen.c:5743:genGenericShift
010B   1903           02046         BTFSC   STATUS,2
                      02047 ;; >>> /home/sdcc-builder/build/sdcc-build/orig/sdcc/src/pic14/gen.c:5744:genGenericShift
gpasm-1.5.0 #1285 (Sep 12 2016) obj\Debug\gpi   8-8-2021  22:26:03          PAGE 40


LOC    OBJECT CODE    LINE  SOURCE TEXT
  VALUE

                      02048 ;; ***  popGetLabel  key=35, label offset 194
010C   2???           02049         GOTO    _00329_DS_
                      02050 ;;; /home/sdcc-builder/build/sdcc-build/orig/sdcc/src/pic14/gen.c:5649:loadSignToC *{*
                      02051 ;; >>> /home/sdcc-builder/build/sdcc-build/orig/sdcc/src/pic14/gen.c:5652:loadSignToC
010D                  02052 _00328_DS_:
010D   1003           02053         BCF     STATUS,0
                      02054 ;; >>> /home/sdcc-builder/build/sdcc-build/orig/sdcc/src/pic14/gen.c:5653:loadSignToC
010E   0??? 0???      02055         BANKSEL r0x100B
0110   1B??           02056         BTFSC   r0x100B,7
                      02057 ;; >>> /home/sdcc-builder/build/sdcc-build/orig/sdcc/src/pic14/gen.c:5654:loadSignToC
0111   1403           02058         BSF     STATUS,0
                      02059 ;;; /home/sdcc-builder/build/sdcc-build/orig/sdcc/src/pic14/gen.c:5618:genMultiAsm *{*
                      02060 ;; ***  genMultiAsm  5619
                      02061 ;; >>> /home/sdcc-builder/build/sdcc-build/orig/sdcc/src/pic14/gen.c:5636:genMultiAsm
                      02062 ;;      1126 rIdx = r0x1062 
0112   0C??           02063         RRF     r0x100B,F
                      02064 ;; >>> /home/sdcc-builder/build/sdcc-build/orig/sdcc/src/pic14/gen.c:5636:genMultiAsm
                      02065 ;;      1126 rIdx = r0x1061 
0113   0C??           02066         RRF     r0x100A,F
                      02067 ;; >>> /home/sdcc-builder/build/sdcc-build/orig/sdcc/src/pic14/gen.c:5750:genGenericShift
0114   3E01           02068         ADDLW   0x01
                      02069 ;; >>> /home/sdcc-builder/build/sdcc-build/orig/sdcc/src/pic14/gen.c:5751:genGenericShift
0115   1C03           02070         BTFSS   STATUS,0
                      02071 ;; >>> /home/sdcc-builder/build/sdcc-build/orig/sdcc/src/pic14/gen.c:5752:genGenericShift
                      02072 ;; ***  popGetLabel  key=34, label offset 194
0116   2???           02073         GOTO    _00328_DS_
                      02074 ;;; /home/sdcc-builder/build/sdcc-build/orig/sdcc/src/pic14/gen.c:2358:resultRemat *{*
                      02075 ;;; /home/sdcc-builder/build/sdcc-build/orig/sdcc/src/pic14/gen.c:7386:genCast *{*
                      02076 ;; ***  genCast  7387
                      02077 ;;      708 register type nRegs=2
                      02078 ;;      708 register type nRegs=1
                      02079 ;;      line = 7395 result AOP_REG=r0x105F, size=1, left -=-, size=0, right AOP_REG=r0x1061, size=2
                      02080 ;; ***  genCast  7537
                      02081 ;; >>> /home/sdcc-builder/build/sdcc-build/orig/sdcc/src/pic14/gen.c:7561:genCast
                      02082 ;;      1126 rIdx = r0x1061 
0117                  02083 _00329_DS_:
0117   0??? 0???      02084         BANKSEL r0x100A
0119   08??           02085         MOVF    r0x100A,W
                      02086 ;; >>> /home/sdcc-builder/build/sdcc-build/orig/sdcc/src/pic14/gen.c:7562:genCast
                      02087 ;;      1126 rIdx = r0x105F 
011A   00??           02088         MOVWF   r0x1008
                      02089 ;;; /home/sdcc-builder/build/sdcc-build/orig/sdcc/src/pic14/gen.c:2358:resultRemat *{*
                      02090 ;;; /home/sdcc-builder/build/sdcc-build/orig/sdcc/src/pic14/gen.c:2802:genLabel *{*
                      02091 ;; ***  genLabel  2805
                      02092 ;;; /home/sdcc-builder/build/sdcc-build/orig/sdcc/src/pic14/gen.c:2358:resultRemat *{*
                      02093 ;;; /home/sdcc-builder/build/sdcc-build/orig/sdcc/src/pic14/gen.c:2725:genRet *{*
                      02094 ;; ***  genRet  2727
                      02095 ;;      708 register type nRegs=1
                      02096 ;;; /home/sdcc-builder/build/sdcc-build/orig/sdcc/src/pic14/gen.c:1357:mov2w_op *{*
                      02097 ;; ***  mov2w  1395  offset=0
                      02098 ;; >>> /home/sdcc-builder/build/sdcc-build/orig/sdcc/src/pic14/gen.c:1400:mov2w
                      02099 ;;      1126 rIdx = r0x105F 
011B                  02100 _00301_DS_:
gpasm-1.5.0 #1285 (Sep 12 2016) obj\Debug\gpi   8-8-2021  22:26:03          PAGE 41


LOC    OBJECT CODE    LINE  SOURCE TEXT
  VALUE

                      02101         .line   205; "gpio.c"   return ret ;
011B   0??? 0???      02102         BANKSEL r0x1008
011D   08??           02103         MOVF    r0x1008,W
                      02104 ;;; /home/sdcc-builder/build/sdcc-build/orig/sdcc/src/pic14/gen.c:2358:resultRemat *{*
                      02105 ;;; /home/sdcc-builder/build/sdcc-build/orig/sdcc/src/pic14/gen.c:2802:genLabel *{*
                      02106 ;; ***  genLabel  2805
                      02107 ;;; /home/sdcc-builder/build/sdcc-build/orig/sdcc/src/pic14/gen.c:2358:resultRemat *{*
                      02108 ;;; /home/sdcc-builder/build/sdcc-build/orig/sdcc/src/pic14/gen.c:2570:genEndFunction *{*
                      02109 ;; ***  genEndFunction  2572
                      02110         .line   206; "gpio.c"   }
011E   0008           02111         RETURN  
                      02112 ; exit point of _GPIO_GetPinState
                      02113 ;;; /home/sdcc-builder/build/sdcc-build/orig/sdcc/src/pic14/gen.c:7710:genpic14Code *{*
                      02114 
                      02115 ;***
                      02116 ;  pBlock Stats: dbName = C
                      02117 ;***
                      02118 ;has an exit
                      02119 ;2 compiler assigned registers:
                      02120 ;   r0x100C
                      02121 ;   r0x100D
                      02122 ;; Starting pCode block
                      02123 ;;; /home/sdcc-builder/build/sdcc-build/orig/sdcc/src/pic14/gen.c:2358:resultRemat *{*
                      02124 ;;; /home/sdcc-builder/build/sdcc-build/orig/sdcc/src/pic14/gen.c:2802:genLabel *{*
                      02125 ;; ***  genLabel  2805
                      02126 ;;; /home/sdcc-builder/build/sdcc-build/orig/sdcc/src/pic14/gen.c:2358:resultRemat *{*
                      02127 ;;; /home/sdcc-builder/build/sdcc-build/orig/sdcc/src/pic14/gen.c:2382:genFunction *{*
                      02128 ;; ***  genFunction  2384 curr label offset=156previous max_key=15 
                      02129 S_gpio__GPIO_GetPortDirection   code
0000                  02130 _GPIO_GetPortDirection:
                      02131 ; 2 exit points
                      02132 ;;; /home/sdcc-builder/build/sdcc-build/orig/sdcc/src/pic14/gen.c:2358:resultRemat *{*
                      02133 ;;; /home/sdcc-builder/build/sdcc-build/orig/sdcc/src/pic14/gen.c:7642:genReceive *{*
                      02134 ;; ***  genReceive  7643
                      02135 ;;      708 register type nRegs=1
                      02136 ;;; /home/sdcc-builder/build/sdcc-build/orig/sdcc/src/pic14/gen.c:1929:assignResultValue *{*
                      02137 ;; ***  assignResultValue  1931
                      02138 ;;      line = 1933 result -=-, size=0, left AOP_REG=r0x105B, size=1, right -=-, size=0
                      02139 ;; >>> /home/sdcc-builder/build/sdcc-build/orig/sdcc/src/pic14/gen.c:1407:movwf
                      02140 ;;      1126 rIdx = r0x105B 
                      02141         .line   155; "gpio.c"   unsigned char GPIO_GetPortDirection(tPORT port)
0000   0??? 0???      02142         BANKSEL r0x100C
0002   00??           02143         MOVWF   r0x100C
                      02144 ;;; /home/sdcc-builder/build/sdcc-build/orig/sdcc/src/pic14/gen.c:2358:resultRemat *{*
                      02145 ;;; /home/sdcc-builder/build/sdcc-build/orig/sdcc/src/pic14/gen.c:7192:genAssign *{*
                      02146 ;; ***  genAssign  7193
                      02147 ;;      708 register type nRegs=1
                      02148 ;;      line = 7202 result AOP_REG=r0x105C, size=1, left -=-, size=0, right AOP_LIT=0x00, size=1
                      02149 ;; ***  genAssign  7286
                      02150 ;; >>> /home/sdcc-builder/build/sdcc-build/orig/sdcc/src/pic14/gen.c:7298:genAssign
                      02151 ;;      1126 rIdx = r0x105C 
                      02152         .line   157; "gpio.c"   unsigned char ret = 0 ;
0003   01??           02153         CLRF    r0x100D
gpasm-1.5.0 #1285 (Sep 12 2016) obj\Debug\gpi   8-8-2021  22:26:03          PAGE 42


LOC    OBJECT CODE    LINE  SOURCE TEXT
  VALUE

                      02154 ;;; /home/sdcc-builder/build/sdcc-build/orig/sdcc/src/pic14/gen.c:2358:resultRemat *{*
                      02155 ;;; /home/sdcc-builder/build/sdcc-build/orig/sdcc/src/pic14/gen.c:3616:genCmpGt *{*
                      02156 ;; ***  genCmpGt  3617
                      02157 ;;      708 register type nRegs=1
                      02158 ;;; /home/sdcc-builder/build/sdcc-build/orig/sdcc/src/pic14/gen.c:3354:genCmp *{*
                      02159 ;;swapping arguments (AOP_TYPEs 1/2)
                      02160 ;;unsigned compare: left >= lit(0x5=5), size=1
                      02161 ;; >>> /home/sdcc-builder/build/sdcc-build/orig/sdcc/src/pic14/gen.c:3325:pic14_mov2w_regOrLit
                      02162         .line   158; "gpio.c"   switch(port)
0004   3005           02163         MOVLW   0x05
                      02164 ;; >>> /home/sdcc-builder/build/sdcc-build/orig/sdcc/src/pic14/gen.c:3492:genCmp
                      02165 ;;      1126 rIdx = r0x105B 
0005   02??           02166         SUBWF   r0x100C,W
                      02167 ;;; /home/sdcc-builder/build/sdcc-build/orig/sdcc/src/pic14/gen.c:3297:genSkipc *{*
                      02168 ;; >>> /home/sdcc-builder/build/sdcc-build/orig/sdcc/src/pic14/gen.c:3302:genSkipc
0006   1803           02169         BTFSC   STATUS,0
                      02170 ;; >>> /home/sdcc-builder/build/sdcc-build/orig/sdcc/src/pic14/gen.c:3306:genSkipc
                      02171 ;; ***  popGetLabel  key=7, label offset 175
0007   2???           02172         GOTO    _00282_DS_
                      02173 ;;genSkipc:3307: created from rifx:0000000000BC9340
                      02174 ;;; /home/sdcc-builder/build/sdcc-build/orig/sdcc/src/pic14/gen.c:2358:resultRemat *{*
                      02175 ;;; /home/sdcc-builder/build/sdcc-build/orig/sdcc/src/pic14/gen.c:2358:resultRemat *{*
                      02176 ;;; /home/sdcc-builder/build/sdcc-build/orig/sdcc/src/pic14/gen.c:7337:genJumpTab *{*
                      02177 ;; ***  genJumpTab  7338
                      02178 ;;      708 register type nRegs=1
                      02179 ;; >>> /home/sdcc-builder/build/sdcc-build/orig/sdcc/src/pic14/gen.c:7353:genJumpTab
                      02180 ;; ***  popGetLabel  key=15, label offset 175
0008   30??           02181         MOVLW   HIGH(_00290_DS_)
                      02182 ;; >>> /home/sdcc-builder/build/sdcc-build/orig/sdcc/src/pic14/gen.c:7354:genJumpTab
0009   1283 1303      02183         BANKSEL PCLATH
000B   008A           02184         MOVWF   PCLATH
                      02185 ;; >>> /home/sdcc-builder/build/sdcc-build/orig/sdcc/src/pic14/gen.c:7355:genJumpTab
                      02186 ;; ***  popGetLabel  key=15, label offset 175
000C   30??           02187         MOVLW   _00290_DS_
                      02188 ;; >>> /home/sdcc-builder/build/sdcc-build/orig/sdcc/src/pic14/gen.c:7356:genJumpTab
                      02189 ;;      1126 rIdx = r0x105B 
000D   0??? 0???      02190         BANKSEL r0x100C
000F   07??           02191         ADDWF   r0x100C,W
                      02192 ;; >>> /home/sdcc-builder/build/sdcc-build/orig/sdcc/src/pic14/gen.c:7357:genJumpTab
0010   1C03           02193         BTFSS   STATUS,0
0011   2???           02194         GOTO    _00003_DS_
                      02195 ;; >>> /home/sdcc-builder/build/sdcc-build/orig/sdcc/src/pic14/gen.c:7358:genJumpTab
0012   1283 1303      02196         BANKSEL PCLATH
0014   0A8A           02197         INCF    PCLATH,F
                      02198 ;; >>> /home/sdcc-builder/build/sdcc-build/orig/sdcc/src/pic14/gen.c:7359:genJumpTab
0015                  02199 _00003_DS_:
0015   0082           02200         MOVWF   PCL
                      02201 ;; >>> /home/sdcc-builder/build/sdcc-build/orig/sdcc/src/pic14/gen.c:7368:genJumpTab
                      02202 ;; ***  popGetLabel  key=1, label offset 175
0016                  02203 _00290_DS_:
0016   2???           02204         GOTO    _00276_DS_
                      02205 ;; >>> /home/sdcc-builder/build/sdcc-build/orig/sdcc/src/pic14/gen.c:7368:genJumpTab
                      02206 ;; ***  popGetLabel  key=2, label offset 175
gpasm-1.5.0 #1285 (Sep 12 2016) obj\Debug\gpi   8-8-2021  22:26:03          PAGE 43


LOC    OBJECT CODE    LINE  SOURCE TEXT
  VALUE

0017   2???           02207         GOTO    _00277_DS_
                      02208 ;; >>> /home/sdcc-builder/build/sdcc-build/orig/sdcc/src/pic14/gen.c:7368:genJumpTab
                      02209 ;; ***  popGetLabel  key=3, label offset 175
0018   2???           02210         GOTO    _00278_DS_
                      02211 ;; >>> /home/sdcc-builder/build/sdcc-build/orig/sdcc/src/pic14/gen.c:7368:genJumpTab
                      02212 ;; ***  popGetLabel  key=4, label offset 175
0019   2???           02213         GOTO    _00279_DS_
                      02214 ;; >>> /home/sdcc-builder/build/sdcc-build/orig/sdcc/src/pic14/gen.c:7368:genJumpTab
                      02215 ;; ***  popGetLabel  key=5, label offset 175
001A   2???           02216         GOTO    _00280_DS_
                      02217 ;;; /home/sdcc-builder/build/sdcc-build/orig/sdcc/src/pic14/gen.c:2358:resultRemat *{*
                      02218 ;;; /home/sdcc-builder/build/sdcc-build/orig/sdcc/src/pic14/gen.c:2802:genLabel *{*
                      02219 ;; ***  genLabel  2805
                      02220 ;;; /home/sdcc-builder/build/sdcc-build/orig/sdcc/src/pic14/gen.c:2358:resultRemat *{*
                      02221 ;;; /home/sdcc-builder/build/sdcc-build/orig/sdcc/src/pic14/gen.c:7192:genAssign *{*
                      02222 ;; ***  genAssign  7193
                      02223 ;; ***  aopForSym 324
                      02224 ;;      336 sym->rname = _TRISA, size = 1
                      02225 ;;      708 register type nRegs=1
                      02226 ;;      line = 7202 result AOP_REG=r0x105C, size=1, left -=-, size=0, right AOP_DIR=_TRISA, size=1
                      02227 ;; ***  genAssign  7268
                      02228 ;; WARNING      genAssign  7277 ignoring register storage
                      02229 ;; ***  genAssign  7286
                      02230 ;;; /home/sdcc-builder/build/sdcc-build/orig/sdcc/src/pic14/gen.c:1357:mov2w_op *{*
                      02231 ;; ***  mov2w  1395  offset=0
                      02232 ;; >>> /home/sdcc-builder/build/sdcc-build/orig/sdcc/src/pic14/gen.c:1400:mov2w
                      02233 ;;      1027
                      02234 ;;      1045  _TRISA   offset=0
001B                  02235 _00276_DS_:
                      02236         .line   161; "gpio.c"   ret=  ReadRegisterValue(TRISA) ;
001B   0??? 0???      02237         BANKSEL _TRISA
001D   08??           02238         MOVF    _TRISA,W
                      02239 ;; >>> /home/sdcc-builder/build/sdcc-build/orig/sdcc/src/pic14/gen.c:7313:genAssign
                      02240 ;;      1126 rIdx = r0x105C 
001E   0??? 0???      02241         BANKSEL r0x100D
0020   00??           02242         MOVWF   r0x100D
                      02243 ;;; /home/sdcc-builder/build/sdcc-build/orig/sdcc/src/pic14/gen.c:2358:resultRemat *{*
                      02244 ;;; /home/sdcc-builder/build/sdcc-build/orig/sdcc/src/pic14/gen.c:2820:genGoto *{*
                      02245 ;; >>> /home/sdcc-builder/build/sdcc-build/orig/sdcc/src/pic14/gen.c:2822:genGoto
                      02246 ;; ***  popGetLabel  key=7, label offset 175
                      02247         .line   162; "gpio.c"   break;
0021   2???           02248         GOTO    _00282_DS_
                      02249 ;;; /home/sdcc-builder/build/sdcc-build/orig/sdcc/src/pic14/gen.c:2358:resultRemat *{*
                      02250 ;;; /home/sdcc-builder/build/sdcc-build/orig/sdcc/src/pic14/gen.c:2802:genLabel *{*
                      02251 ;; ***  genLabel  2805
                      02252 ;;; /home/sdcc-builder/build/sdcc-build/orig/sdcc/src/pic14/gen.c:2358:resultRemat *{*
                      02253 ;;; /home/sdcc-builder/build/sdcc-build/orig/sdcc/src/pic14/gen.c:7192:genAssign *{*
                      02254 ;; ***  genAssign  7193
                      02255 ;; ***  aopForSym 324
                      02256 ;;      336 sym->rname = _TRISB, size = 1
                      02257 ;;      708 register type nRegs=1
                      02258 ;;      line = 7202 result AOP_REG=r0x105C, size=1, left -=-, size=0, right AOP_DIR=_TRISB, size=1
                      02259 ;; ***  genAssign  7268
gpasm-1.5.0 #1285 (Sep 12 2016) obj\Debug\gpi   8-8-2021  22:26:03          PAGE 44


LOC    OBJECT CODE    LINE  SOURCE TEXT
  VALUE

                      02260 ;; WARNING      genAssign  7277 ignoring register storage
                      02261 ;; ***  genAssign  7286
                      02262 ;;; /home/sdcc-builder/build/sdcc-build/orig/sdcc/src/pic14/gen.c:1357:mov2w_op *{*
                      02263 ;; ***  mov2w  1395  offset=0
                      02264 ;; >>> /home/sdcc-builder/build/sdcc-build/orig/sdcc/src/pic14/gen.c:1400:mov2w
                      02265 ;;      1027
                      02266 ;;      1045  _TRISB   offset=0
0022                  02267 _00277_DS_:
                      02268         .line   164; "gpio.c"   ret=  ReadRegisterValue(TRISB) ;
0022   0??? 0???      02269         BANKSEL _TRISB
0024   08??           02270         MOVF    _TRISB,W
                      02271 ;; >>> /home/sdcc-builder/build/sdcc-build/orig/sdcc/src/pic14/gen.c:7313:genAssign
                      02272 ;;      1126 rIdx = r0x105C 
0025   0??? 0???      02273         BANKSEL r0x100D
0027   00??           02274         MOVWF   r0x100D
                      02275 ;;; /home/sdcc-builder/build/sdcc-build/orig/sdcc/src/pic14/gen.c:2358:resultRemat *{*
                      02276 ;;; /home/sdcc-builder/build/sdcc-build/orig/sdcc/src/pic14/gen.c:2820:genGoto *{*
                      02277 ;; >>> /home/sdcc-builder/build/sdcc-build/orig/sdcc/src/pic14/gen.c:2822:genGoto
                      02278 ;; ***  popGetLabel  key=7, label offset 175
                      02279         .line   165; "gpio.c"   break;
0028   2???           02280         GOTO    _00282_DS_
                      02281 ;;; /home/sdcc-builder/build/sdcc-build/orig/sdcc/src/pic14/gen.c:2358:resultRemat *{*
                      02282 ;;; /home/sdcc-builder/build/sdcc-build/orig/sdcc/src/pic14/gen.c:2802:genLabel *{*
                      02283 ;; ***  genLabel  2805
                      02284 ;;; /home/sdcc-builder/build/sdcc-build/orig/sdcc/src/pic14/gen.c:2358:resultRemat *{*
                      02285 ;;; /home/sdcc-builder/build/sdcc-build/orig/sdcc/src/pic14/gen.c:7192:genAssign *{*
                      02286 ;; ***  genAssign  7193
                      02287 ;; ***  aopForSym 324
                      02288 ;;      336 sym->rname = _TRISC, size = 1
                      02289 ;;      708 register type nRegs=1
                      02290 ;;      line = 7202 result AOP_REG=r0x105C, size=1, left -=-, size=0, right AOP_DIR=_TRISC, size=1
                      02291 ;; ***  genAssign  7268
                      02292 ;; WARNING      genAssign  7277 ignoring register storage
                      02293 ;; ***  genAssign  7286
                      02294 ;;; /home/sdcc-builder/build/sdcc-build/orig/sdcc/src/pic14/gen.c:1357:mov2w_op *{*
                      02295 ;; ***  mov2w  1395  offset=0
                      02296 ;; >>> /home/sdcc-builder/build/sdcc-build/orig/sdcc/src/pic14/gen.c:1400:mov2w
                      02297 ;;      1027
                      02298 ;;      1045  _TRISC   offset=0
0029                  02299 _00278_DS_:
                      02300         .line   167; "gpio.c"   ret=  ReadRegisterValue(TRISC) ;
0029   0??? 0???      02301         BANKSEL _TRISC
002B   08??           02302         MOVF    _TRISC,W
                      02303 ;; >>> /home/sdcc-builder/build/sdcc-build/orig/sdcc/src/pic14/gen.c:7313:genAssign
                      02304 ;;      1126 rIdx = r0x105C 
002C   0??? 0???      02305         BANKSEL r0x100D
002E   00??           02306         MOVWF   r0x100D
                      02307 ;;; /home/sdcc-builder/build/sdcc-build/orig/sdcc/src/pic14/gen.c:2358:resultRemat *{*
                      02308 ;;; /home/sdcc-builder/build/sdcc-build/orig/sdcc/src/pic14/gen.c:2820:genGoto *{*
                      02309 ;; >>> /home/sdcc-builder/build/sdcc-build/orig/sdcc/src/pic14/gen.c:2822:genGoto
                      02310 ;; ***  popGetLabel  key=7, label offset 175
                      02311         .line   168; "gpio.c"   break;
002F   2???           02312         GOTO    _00282_DS_
gpasm-1.5.0 #1285 (Sep 12 2016) obj\Debug\gpi   8-8-2021  22:26:03          PAGE 45


LOC    OBJECT CODE    LINE  SOURCE TEXT
  VALUE

                      02313 ;;; /home/sdcc-builder/build/sdcc-build/orig/sdcc/src/pic14/gen.c:2358:resultRemat *{*
                      02314 ;;; /home/sdcc-builder/build/sdcc-build/orig/sdcc/src/pic14/gen.c:2802:genLabel *{*
                      02315 ;; ***  genLabel  2805
                      02316 ;;; /home/sdcc-builder/build/sdcc-build/orig/sdcc/src/pic14/gen.c:2358:resultRemat *{*
                      02317 ;;; /home/sdcc-builder/build/sdcc-build/orig/sdcc/src/pic14/gen.c:7192:genAssign *{*
                      02318 ;; ***  genAssign  7193
                      02319 ;; ***  aopForSym 324
                      02320 ;;      336 sym->rname = _TRISD, size = 1
                      02321 ;;      708 register type nRegs=1
                      02322 ;;      line = 7202 result AOP_REG=r0x105C, size=1, left -=-, size=0, right AOP_DIR=_TRISD, size=1
                      02323 ;; ***  genAssign  7268
                      02324 ;; WARNING      genAssign  7277 ignoring register storage
                      02325 ;; ***  genAssign  7286
                      02326 ;;; /home/sdcc-builder/build/sdcc-build/orig/sdcc/src/pic14/gen.c:1357:mov2w_op *{*
                      02327 ;; ***  mov2w  1395  offset=0
                      02328 ;; >>> /home/sdcc-builder/build/sdcc-build/orig/sdcc/src/pic14/gen.c:1400:mov2w
                      02329 ;;      1027
                      02330 ;;      1045  _TRISD   offset=0
0030                  02331 _00279_DS_:
                      02332         .line   170; "gpio.c"   ret=  ReadRegisterValue(TRISD) ;
0030   0??? 0???      02333         BANKSEL _TRISD
0032   08??           02334         MOVF    _TRISD,W
                      02335 ;; >>> /home/sdcc-builder/build/sdcc-build/orig/sdcc/src/pic14/gen.c:7313:genAssign
                      02336 ;;      1126 rIdx = r0x105C 
0033   0??? 0???      02337         BANKSEL r0x100D
0035   00??           02338         MOVWF   r0x100D
                      02339 ;;; /home/sdcc-builder/build/sdcc-build/orig/sdcc/src/pic14/gen.c:2358:resultRemat *{*
                      02340 ;;; /home/sdcc-builder/build/sdcc-build/orig/sdcc/src/pic14/gen.c:2820:genGoto *{*
                      02341 ;; >>> /home/sdcc-builder/build/sdcc-build/orig/sdcc/src/pic14/gen.c:2822:genGoto
                      02342 ;; ***  popGetLabel  key=7, label offset 175
                      02343         .line   171; "gpio.c"   break;
0036   2???           02344         GOTO    _00282_DS_
                      02345 ;;; /home/sdcc-builder/build/sdcc-build/orig/sdcc/src/pic14/gen.c:2358:resultRemat *{*
                      02346 ;;; /home/sdcc-builder/build/sdcc-build/orig/sdcc/src/pic14/gen.c:2802:genLabel *{*
                      02347 ;; ***  genLabel  2805
                      02348 ;;; /home/sdcc-builder/build/sdcc-build/orig/sdcc/src/pic14/gen.c:2358:resultRemat *{*
                      02349 ;;; /home/sdcc-builder/build/sdcc-build/orig/sdcc/src/pic14/gen.c:7192:genAssign *{*
                      02350 ;; ***  genAssign  7193
                      02351 ;; ***  aopForSym 324
                      02352 ;;      336 sym->rname = _TRISE, size = 1
                      02353 ;;      708 register type nRegs=1
                      02354 ;;      line = 7202 result AOP_REG=r0x105C, size=1, left -=-, size=0, right AOP_DIR=_TRISE, size=1
                      02355 ;; ***  genAssign  7268
                      02356 ;; WARNING      genAssign  7277 ignoring register storage
                      02357 ;; ***  genAssign  7286
                      02358 ;;; /home/sdcc-builder/build/sdcc-build/orig/sdcc/src/pic14/gen.c:1357:mov2w_op *{*
                      02359 ;; ***  mov2w  1395  offset=0
                      02360 ;; >>> /home/sdcc-builder/build/sdcc-build/orig/sdcc/src/pic14/gen.c:1400:mov2w
                      02361 ;;      1027
                      02362 ;;      1045  _TRISE   offset=0
0037                  02363 _00280_DS_:
                      02364         .line   173; "gpio.c"   ret=  ReadRegisterValue(TRISE) ;
0037   0??? 0???      02365         BANKSEL _TRISE
gpasm-1.5.0 #1285 (Sep 12 2016) obj\Debug\gpi   8-8-2021  22:26:03          PAGE 46


LOC    OBJECT CODE    LINE  SOURCE TEXT
  VALUE

0039   08??           02366         MOVF    _TRISE,W
                      02367 ;; >>> /home/sdcc-builder/build/sdcc-build/orig/sdcc/src/pic14/gen.c:7313:genAssign
                      02368 ;;      1126 rIdx = r0x105C 
003A   0??? 0???      02369         BANKSEL r0x100D
003C   00??           02370         MOVWF   r0x100D
                      02371 ;;; /home/sdcc-builder/build/sdcc-build/orig/sdcc/src/pic14/gen.c:2358:resultRemat *{*
                      02372 ;;; /home/sdcc-builder/build/sdcc-build/orig/sdcc/src/pic14/gen.c:2802:genLabel *{*
                      02373 ;; ***  genLabel  2805
                      02374 ;;; /home/sdcc-builder/build/sdcc-build/orig/sdcc/src/pic14/gen.c:2358:resultRemat *{*
                      02375 ;;; /home/sdcc-builder/build/sdcc-build/orig/sdcc/src/pic14/gen.c:2725:genRet *{*
                      02376 ;; ***  genRet  2727
                      02377 ;;      708 register type nRegs=1
                      02378 ;;; /home/sdcc-builder/build/sdcc-build/orig/sdcc/src/pic14/gen.c:1357:mov2w_op *{*
                      02379 ;; ***  mov2w  1395  offset=0
                      02380 ;; >>> /home/sdcc-builder/build/sdcc-build/orig/sdcc/src/pic14/gen.c:1400:mov2w
                      02381 ;;      1126 rIdx = r0x105C 
003D                  02382 _00282_DS_:
                      02383         .line   179; "gpio.c"   return ret ;
003D   0??? 0???      02384         BANKSEL r0x100D
003F   08??           02385         MOVF    r0x100D,W
                      02386 ;;; /home/sdcc-builder/build/sdcc-build/orig/sdcc/src/pic14/gen.c:2358:resultRemat *{*
                      02387 ;;; /home/sdcc-builder/build/sdcc-build/orig/sdcc/src/pic14/gen.c:2802:genLabel *{*
                      02388 ;; ***  genLabel  2805
                      02389 ;;; /home/sdcc-builder/build/sdcc-build/orig/sdcc/src/pic14/gen.c:2358:resultRemat *{*
                      02390 ;;; /home/sdcc-builder/build/sdcc-build/orig/sdcc/src/pic14/gen.c:2570:genEndFunction *{*
                      02391 ;; ***  genEndFunction  2572
                      02392         .line   180; "gpio.c"   }
0040   0008           02393         RETURN  
                      02394 ; exit point of _GPIO_GetPortDirection
                      02395 ;;; /home/sdcc-builder/build/sdcc-build/orig/sdcc/src/pic14/gen.c:7710:genpic14Code *{*
                      02396 
                      02397 ;***
                      02398 ;  pBlock Stats: dbName = C
                      02399 ;***
                      02400 ;has an exit
                      02401 ;2 compiler assigned registers:
                      02402 ;   r0x100E
                      02403 ;   r0x100F
                      02404 ;; Starting pCode block
                      02405 ;;; /home/sdcc-builder/build/sdcc-build/orig/sdcc/src/pic14/gen.c:2358:resultRemat *{*
                      02406 ;;; /home/sdcc-builder/build/sdcc-build/orig/sdcc/src/pic14/gen.c:2802:genLabel *{*
                      02407 ;; ***  genLabel  2805
                      02408 ;;; /home/sdcc-builder/build/sdcc-build/orig/sdcc/src/pic14/gen.c:2358:resultRemat *{*
                      02409 ;;; /home/sdcc-builder/build/sdcc-build/orig/sdcc/src/pic14/gen.c:2382:genFunction *{*
                      02410 ;; ***  genFunction  2384 curr label offset=107previous max_key=45 
                      02411 S_gpio__GPIO_GetPortData        code
0000                  02412 _GPIO_GetPortData:
                      02413 ; 2 exit points
                      02414 ;;; /home/sdcc-builder/build/sdcc-build/orig/sdcc/src/pic14/gen.c:2358:resultRemat *{*
                      02415 ;;; /home/sdcc-builder/build/sdcc-build/orig/sdcc/src/pic14/gen.c:7642:genReceive *{*
                      02416 ;; ***  genReceive  7643
                      02417 ;;      708 register type nRegs=1
                      02418 ;;; /home/sdcc-builder/build/sdcc-build/orig/sdcc/src/pic14/gen.c:1929:assignResultValue *{*
gpasm-1.5.0 #1285 (Sep 12 2016) obj\Debug\gpi   8-8-2021  22:26:03          PAGE 47


LOC    OBJECT CODE    LINE  SOURCE TEXT
  VALUE

                      02419 ;; ***  assignResultValue  1931
                      02420 ;;      line = 1933 result -=-, size=0, left AOP_REG=r0x1059, size=1, right -=-, size=0
                      02421 ;; >>> /home/sdcc-builder/build/sdcc-build/orig/sdcc/src/pic14/gen.c:1407:movwf
                      02422 ;;      1126 rIdx = r0x1059 
                      02423         .line   129; "gpio.c"   unsigned char GPIO_GetPortData(tPORT port)
0000   0??? 0???      02424         BANKSEL r0x100E
0002   00??           02425         MOVWF   r0x100E
                      02426 ;;; /home/sdcc-builder/build/sdcc-build/orig/sdcc/src/pic14/gen.c:2358:resultRemat *{*
                      02427 ;;; /home/sdcc-builder/build/sdcc-build/orig/sdcc/src/pic14/gen.c:7192:genAssign *{*
                      02428 ;; ***  genAssign  7193
                      02429 ;;      708 register type nRegs=1
                      02430 ;;      line = 7202 result AOP_REG=r0x105A, size=1, left -=-, size=0, right AOP_LIT=0x00, size=1
                      02431 ;; ***  genAssign  7286
                      02432 ;; >>> /home/sdcc-builder/build/sdcc-build/orig/sdcc/src/pic14/gen.c:7298:genAssign
                      02433 ;;      1126 rIdx = r0x105A 
                      02434         .line   131; "gpio.c"   unsigned char ret = 0 ;
0003   01??           02435         CLRF    r0x100F
                      02436 ;;; /home/sdcc-builder/build/sdcc-build/orig/sdcc/src/pic14/gen.c:2358:resultRemat *{*
                      02437 ;;; /home/sdcc-builder/build/sdcc-build/orig/sdcc/src/pic14/gen.c:3616:genCmpGt *{*
                      02438 ;; ***  genCmpGt  3617
                      02439 ;;      708 register type nRegs=1
                      02440 ;;; /home/sdcc-builder/build/sdcc-build/orig/sdcc/src/pic14/gen.c:3354:genCmp *{*
                      02441 ;;swapping arguments (AOP_TYPEs 1/2)
                      02442 ;;unsigned compare: left >= lit(0x5=5), size=1
                      02443 ;; >>> /home/sdcc-builder/build/sdcc-build/orig/sdcc/src/pic14/gen.c:3325:pic14_mov2w_regOrLit
                      02444         .line   132; "gpio.c"   switch(port)
0004   3005           02445         MOVLW   0x05
                      02446 ;; >>> /home/sdcc-builder/build/sdcc-build/orig/sdcc/src/pic14/gen.c:3492:genCmp
                      02447 ;;      1126 rIdx = r0x1059 
0005   02??           02448         SUBWF   r0x100E,W
                      02449 ;;; /home/sdcc-builder/build/sdcc-build/orig/sdcc/src/pic14/gen.c:3297:genSkipc *{*
                      02450 ;; >>> /home/sdcc-builder/build/sdcc-build/orig/sdcc/src/pic14/gen.c:3302:genSkipc
0006   1803           02451         BTFSC   STATUS,0
                      02452 ;; >>> /home/sdcc-builder/build/sdcc-build/orig/sdcc/src/pic14/gen.c:3306:genSkipc
                      02453 ;; ***  popGetLabel  key=7, label offset 156
0007   2???           02454         GOTO    _00263_DS_
                      02455 ;;genSkipc:3307: created from rifx:0000000000BC9340
                      02456 ;;; /home/sdcc-builder/build/sdcc-build/orig/sdcc/src/pic14/gen.c:2358:resultRemat *{*
                      02457 ;;; /home/sdcc-builder/build/sdcc-build/orig/sdcc/src/pic14/gen.c:2358:resultRemat *{*
                      02458 ;;; /home/sdcc-builder/build/sdcc-build/orig/sdcc/src/pic14/gen.c:7337:genJumpTab *{*
                      02459 ;; ***  genJumpTab  7338
                      02460 ;;      708 register type nRegs=1
                      02461 ;; >>> /home/sdcc-builder/build/sdcc-build/orig/sdcc/src/pic14/gen.c:7353:genJumpTab
                      02462 ;; ***  popGetLabel  key=15, label offset 156
0008   30??           02463         MOVLW   HIGH(_00271_DS_)
                      02464 ;; >>> /home/sdcc-builder/build/sdcc-build/orig/sdcc/src/pic14/gen.c:7354:genJumpTab
0009   1283 1303      02465         BANKSEL PCLATH
000B   008A           02466         MOVWF   PCLATH
                      02467 ;; >>> /home/sdcc-builder/build/sdcc-build/orig/sdcc/src/pic14/gen.c:7355:genJumpTab
                      02468 ;; ***  popGetLabel  key=15, label offset 156
000C   30??           02469         MOVLW   _00271_DS_
                      02470 ;; >>> /home/sdcc-builder/build/sdcc-build/orig/sdcc/src/pic14/gen.c:7356:genJumpTab
                      02471 ;;      1126 rIdx = r0x1059 
gpasm-1.5.0 #1285 (Sep 12 2016) obj\Debug\gpi   8-8-2021  22:26:03          PAGE 48


LOC    OBJECT CODE    LINE  SOURCE TEXT
  VALUE

000D   0??? 0???      02472         BANKSEL r0x100E
000F   07??           02473         ADDWF   r0x100E,W
                      02474 ;; >>> /home/sdcc-builder/build/sdcc-build/orig/sdcc/src/pic14/gen.c:7357:genJumpTab
0010   1C03           02475         BTFSS   STATUS,0
0011   2???           02476         GOTO    _00004_DS_
                      02477 ;; >>> /home/sdcc-builder/build/sdcc-build/orig/sdcc/src/pic14/gen.c:7358:genJumpTab
0012   1283 1303      02478         BANKSEL PCLATH
0014   0A8A           02479         INCF    PCLATH,F
                      02480 ;; >>> /home/sdcc-builder/build/sdcc-build/orig/sdcc/src/pic14/gen.c:7359:genJumpTab
0015                  02481 _00004_DS_:
0015   0082           02482         MOVWF   PCL
                      02483 ;; >>> /home/sdcc-builder/build/sdcc-build/orig/sdcc/src/pic14/gen.c:7368:genJumpTab
                      02484 ;; ***  popGetLabel  key=1, label offset 156
0016                  02485 _00271_DS_:
0016   2???           02486         GOTO    _00257_DS_
                      02487 ;; >>> /home/sdcc-builder/build/sdcc-build/orig/sdcc/src/pic14/gen.c:7368:genJumpTab
                      02488 ;; ***  popGetLabel  key=2, label offset 156
0017   2???           02489         GOTO    _00258_DS_
                      02490 ;; >>> /home/sdcc-builder/build/sdcc-build/orig/sdcc/src/pic14/gen.c:7368:genJumpTab
                      02491 ;; ***  popGetLabel  key=3, label offset 156
0018   2???           02492         GOTO    _00259_DS_
                      02493 ;; >>> /home/sdcc-builder/build/sdcc-build/orig/sdcc/src/pic14/gen.c:7368:genJumpTab
                      02494 ;; ***  popGetLabel  key=4, label offset 156
0019   2???           02495         GOTO    _00260_DS_
                      02496 ;; >>> /home/sdcc-builder/build/sdcc-build/orig/sdcc/src/pic14/gen.c:7368:genJumpTab
                      02497 ;; ***  popGetLabel  key=5, label offset 156
001A   2???           02498         GOTO    _00261_DS_
                      02499 ;;; /home/sdcc-builder/build/sdcc-build/orig/sdcc/src/pic14/gen.c:2358:resultRemat *{*
                      02500 ;;; /home/sdcc-builder/build/sdcc-build/orig/sdcc/src/pic14/gen.c:2802:genLabel *{*
                      02501 ;; ***  genLabel  2805
                      02502 ;;; /home/sdcc-builder/build/sdcc-build/orig/sdcc/src/pic14/gen.c:2358:resultRemat *{*
                      02503 ;;; /home/sdcc-builder/build/sdcc-build/orig/sdcc/src/pic14/gen.c:7192:genAssign *{*
                      02504 ;; ***  genAssign  7193
                      02505 ;; ***  aopForSym 324
                      02506 ;;      336 sym->rname = _PORTA, size = 1
                      02507 ;;      708 register type nRegs=1
                      02508 ;;      line = 7202 result AOP_REG=r0x105A, size=1, left -=-, size=0, right AOP_DIR=_PORTA, size=1
                      02509 ;; ***  genAssign  7268
                      02510 ;; WARNING      genAssign  7277 ignoring register storage
                      02511 ;; ***  genAssign  7286
                      02512 ;;; /home/sdcc-builder/build/sdcc-build/orig/sdcc/src/pic14/gen.c:1357:mov2w_op *{*
                      02513 ;; ***  mov2w  1395  offset=0
                      02514 ;; >>> /home/sdcc-builder/build/sdcc-build/orig/sdcc/src/pic14/gen.c:1400:mov2w
                      02515 ;;      1027
                      02516 ;;      1045  _PORTA   offset=0
001B                  02517 _00257_DS_:
                      02518         .line   135; "gpio.c"   ret=  ReadRegisterValue(PORTA) ;
001B   0??? 0???      02519         BANKSEL _PORTA
001D   08??           02520         MOVF    _PORTA,W
                      02521 ;; >>> /home/sdcc-builder/build/sdcc-build/orig/sdcc/src/pic14/gen.c:7313:genAssign
                      02522 ;;      1126 rIdx = r0x105A 
001E   0??? 0???      02523         BANKSEL r0x100F
0020   00??           02524         MOVWF   r0x100F
gpasm-1.5.0 #1285 (Sep 12 2016) obj\Debug\gpi   8-8-2021  22:26:03          PAGE 49


LOC    OBJECT CODE    LINE  SOURCE TEXT
  VALUE

                      02525 ;;; /home/sdcc-builder/build/sdcc-build/orig/sdcc/src/pic14/gen.c:2358:resultRemat *{*
                      02526 ;;; /home/sdcc-builder/build/sdcc-build/orig/sdcc/src/pic14/gen.c:2820:genGoto *{*
                      02527 ;; >>> /home/sdcc-builder/build/sdcc-build/orig/sdcc/src/pic14/gen.c:2822:genGoto
                      02528 ;; ***  popGetLabel  key=7, label offset 156
                      02529         .line   136; "gpio.c"   break;
0021   2???           02530         GOTO    _00263_DS_
                      02531 ;;; /home/sdcc-builder/build/sdcc-build/orig/sdcc/src/pic14/gen.c:2358:resultRemat *{*
                      02532 ;;; /home/sdcc-builder/build/sdcc-build/orig/sdcc/src/pic14/gen.c:2802:genLabel *{*
                      02533 ;; ***  genLabel  2805
                      02534 ;;; /home/sdcc-builder/build/sdcc-build/orig/sdcc/src/pic14/gen.c:2358:resultRemat *{*
                      02535 ;;; /home/sdcc-builder/build/sdcc-build/orig/sdcc/src/pic14/gen.c:7192:genAssign *{*
                      02536 ;; ***  genAssign  7193
                      02537 ;; ***  aopForSym 324
                      02538 ;;      336 sym->rname = _PORTB, size = 1
                      02539 ;;      708 register type nRegs=1
                      02540 ;;      line = 7202 result AOP_REG=r0x105A, size=1, left -=-, size=0, right AOP_DIR=_PORTB, size=1
                      02541 ;; ***  genAssign  7268
                      02542 ;; WARNING      genAssign  7277 ignoring register storage
                      02543 ;; ***  genAssign  7286
                      02544 ;;; /home/sdcc-builder/build/sdcc-build/orig/sdcc/src/pic14/gen.c:1357:mov2w_op *{*
                      02545 ;; ***  mov2w  1395  offset=0
                      02546 ;; >>> /home/sdcc-builder/build/sdcc-build/orig/sdcc/src/pic14/gen.c:1400:mov2w
                      02547 ;;      1027
                      02548 ;;      1045  _PORTB   offset=0
0022                  02549 _00258_DS_:
                      02550         .line   138; "gpio.c"   ret=  ReadRegisterValue(PORTB) ;
0022   0??? 0???      02551         BANKSEL _PORTB
0024   08??           02552         MOVF    _PORTB,W
                      02553 ;; >>> /home/sdcc-builder/build/sdcc-build/orig/sdcc/src/pic14/gen.c:7313:genAssign
                      02554 ;;      1126 rIdx = r0x105A 
0025   0??? 0???      02555         BANKSEL r0x100F
0027   00??           02556         MOVWF   r0x100F
                      02557 ;;; /home/sdcc-builder/build/sdcc-build/orig/sdcc/src/pic14/gen.c:2358:resultRemat *{*
                      02558 ;;; /home/sdcc-builder/build/sdcc-build/orig/sdcc/src/pic14/gen.c:2820:genGoto *{*
                      02559 ;; >>> /home/sdcc-builder/build/sdcc-build/orig/sdcc/src/pic14/gen.c:2822:genGoto
                      02560 ;; ***  popGetLabel  key=7, label offset 156
                      02561         .line   139; "gpio.c"   break;
0028   2???           02562         GOTO    _00263_DS_
                      02563 ;;; /home/sdcc-builder/build/sdcc-build/orig/sdcc/src/pic14/gen.c:2358:resultRemat *{*
                      02564 ;;; /home/sdcc-builder/build/sdcc-build/orig/sdcc/src/pic14/gen.c:2802:genLabel *{*
                      02565 ;; ***  genLabel  2805
                      02566 ;;; /home/sdcc-builder/build/sdcc-build/orig/sdcc/src/pic14/gen.c:2358:resultRemat *{*
                      02567 ;;; /home/sdcc-builder/build/sdcc-build/orig/sdcc/src/pic14/gen.c:7192:genAssign *{*
                      02568 ;; ***  genAssign  7193
                      02569 ;; ***  aopForSym 324
                      02570 ;;      336 sym->rname = _PORTC, size = 1
                      02571 ;;      708 register type nRegs=1
                      02572 ;;      line = 7202 result AOP_REG=r0x105A, size=1, left -=-, size=0, right AOP_DIR=_PORTC, size=1
                      02573 ;; ***  genAssign  7268
                      02574 ;; WARNING      genAssign  7277 ignoring register storage
                      02575 ;; ***  genAssign  7286
                      02576 ;;; /home/sdcc-builder/build/sdcc-build/orig/sdcc/src/pic14/gen.c:1357:mov2w_op *{*
                      02577 ;; ***  mov2w  1395  offset=0
gpasm-1.5.0 #1285 (Sep 12 2016) obj\Debug\gpi   8-8-2021  22:26:03          PAGE 50


LOC    OBJECT CODE    LINE  SOURCE TEXT
  VALUE

                      02578 ;; >>> /home/sdcc-builder/build/sdcc-build/orig/sdcc/src/pic14/gen.c:1400:mov2w
                      02579 ;;      1027
                      02580 ;;      1045  _PORTC   offset=0
0029                  02581 _00259_DS_:
                      02582         .line   141; "gpio.c"   ret=  ReadRegisterValue(PORTC) ;
0029   0??? 0???      02583         BANKSEL _PORTC
002B   08??           02584         MOVF    _PORTC,W
                      02585 ;; >>> /home/sdcc-builder/build/sdcc-build/orig/sdcc/src/pic14/gen.c:7313:genAssign
                      02586 ;;      1126 rIdx = r0x105A 
002C   0??? 0???      02587         BANKSEL r0x100F
002E   00??           02588         MOVWF   r0x100F
                      02589 ;;; /home/sdcc-builder/build/sdcc-build/orig/sdcc/src/pic14/gen.c:2358:resultRemat *{*
                      02590 ;;; /home/sdcc-builder/build/sdcc-build/orig/sdcc/src/pic14/gen.c:2820:genGoto *{*
                      02591 ;; >>> /home/sdcc-builder/build/sdcc-build/orig/sdcc/src/pic14/gen.c:2822:genGoto
                      02592 ;; ***  popGetLabel  key=7, label offset 156
                      02593         .line   142; "gpio.c"   break;
002F   2???           02594         GOTO    _00263_DS_
                      02595 ;;; /home/sdcc-builder/build/sdcc-build/orig/sdcc/src/pic14/gen.c:2358:resultRemat *{*
                      02596 ;;; /home/sdcc-builder/build/sdcc-build/orig/sdcc/src/pic14/gen.c:2802:genLabel *{*
                      02597 ;; ***  genLabel  2805
                      02598 ;;; /home/sdcc-builder/build/sdcc-build/orig/sdcc/src/pic14/gen.c:2358:resultRemat *{*
                      02599 ;;; /home/sdcc-builder/build/sdcc-build/orig/sdcc/src/pic14/gen.c:7192:genAssign *{*
                      02600 ;; ***  genAssign  7193
                      02601 ;; ***  aopForSym 324
                      02602 ;;      336 sym->rname = _PORTD, size = 1
                      02603 ;;      708 register type nRegs=1
                      02604 ;;      line = 7202 result AOP_REG=r0x105A, size=1, left -=-, size=0, right AOP_DIR=_PORTD, size=1
                      02605 ;; ***  genAssign  7268
                      02606 ;; WARNING      genAssign  7277 ignoring register storage
                      02607 ;; ***  genAssign  7286
                      02608 ;;; /home/sdcc-builder/build/sdcc-build/orig/sdcc/src/pic14/gen.c:1357:mov2w_op *{*
                      02609 ;; ***  mov2w  1395  offset=0
                      02610 ;; >>> /home/sdcc-builder/build/sdcc-build/orig/sdcc/src/pic14/gen.c:1400:mov2w
                      02611 ;;      1027
                      02612 ;;      1045  _PORTD   offset=0
0030                  02613 _00260_DS_:
                      02614         .line   144; "gpio.c"   ret=  ReadRegisterValue(PORTD) ;
0030   0??? 0???      02615         BANKSEL _PORTD
0032   08??           02616         MOVF    _PORTD,W
                      02617 ;; >>> /home/sdcc-builder/build/sdcc-build/orig/sdcc/src/pic14/gen.c:7313:genAssign
                      02618 ;;      1126 rIdx = r0x105A 
0033   0??? 0???      02619         BANKSEL r0x100F
0035   00??           02620         MOVWF   r0x100F
                      02621 ;;; /home/sdcc-builder/build/sdcc-build/orig/sdcc/src/pic14/gen.c:2358:resultRemat *{*
                      02622 ;;; /home/sdcc-builder/build/sdcc-build/orig/sdcc/src/pic14/gen.c:2820:genGoto *{*
                      02623 ;; >>> /home/sdcc-builder/build/sdcc-build/orig/sdcc/src/pic14/gen.c:2822:genGoto
                      02624 ;; ***  popGetLabel  key=7, label offset 156
                      02625         .line   145; "gpio.c"   break;
0036   2???           02626         GOTO    _00263_DS_
                      02627 ;;; /home/sdcc-builder/build/sdcc-build/orig/sdcc/src/pic14/gen.c:2358:resultRemat *{*
                      02628 ;;; /home/sdcc-builder/build/sdcc-build/orig/sdcc/src/pic14/gen.c:2802:genLabel *{*
                      02629 ;; ***  genLabel  2805
                      02630 ;;; /home/sdcc-builder/build/sdcc-build/orig/sdcc/src/pic14/gen.c:2358:resultRemat *{*
gpasm-1.5.0 #1285 (Sep 12 2016) obj\Debug\gpi   8-8-2021  22:26:03          PAGE 51


LOC    OBJECT CODE    LINE  SOURCE TEXT
  VALUE

                      02631 ;;; /home/sdcc-builder/build/sdcc-build/orig/sdcc/src/pic14/gen.c:7192:genAssign *{*
                      02632 ;; ***  genAssign  7193
                      02633 ;; ***  aopForSym 324
                      02634 ;;      336 sym->rname = _PORTE, size = 1
                      02635 ;;      708 register type nRegs=1
                      02636 ;;      line = 7202 result AOP_REG=r0x105A, size=1, left -=-, size=0, right AOP_DIR=_PORTE, size=1
                      02637 ;; ***  genAssign  7268
                      02638 ;; WARNING      genAssign  7277 ignoring register storage
                      02639 ;; ***  genAssign  7286
                      02640 ;;; /home/sdcc-builder/build/sdcc-build/orig/sdcc/src/pic14/gen.c:1357:mov2w_op *{*
                      02641 ;; ***  mov2w  1395  offset=0
                      02642 ;; >>> /home/sdcc-builder/build/sdcc-build/orig/sdcc/src/pic14/gen.c:1400:mov2w
                      02643 ;;      1027
                      02644 ;;      1045  _PORTE   offset=0
0037                  02645 _00261_DS_:
                      02646         .line   147; "gpio.c"   ret=  ReadRegisterValue(PORTE) ;
0037   0??? 0???      02647         BANKSEL _PORTE
0039   08??           02648         MOVF    _PORTE,W
                      02649 ;; >>> /home/sdcc-builder/build/sdcc-build/orig/sdcc/src/pic14/gen.c:7313:genAssign
                      02650 ;;      1126 rIdx = r0x105A 
003A   0??? 0???      02651         BANKSEL r0x100F
003C   00??           02652         MOVWF   r0x100F
                      02653 ;;; /home/sdcc-builder/build/sdcc-build/orig/sdcc/src/pic14/gen.c:2358:resultRemat *{*
                      02654 ;;; /home/sdcc-builder/build/sdcc-build/orig/sdcc/src/pic14/gen.c:2802:genLabel *{*
                      02655 ;; ***  genLabel  2805
                      02656 ;;; /home/sdcc-builder/build/sdcc-build/orig/sdcc/src/pic14/gen.c:2358:resultRemat *{*
                      02657 ;;; /home/sdcc-builder/build/sdcc-build/orig/sdcc/src/pic14/gen.c:2725:genRet *{*
                      02658 ;; ***  genRet  2727
                      02659 ;;      708 register type nRegs=1
                      02660 ;;; /home/sdcc-builder/build/sdcc-build/orig/sdcc/src/pic14/gen.c:1357:mov2w_op *{*
                      02661 ;; ***  mov2w  1395  offset=0
                      02662 ;; >>> /home/sdcc-builder/build/sdcc-build/orig/sdcc/src/pic14/gen.c:1400:mov2w
                      02663 ;;      1126 rIdx = r0x105A 
003D                  02664 _00263_DS_:
                      02665         .line   153; "gpio.c"   return ret ;
003D   0??? 0???      02666         BANKSEL r0x100F
003F   08??           02667         MOVF    r0x100F,W
                      02668 ;;; /home/sdcc-builder/build/sdcc-build/orig/sdcc/src/pic14/gen.c:2358:resultRemat *{*
                      02669 ;;; /home/sdcc-builder/build/sdcc-build/orig/sdcc/src/pic14/gen.c:2802:genLabel *{*
                      02670 ;; ***  genLabel  2805
                      02671 ;;; /home/sdcc-builder/build/sdcc-build/orig/sdcc/src/pic14/gen.c:2358:resultRemat *{*
                      02672 ;;; /home/sdcc-builder/build/sdcc-build/orig/sdcc/src/pic14/gen.c:2570:genEndFunction *{*
                      02673 ;; ***  genEndFunction  2572
                      02674         .line   154; "gpio.c"   }
0040   0008           02675         RETURN  
                      02676 ; exit point of _GPIO_GetPortData
                      02677 ;;; /home/sdcc-builder/build/sdcc-build/orig/sdcc/src/pic14/gen.c:7710:genpic14Code *{*
                      02678 
                      02679 ;***
                      02680 ;  pBlock Stats: dbName = C
                      02681 ;***
                      02682 ;has an exit
                      02683 ;6 compiler assigned registers:
gpasm-1.5.0 #1285 (Sep 12 2016) obj\Debug\gpi   8-8-2021  22:26:03          PAGE 52


LOC    OBJECT CODE    LINE  SOURCE TEXT
  VALUE

                      02684 ;   r0x1010
                      02685 ;   STK00
                      02686 ;   r0x1011
                      02687 ;   STK01
                      02688 ;   r0x1012
                      02689 ;   r0x1013
                      02690 ;; Starting pCode block
                      02691 ;;; /home/sdcc-builder/build/sdcc-build/orig/sdcc/src/pic14/gen.c:2358:resultRemat *{*
                      02692 ;;; /home/sdcc-builder/build/sdcc-build/orig/sdcc/src/pic14/gen.c:2802:genLabel *{*
                      02693 ;; ***  genLabel  2805
                      02694 ;;; /home/sdcc-builder/build/sdcc-build/orig/sdcc/src/pic14/gen.c:2358:resultRemat *{*
                      02695 ;;; /home/sdcc-builder/build/sdcc-build/orig/sdcc/src/pic14/gen.c:2382:genFunction *{*
                      02696 ;; ***  genFunction  2384 curr label offset=58previous max_key=45 
                      02697 S_gpio__GPIO_SetPinDirection    code
0000                  02698 _GPIO_SetPinDirection:
                      02699 ; 2 exit points
                      02700 ;;; /home/sdcc-builder/build/sdcc-build/orig/sdcc/src/pic14/gen.c:2358:resultRemat *{*
                      02701 ;;; /home/sdcc-builder/build/sdcc-build/orig/sdcc/src/pic14/gen.c:7642:genReceive *{*
                      02702 ;; ***  genReceive  7643
                      02703 ;;      708 register type nRegs=1
                      02704 ;;; /home/sdcc-builder/build/sdcc-build/orig/sdcc/src/pic14/gen.c:1929:assignResultValue *{*
                      02705 ;; ***  assignResultValue  1931
                      02706 ;;      line = 1933 result -=-, size=0, left AOP_REG=r0x1055, size=1, right -=-, size=0
                      02707 ;; >>> /home/sdcc-builder/build/sdcc-build/orig/sdcc/src/pic14/gen.c:1407:movwf
                      02708 ;;      1126 rIdx = r0x1055 
                      02709         .line   105; "gpio.c"   void GPIO_SetPinDirection(tPORT port, tPIN pin ,tPIN_DIRECTION direction
                            )
0000   0??? 0???      02710         BANKSEL r0x1010
0002   00??           02711         MOVWF   r0x1010
                      02712 ;;; /home/sdcc-builder/build/sdcc-build/orig/sdcc/src/pic14/gen.c:2358:resultRemat *{*
                      02713 ;;; /home/sdcc-builder/build/sdcc-build/orig/sdcc/src/pic14/gen.c:7642:genReceive *{*
                      02714 ;; ***  genReceive  7643
                      02715 ;;      708 register type nRegs=1
                      02716 ;;; /home/sdcc-builder/build/sdcc-build/orig/sdcc/src/pic14/gen.c:1929:assignResultValue *{*
                      02717 ;; ***  assignResultValue  1931
                      02718 ;;      line = 1933 result -=-, size=0, left AOP_REG=r0x1056, size=1, right -=-, size=0
                      02719 ;; >>> /home/sdcc-builder/build/sdcc-build/orig/sdcc/src/pic14/gen.c:1437:get_returnvalue
                      02720 ;; ***  popRegFromIdx,1059  , rIdx=0x7f
0003   08??           02721         MOVF    STK00,W
                      02722 ;; >>> /home/sdcc-builder/build/sdcc-build/orig/sdcc/src/pic14/gen.c:1407:movwf
                      02723 ;;      1126 rIdx = r0x1056 
0004   00??           02724         MOVWF   r0x1011
                      02725 ;;; /home/sdcc-builder/build/sdcc-build/orig/sdcc/src/pic14/gen.c:2358:resultRemat *{*
                      02726 ;;; /home/sdcc-builder/build/sdcc-build/orig/sdcc/src/pic14/gen.c:7642:genReceive *{*
                      02727 ;; ***  genReceive  7643
                      02728 ;;      708 register type nRegs=1
                      02729 ;;; /home/sdcc-builder/build/sdcc-build/orig/sdcc/src/pic14/gen.c:1929:assignResultValue *{*
                      02730 ;; ***  assignResultValue  1931
                      02731 ;;      line = 1933 result -=-, size=0, left AOP_REG=r0x1057, size=1, right -=-, size=0
                      02732 ;; >>> /home/sdcc-builder/build/sdcc-build/orig/sdcc/src/pic14/gen.c:1437:get_returnvalue
                      02733 ;; ***  popRegFromIdx,1059  , rIdx=0x7e
0005   08??           02734         MOVF    STK01,W
                      02735 ;; >>> /home/sdcc-builder/build/sdcc-build/orig/sdcc/src/pic14/gen.c:1407:movwf
gpasm-1.5.0 #1285 (Sep 12 2016) obj\Debug\gpi   8-8-2021  22:26:03          PAGE 53


LOC    OBJECT CODE    LINE  SOURCE TEXT
  VALUE

                      02736 ;;      1126 rIdx = r0x1057 
0006   00??           02737         MOVWF   r0x1012
                      02738 ;;; /home/sdcc-builder/build/sdcc-build/orig/sdcc/src/pic14/gen.c:2358:resultRemat *{*
                      02739 ;;; /home/sdcc-builder/build/sdcc-build/orig/sdcc/src/pic14/gen.c:3616:genCmpGt *{*
                      02740 ;; ***  genCmpGt  3617
                      02741 ;;      708 register type nRegs=1
                      02742 ;;; /home/sdcc-builder/build/sdcc-build/orig/sdcc/src/pic14/gen.c:3354:genCmp *{*
                      02743 ;;swapping arguments (AOP_TYPEs 1/2)
                      02744 ;;unsigned compare: left >= lit(0x5=5), size=1
                      02745 ;; >>> /home/sdcc-builder/build/sdcc-build/orig/sdcc/src/pic14/gen.c:3325:pic14_mov2w_regOrLit
                      02746         .line   107; "gpio.c"   switch(port)
0007   3005           02747         MOVLW   0x05
                      02748 ;; >>> /home/sdcc-builder/build/sdcc-build/orig/sdcc/src/pic14/gen.c:3492:genCmp
                      02749 ;;      1126 rIdx = r0x1055 
0008   02??           02750         SUBWF   r0x1010,W
                      02751 ;;; /home/sdcc-builder/build/sdcc-build/orig/sdcc/src/pic14/gen.c:3297:genSkipc *{*
                      02752 ;; >>> /home/sdcc-builder/build/sdcc-build/orig/sdcc/src/pic14/gen.c:3302:genSkipc
0009   1803           02753         BTFSC   STATUS,0
                      02754 ;; >>> /home/sdcc-builder/build/sdcc-build/orig/sdcc/src/pic14/gen.c:3306:genSkipc
                      02755 ;; ***  popGetLabel  key=8, label offset 107
000A   2???           02756         GOTO    _00215_DS_
                      02757 ;;genSkipc:3307: created from rifx:0000000000BC9340
                      02758 ;;; /home/sdcc-builder/build/sdcc-build/orig/sdcc/src/pic14/gen.c:2358:resultRemat *{*
                      02759 ;;; /home/sdcc-builder/build/sdcc-build/orig/sdcc/src/pic14/gen.c:2358:resultRemat *{*
                      02760 ;;; /home/sdcc-builder/build/sdcc-build/orig/sdcc/src/pic14/gen.c:7337:genJumpTab *{*
                      02761 ;; ***  genJumpTab  7338
                      02762 ;;      708 register type nRegs=1
                      02763 ;; >>> /home/sdcc-builder/build/sdcc-build/orig/sdcc/src/pic14/gen.c:7353:genJumpTab
                      02764 ;; ***  popGetLabel  key=15, label offset 107
000B   30??           02765         MOVLW   HIGH(_00222_DS_)
                      02766 ;; >>> /home/sdcc-builder/build/sdcc-build/orig/sdcc/src/pic14/gen.c:7354:genJumpTab
000C   1283 1303      02767         BANKSEL PCLATH
000E   008A           02768         MOVWF   PCLATH
                      02769 ;; >>> /home/sdcc-builder/build/sdcc-build/orig/sdcc/src/pic14/gen.c:7355:genJumpTab
                      02770 ;; ***  popGetLabel  key=15, label offset 107
000F   30??           02771         MOVLW   _00222_DS_
                      02772 ;; >>> /home/sdcc-builder/build/sdcc-build/orig/sdcc/src/pic14/gen.c:7356:genJumpTab
                      02773 ;;      1126 rIdx = r0x1055 
0010   0??? 0???      02774         BANKSEL r0x1010
0012   07??           02775         ADDWF   r0x1010,W
                      02776 ;; >>> /home/sdcc-builder/build/sdcc-build/orig/sdcc/src/pic14/gen.c:7357:genJumpTab
0013   1C03           02777         BTFSS   STATUS,0
0014   2???           02778         GOTO    _00005_DS_
                      02779 ;; >>> /home/sdcc-builder/build/sdcc-build/orig/sdcc/src/pic14/gen.c:7358:genJumpTab
0015   1283 1303      02780         BANKSEL PCLATH
0017   0A8A           02781         INCF    PCLATH,F
                      02782 ;; >>> /home/sdcc-builder/build/sdcc-build/orig/sdcc/src/pic14/gen.c:7359:genJumpTab
0018                  02783 _00005_DS_:
0018   0082           02784         MOVWF   PCL
                      02785 ;; >>> /home/sdcc-builder/build/sdcc-build/orig/sdcc/src/pic14/gen.c:7368:genJumpTab
                      02786 ;; ***  popGetLabel  key=1, label offset 107
0019                  02787 _00222_DS_:
0019   2???           02788         GOTO    _00208_DS_
gpasm-1.5.0 #1285 (Sep 12 2016) obj\Debug\gpi   8-8-2021  22:26:03          PAGE 54


LOC    OBJECT CODE    LINE  SOURCE TEXT
  VALUE

                      02789 ;; >>> /home/sdcc-builder/build/sdcc-build/orig/sdcc/src/pic14/gen.c:7368:genJumpTab
                      02790 ;; ***  popGetLabel  key=2, label offset 107
001A   2???           02791         GOTO    _00209_DS_
                      02792 ;; >>> /home/sdcc-builder/build/sdcc-build/orig/sdcc/src/pic14/gen.c:7368:genJumpTab
                      02793 ;; ***  popGetLabel  key=3, label offset 107
001B   2???           02794         GOTO    _00210_DS_
                      02795 ;; >>> /home/sdcc-builder/build/sdcc-build/orig/sdcc/src/pic14/gen.c:7368:genJumpTab
                      02796 ;; ***  popGetLabel  key=4, label offset 107
001C   2???           02797         GOTO    _00211_DS_
                      02798 ;; >>> /home/sdcc-builder/build/sdcc-build/orig/sdcc/src/pic14/gen.c:7368:genJumpTab
                      02799 ;; ***  popGetLabel  key=5, label offset 107
001D   2???           02800         GOTO    _00212_DS_
                      02801 ;;; /home/sdcc-builder/build/sdcc-build/orig/sdcc/src/pic14/gen.c:2358:resultRemat *{*
                      02802 ;;; /home/sdcc-builder/build/sdcc-build/orig/sdcc/src/pic14/gen.c:2802:genLabel *{*
                      02803 ;; ***  genLabel  2805
                      02804 ;;; /home/sdcc-builder/build/sdcc-build/orig/sdcc/src/pic14/gen.c:2358:resultRemat *{*
                      02805 ;;; /home/sdcc-builder/build/sdcc-build/orig/sdcc/src/pic14/gen.c:7386:genCast *{*
                      02806 ;; ***  genCast  7387
                      02807 ;;      708 register type nRegs=1
                      02808 ;;      708 register type nRegs=1
                      02809 ;;      line = 7395 result AOP_REG=r0x1055, size=1, left -=-, size=0, right AOP_REG=r0x1056, size=1
                      02810 ;; ***  genCast  7537
                      02811 ;; >>> /home/sdcc-builder/build/sdcc-build/orig/sdcc/src/pic14/gen.c:7561:genCast
                      02812 ;;      1126 rIdx = r0x1056 
001E                  02813 _00208_DS_:
                      02814         .line   110; "gpio.c"   SetRegisterPin(TRISA,pin,direction) ;
001E   0??? 0???      02815         BANKSEL r0x1011
                      02816 ;;118   MOVF    r0x1011,W
                      02817 ;; >>> /home/sdcc-builder/build/sdcc-build/orig/sdcc/src/pic14/gen.c:7562:genCast
                      02818 ;;      1126 rIdx = r0x1055 
                      02819 ;;; /home/sdcc-builder/build/sdcc-build/orig/sdcc/src/pic14/gen.c:2358:resultRemat *{*
                      02820 ;;; /home/sdcc-builder/build/sdcc-build/orig/sdcc/src/pic14/gen.c:5667:genGenericShift *{*
                      02821 ;; ***  genGenericShift  5670
                      02822 ;;      708 register type nRegs=1
                      02823 ;;      708 register type nRegs=1
                      02824 ;; ***  mov2w  1395  offset=0
                      02825 ;; >>> /home/sdcc-builder/build/sdcc-build/orig/sdcc/src/pic14/gen.c:1398:mov2w
0020   3001           02826         MOVLW   0x01
                      02827 ;; >>> /home/sdcc-builder/build/sdcc-build/orig/sdcc/src/pic14/gen.c:1407:movwf
                      02828 ;;      1126 rIdx = r0x1058 
0021   00??           02829         MOVWF   r0x1013
                      02830 ;; ***  addSign  1087
                      02831 ;;; /home/sdcc-builder/build/sdcc-build/orig/sdcc/src/pic14/genarith.c:1088:addSign *{*
                      02832 ;; ***  mov2w  1395  offset=0
                      02833 ;; >>> /home/sdcc-builder/build/sdcc-build/orig/sdcc/src/pic14/gen.c:1400:mov2w
                      02834 ;;      1126 rIdx = r0x1055 
                      02835 ;;117   MOVF    r0x1010,W
0022   08??           02836         MOVF    r0x1011,W
0023   00??           02837         MOVWF   r0x1010
                      02838 ;; >>> /home/sdcc-builder/build/sdcc-build/orig/sdcc/src/pic14/gen.c:5738:genGenericShift
0024   1B??           02839         BTFSC   r0x1010,7
                      02840 ;; >>> /home/sdcc-builder/build/sdcc-build/orig/sdcc/src/pic14/gen.c:5739:genGenericShift
                      02841 ;; ***  popGetLabel  key=18, label offset 107
gpasm-1.5.0 #1285 (Sep 12 2016) obj\Debug\gpi   8-8-2021  22:26:03          PAGE 55


LOC    OBJECT CODE    LINE  SOURCE TEXT
  VALUE

0025   2???           02842         GOTO    _00226_DS_
                      02843 ;; >>> /home/sdcc-builder/build/sdcc-build/orig/sdcc/src/pic14/gen.c:5741:genGenericShift
0026   3C00           02844         SUBLW   0x00
                      02845 ;; >>> /home/sdcc-builder/build/sdcc-build/orig/sdcc/src/pic14/gen.c:5743:genGenericShift
0027   1903           02846         BTFSC   STATUS,2
                      02847 ;; >>> /home/sdcc-builder/build/sdcc-build/orig/sdcc/src/pic14/gen.c:5744:genGenericShift
                      02848 ;; ***  popGetLabel  key=17, label offset 107
0028   2???           02849         GOTO    _00224_DS_
                      02850 ;;; /home/sdcc-builder/build/sdcc-build/orig/sdcc/src/pic14/gen.c:5618:genMultiAsm *{*
                      02851 ;; ***  genMultiAsm  5619
                      02852 ;; >>> /home/sdcc-builder/build/sdcc-build/orig/sdcc/src/pic14/gen.c:5636:genMultiAsm
                      02853 ;;      1126 rIdx = r0x1058 
0029                  02854 _00223_DS_:
0029   0??? 0???      02855         BANKSEL r0x1013
002B   0D??           02856         RLF     r0x1013,F
                      02857 ;; >>> /home/sdcc-builder/build/sdcc-build/orig/sdcc/src/pic14/gen.c:5750:genGenericShift
002C   3E01           02858         ADDLW   0x01
                      02859 ;; >>> /home/sdcc-builder/build/sdcc-build/orig/sdcc/src/pic14/gen.c:5751:genGenericShift
002D   1C03           02860         BTFSS   STATUS,0
                      02861 ;; >>> /home/sdcc-builder/build/sdcc-build/orig/sdcc/src/pic14/gen.c:5752:genGenericShift
                      02862 ;; ***  popGetLabel  key=16, label offset 107
002E   2???           02863         GOTO    _00223_DS_
                      02864 ;; >>> /home/sdcc-builder/build/sdcc-build/orig/sdcc/src/pic14/gen.c:5761:genGenericShift
                      02865 ;; ***  popGetLabel  key=17, label offset 107
002F   2???           02866         GOTO    _00224_DS_
                      02867 ;;; /home/sdcc-builder/build/sdcc-build/orig/sdcc/src/pic14/gen.c:5649:loadSignToC *{*
                      02868 ;; >>> /home/sdcc-builder/build/sdcc-build/orig/sdcc/src/pic14/gen.c:5652:loadSignToC
0030                  02869 _00226_DS_:
0030   1003           02870         BCF     STATUS,0
                      02871 ;; >>> /home/sdcc-builder/build/sdcc-build/orig/sdcc/src/pic14/gen.c:5653:loadSignToC
0031   0??? 0???      02872         BANKSEL r0x1013
0033   1B??           02873         BTFSC   r0x1013,7
                      02874 ;; >>> /home/sdcc-builder/build/sdcc-build/orig/sdcc/src/pic14/gen.c:5654:loadSignToC
0034   1403           02875         BSF     STATUS,0
                      02876 ;;; /home/sdcc-builder/build/sdcc-build/orig/sdcc/src/pic14/gen.c:5618:genMultiAsm *{*
                      02877 ;; ***  genMultiAsm  5619
                      02878 ;; >>> /home/sdcc-builder/build/sdcc-build/orig/sdcc/src/pic14/gen.c:5636:genMultiAsm
                      02879 ;;      1126 rIdx = r0x1058 
0035   0C??           02880         RRF     r0x1013,F
                      02881 ;; >>> /home/sdcc-builder/build/sdcc-build/orig/sdcc/src/pic14/gen.c:5772:genGenericShift
0036   3E01           02882         ADDLW   0x01
                      02883 ;; >>> /home/sdcc-builder/build/sdcc-build/orig/sdcc/src/pic14/gen.c:5773:genGenericShift
0037   1C03           02884         BTFSS   STATUS,0
                      02885 ;; >>> /home/sdcc-builder/build/sdcc-build/orig/sdcc/src/pic14/gen.c:5774:genGenericShift
                      02886 ;; ***  popGetLabel  key=19, label offset 107
0038   2???           02887         GOTO    _00226_DS_
                      02888 ;;; /home/sdcc-builder/build/sdcc-build/orig/sdcc/src/pic14/gen.c:2358:resultRemat *{*
                      02889 ;;; /home/sdcc-builder/build/sdcc-build/orig/sdcc/src/pic14/gen.c:1609:genCpl *{*
                      02890 ;; ***  genCpl  1611
                      02891 ;;      708 register type nRegs=1
                      02892 ;;      708 register type nRegs=1
                      02893 ;; >>> /home/sdcc-builder/build/sdcc-build/orig/sdcc/src/pic14/gen.c:1631:genCpl
                      02894 ;;      1126 rIdx = r0x1058 
gpasm-1.5.0 #1285 (Sep 12 2016) obj\Debug\gpi   8-8-2021  22:26:03          PAGE 56


LOC    OBJECT CODE    LINE  SOURCE TEXT
  VALUE

0039                  02895 _00224_DS_:
0039   0??? 0???      02896         BANKSEL r0x1013
003B   09??           02897         COMF    r0x1013,W
                      02898 ;; >>> /home/sdcc-builder/build/sdcc-build/orig/sdcc/src/pic14/gen.c:1632:genCpl
                      02899 ;;      1126 rIdx = r0x1055 
003C   00??           02900         MOVWF   r0x1010
                      02901 ;; ***  addSign  1087
                      02902 ;;; /home/sdcc-builder/build/sdcc-build/orig/sdcc/src/pic14/genarith.c:1088:addSign *{*
                      02903 ;;; /home/sdcc-builder/build/sdcc-build/orig/sdcc/src/pic14/gen.c:2358:resultRemat *{*
                      02904 ;;; /home/sdcc-builder/build/sdcc-build/orig/sdcc/src/pic14/gen.c:4023:genAnd *{*
                      02905 ;; ***  genAnd  4024
                      02906 ;; ***  aopForSym 324
                      02907 ;;      336 sym->rname = _TRISA, size = 1
                      02908 ;;      708 register type nRegs=1
                      02909 ;;      708 register type nRegs=1
                      02910 ;;      line = 4059 result AOP_REG=r0x1055, size=1, left AOP_REG=r0x1055, size=1, right AOP_DIR=_TRISA, 
                            size=1
                      02911 ;; >>> /home/sdcc-builder/build/sdcc-build/orig/sdcc/src/pic14/gen.c:4241:genAnd
                      02912 ;;      1027
                      02913 ;;      1045  _TRISA   offset=0
003D   0??? 0???      02914         BANKSEL _TRISA
003F   08??           02915         MOVF    _TRISA,W
                      02916 ;; >>> /home/sdcc-builder/build/sdcc-build/orig/sdcc/src/pic14/gen.c:4242:genAnd
                      02917 ;;      1126 rIdx = r0x1055 
0040   0??? 0???      02918         BANKSEL r0x1010
0042   05??           02919         ANDWF   r0x1010,F
                      02920 ;;; /home/sdcc-builder/build/sdcc-build/orig/sdcc/src/pic14/gen.c:2358:resultRemat *{*
                      02921 ;;; /home/sdcc-builder/build/sdcc-build/orig/sdcc/src/pic14/gen.c:5667:genGenericShift *{*
                      02922 ;; ***  genGenericShift  5670
                      02923 ;;      708 register type nRegs=1
                      02924 ;;      708 register type nRegs=1
                      02925 ;;      708 register type nRegs=1
                      02926 ;; ***  mov2w  1395  offset=0
                      02927 ;; >>> /home/sdcc-builder/build/sdcc-build/orig/sdcc/src/pic14/gen.c:1400:mov2w
                      02928 ;;      1126 rIdx = r0x1057 
0043   08??           02929         MOVF    r0x1012,W
                      02930 ;; >>> /home/sdcc-builder/build/sdcc-build/orig/sdcc/src/pic14/gen.c:1407:movwf
                      02931 ;;      1126 rIdx = r0x1058 
0044   00??           02932         MOVWF   r0x1013
                      02933 ;; ***  addSign  1087
                      02934 ;;; /home/sdcc-builder/build/sdcc-build/orig/sdcc/src/pic14/genarith.c:1088:addSign *{*
                      02935 ;; ***  mov2w  1395  offset=0
                      02936 ;; >>> /home/sdcc-builder/build/sdcc-build/orig/sdcc/src/pic14/gen.c:1400:mov2w
                      02937 ;;      1126 rIdx = r0x1056 
0045   08??           02938         MOVF    r0x1011,W
                      02939 ;; >>> /home/sdcc-builder/build/sdcc-build/orig/sdcc/src/pic14/gen.c:5741:genGenericShift
0046   3C00           02940         SUBLW   0x00
                      02941 ;; >>> /home/sdcc-builder/build/sdcc-build/orig/sdcc/src/pic14/gen.c:5743:genGenericShift
0047   1903           02942         BTFSC   STATUS,2
                      02943 ;; >>> /home/sdcc-builder/build/sdcc-build/orig/sdcc/src/pic14/gen.c:5744:genGenericShift
                      02944 ;; ***  popGetLabel  key=21, label offset 107
0048   2???           02945         GOTO    _00228_DS_
                      02946 ;;; /home/sdcc-builder/build/sdcc-build/orig/sdcc/src/pic14/gen.c:5618:genMultiAsm *{*
gpasm-1.5.0 #1285 (Sep 12 2016) obj\Debug\gpi   8-8-2021  22:26:03          PAGE 57


LOC    OBJECT CODE    LINE  SOURCE TEXT
  VALUE

                      02947 ;; ***  genMultiAsm  5619
                      02948 ;; >>> /home/sdcc-builder/build/sdcc-build/orig/sdcc/src/pic14/gen.c:5636:genMultiAsm
                      02949 ;;      1126 rIdx = r0x1058 
0049                  02950 _00227_DS_:
0049   0??? 0???      02951         BANKSEL r0x1013
004B   0D??           02952         RLF     r0x1013,F
                      02953 ;; >>> /home/sdcc-builder/build/sdcc-build/orig/sdcc/src/pic14/gen.c:5750:genGenericShift
004C   3E01           02954         ADDLW   0x01
                      02955 ;; >>> /home/sdcc-builder/build/sdcc-build/orig/sdcc/src/pic14/gen.c:5751:genGenericShift
004D   1C03           02956         BTFSS   STATUS,0
                      02957 ;; >>> /home/sdcc-builder/build/sdcc-build/orig/sdcc/src/pic14/gen.c:5752:genGenericShift
                      02958 ;; ***  popGetLabel  key=20, label offset 107
004E   2???           02959         GOTO    _00227_DS_
                      02960 ;;; /home/sdcc-builder/build/sdcc-build/orig/sdcc/src/pic14/gen.c:2358:resultRemat *{*
                      02961 ;;; /home/sdcc-builder/build/sdcc-build/orig/sdcc/src/pic14/gen.c:4324:genOr *{*
                      02962 ;; ***  genOr  4325
                      02963 ;;      708 register type nRegs=1
                      02964 ;;      708 register type nRegs=1
                      02965 ;; ***  aopForSym 324
                      02966 ;;      336 sym->rname = _TRISA, size = 1
                      02967 ;;      line = 4331 result AOP_DIR=_TRISA, size=1, left AOP_REG=r0x1055, size=1, right AOP_REG=r0x1058, 
                            size=1
                      02968 ;;      line = 4357 result AOP_DIR=_TRISA, size=1, left AOP_REG=r0x1055, size=1, right AOP_REG=r0x1058, 
                            size=1
                      02969 ;; >>> /home/sdcc-builder/build/sdcc-build/orig/sdcc/src/pic14/gen.c:4583:genOr
                      02970 ;;      1126 rIdx = r0x1058 
004F                  02971 _00228_DS_:
004F   0??? 0???      02972         BANKSEL r0x1013
0051   08??           02973         MOVF    r0x1013,W
                      02974 ;; >>> /home/sdcc-builder/build/sdcc-build/orig/sdcc/src/pic14/gen.c:4584:genOr
                      02975 ;;      1126 rIdx = r0x1055 
0052   04??           02976         IORWF   r0x1010,W
                      02977 ;; >>> /home/sdcc-builder/build/sdcc-build/orig/sdcc/src/pic14/gen.c:4585:genOr
                      02978 ;;      1027
                      02979 ;;      1045  _TRISA   offset=0
0053   0??? 0???      02980         BANKSEL _TRISA
0055   00??           02981         MOVWF   _TRISA
                      02982 ;;; /home/sdcc-builder/build/sdcc-build/orig/sdcc/src/pic14/gen.c:2358:resultRemat *{*
                      02983 ;;; /home/sdcc-builder/build/sdcc-build/orig/sdcc/src/pic14/gen.c:2820:genGoto *{*
                      02984 ;; >>> /home/sdcc-builder/build/sdcc-build/orig/sdcc/src/pic14/gen.c:2822:genGoto
                      02985 ;; ***  popGetLabel  key=8, label offset 107
                      02986         .line   111; "gpio.c"   break;
0056   2???           02987         GOTO    _00215_DS_
                      02988 ;;; /home/sdcc-builder/build/sdcc-build/orig/sdcc/src/pic14/gen.c:2358:resultRemat *{*
                      02989 ;;; /home/sdcc-builder/build/sdcc-build/orig/sdcc/src/pic14/gen.c:2802:genLabel *{*
                      02990 ;; ***  genLabel  2805
                      02991 ;;; /home/sdcc-builder/build/sdcc-build/orig/sdcc/src/pic14/gen.c:2358:resultRemat *{*
                      02992 ;;; /home/sdcc-builder/build/sdcc-build/orig/sdcc/src/pic14/gen.c:7386:genCast *{*
                      02993 ;; ***  genCast  7387
                      02994 ;;      708 register type nRegs=1
                      02995 ;;      708 register type nRegs=1
                      02996 ;;      line = 7395 result AOP_REG=r0x1055, size=1, left -=-, size=0, right AOP_REG=r0x1056, size=1
                      02997 ;; ***  genCast  7537
gpasm-1.5.0 #1285 (Sep 12 2016) obj\Debug\gpi   8-8-2021  22:26:03          PAGE 58


LOC    OBJECT CODE    LINE  SOURCE TEXT
  VALUE

                      02998 ;; >>> /home/sdcc-builder/build/sdcc-build/orig/sdcc/src/pic14/gen.c:7561:genCast
                      02999 ;;      1126 rIdx = r0x1056 
                      03000 ;;114   MOVF    r0x1011,W
                      03001 ;; >>> /home/sdcc-builder/build/sdcc-build/orig/sdcc/src/pic14/gen.c:7562:genCast
                      03002 ;;      1126 rIdx = r0x1055 
                      03003 ;;; /home/sdcc-builder/build/sdcc-build/orig/sdcc/src/pic14/gen.c:2358:resultRemat *{*
                      03004 ;;; /home/sdcc-builder/build/sdcc-build/orig/sdcc/src/pic14/gen.c:5667:genGenericShift *{*
                      03005 ;; ***  genGenericShift  5670
                      03006 ;;      708 register type nRegs=1
                      03007 ;;      708 register type nRegs=1
                      03008 ;; ***  mov2w  1395  offset=0
                      03009 ;; >>> /home/sdcc-builder/build/sdcc-build/orig/sdcc/src/pic14/gen.c:1398:mov2w
0057                  03010 _00209_DS_:
                      03011         .line   113; "gpio.c"   SetRegisterPin(TRISB,pin,direction) ;
0057   3001           03012         MOVLW   0x01
                      03013 ;; >>> /home/sdcc-builder/build/sdcc-build/orig/sdcc/src/pic14/gen.c:1407:movwf
                      03014 ;;      1126 rIdx = r0x1058 
0058   0??? 0???      03015         BANKSEL r0x1013
005A   00??           03016         MOVWF   r0x1013
                      03017 ;; ***  addSign  1087
                      03018 ;;; /home/sdcc-builder/build/sdcc-build/orig/sdcc/src/pic14/genarith.c:1088:addSign *{*
                      03019 ;; ***  mov2w  1395  offset=0
                      03020 ;; >>> /home/sdcc-builder/build/sdcc-build/orig/sdcc/src/pic14/gen.c:1400:mov2w
                      03021 ;;      1126 rIdx = r0x1055 
                      03022 ;;113   MOVF    r0x1010,W
005B   08??           03023         MOVF    r0x1011,W
005C   00??           03024         MOVWF   r0x1010
                      03025 ;; >>> /home/sdcc-builder/build/sdcc-build/orig/sdcc/src/pic14/gen.c:5738:genGenericShift
005D   1B??           03026         BTFSC   r0x1010,7
                      03027 ;; >>> /home/sdcc-builder/build/sdcc-build/orig/sdcc/src/pic14/gen.c:5739:genGenericShift
                      03028 ;; ***  popGetLabel  key=24, label offset 107
005E   2???           03029         GOTO    _00232_DS_
                      03030 ;; >>> /home/sdcc-builder/build/sdcc-build/orig/sdcc/src/pic14/gen.c:5741:genGenericShift
005F   3C00           03031         SUBLW   0x00
                      03032 ;; >>> /home/sdcc-builder/build/sdcc-build/orig/sdcc/src/pic14/gen.c:5743:genGenericShift
0060   1903           03033         BTFSC   STATUS,2
                      03034 ;; >>> /home/sdcc-builder/build/sdcc-build/orig/sdcc/src/pic14/gen.c:5744:genGenericShift
                      03035 ;; ***  popGetLabel  key=23, label offset 107
0061   2???           03036         GOTO    _00230_DS_
                      03037 ;;; /home/sdcc-builder/build/sdcc-build/orig/sdcc/src/pic14/gen.c:5618:genMultiAsm *{*
                      03038 ;; ***  genMultiAsm  5619
                      03039 ;; >>> /home/sdcc-builder/build/sdcc-build/orig/sdcc/src/pic14/gen.c:5636:genMultiAsm
                      03040 ;;      1126 rIdx = r0x1058 
0062                  03041 _00229_DS_:
0062   0??? 0???      03042         BANKSEL r0x1013
0064   0D??           03043         RLF     r0x1013,F
                      03044 ;; >>> /home/sdcc-builder/build/sdcc-build/orig/sdcc/src/pic14/gen.c:5750:genGenericShift
0065   3E01           03045         ADDLW   0x01
                      03046 ;; >>> /home/sdcc-builder/build/sdcc-build/orig/sdcc/src/pic14/gen.c:5751:genGenericShift
0066   1C03           03047         BTFSS   STATUS,0
                      03048 ;; >>> /home/sdcc-builder/build/sdcc-build/orig/sdcc/src/pic14/gen.c:5752:genGenericShift
                      03049 ;; ***  popGetLabel  key=22, label offset 107
0067   2???           03050         GOTO    _00229_DS_
gpasm-1.5.0 #1285 (Sep 12 2016) obj\Debug\gpi   8-8-2021  22:26:03          PAGE 59


LOC    OBJECT CODE    LINE  SOURCE TEXT
  VALUE

                      03051 ;; >>> /home/sdcc-builder/build/sdcc-build/orig/sdcc/src/pic14/gen.c:5761:genGenericShift
                      03052 ;; ***  popGetLabel  key=23, label offset 107
0068   2???           03053         GOTO    _00230_DS_
                      03054 ;;; /home/sdcc-builder/build/sdcc-build/orig/sdcc/src/pic14/gen.c:5649:loadSignToC *{*
                      03055 ;; >>> /home/sdcc-builder/build/sdcc-build/orig/sdcc/src/pic14/gen.c:5652:loadSignToC
0069                  03056 _00232_DS_:
0069   1003           03057         BCF     STATUS,0
                      03058 ;; >>> /home/sdcc-builder/build/sdcc-build/orig/sdcc/src/pic14/gen.c:5653:loadSignToC
006A   0??? 0???      03059         BANKSEL r0x1013
006C   1B??           03060         BTFSC   r0x1013,7
                      03061 ;; >>> /home/sdcc-builder/build/sdcc-build/orig/sdcc/src/pic14/gen.c:5654:loadSignToC
006D   1403           03062         BSF     STATUS,0
                      03063 ;;; /home/sdcc-builder/build/sdcc-build/orig/sdcc/src/pic14/gen.c:5618:genMultiAsm *{*
                      03064 ;; ***  genMultiAsm  5619
                      03065 ;; >>> /home/sdcc-builder/build/sdcc-build/orig/sdcc/src/pic14/gen.c:5636:genMultiAsm
                      03066 ;;      1126 rIdx = r0x1058 
006E   0C??           03067         RRF     r0x1013,F
                      03068 ;; >>> /home/sdcc-builder/build/sdcc-build/orig/sdcc/src/pic14/gen.c:5772:genGenericShift
006F   3E01           03069         ADDLW   0x01
                      03070 ;; >>> /home/sdcc-builder/build/sdcc-build/orig/sdcc/src/pic14/gen.c:5773:genGenericShift
0070   1C03           03071         BTFSS   STATUS,0
                      03072 ;; >>> /home/sdcc-builder/build/sdcc-build/orig/sdcc/src/pic14/gen.c:5774:genGenericShift
                      03073 ;; ***  popGetLabel  key=25, label offset 107
0071   2???           03074         GOTO    _00232_DS_
                      03075 ;;; /home/sdcc-builder/build/sdcc-build/orig/sdcc/src/pic14/gen.c:2358:resultRemat *{*
                      03076 ;;; /home/sdcc-builder/build/sdcc-build/orig/sdcc/src/pic14/gen.c:1609:genCpl *{*
                      03077 ;; ***  genCpl  1611
                      03078 ;;      708 register type nRegs=1
                      03079 ;;      708 register type nRegs=1
                      03080 ;; >>> /home/sdcc-builder/build/sdcc-build/orig/sdcc/src/pic14/gen.c:1631:genCpl
                      03081 ;;      1126 rIdx = r0x1058 
0072                  03082 _00230_DS_:
0072   0??? 0???      03083         BANKSEL r0x1013
0074   09??           03084         COMF    r0x1013,W
                      03085 ;; >>> /home/sdcc-builder/build/sdcc-build/orig/sdcc/src/pic14/gen.c:1632:genCpl
                      03086 ;;      1126 rIdx = r0x1055 
0075   00??           03087         MOVWF   r0x1010
                      03088 ;; ***  addSign  1087
                      03089 ;;; /home/sdcc-builder/build/sdcc-build/orig/sdcc/src/pic14/genarith.c:1088:addSign *{*
                      03090 ;;; /home/sdcc-builder/build/sdcc-build/orig/sdcc/src/pic14/gen.c:2358:resultRemat *{*
                      03091 ;;; /home/sdcc-builder/build/sdcc-build/orig/sdcc/src/pic14/gen.c:4023:genAnd *{*
                      03092 ;; ***  genAnd  4024
                      03093 ;; ***  aopForSym 324
                      03094 ;;      336 sym->rname = _TRISB, size = 1
                      03095 ;;      708 register type nRegs=1
                      03096 ;;      708 register type nRegs=1
                      03097 ;;      line = 4059 result AOP_REG=r0x1055, size=1, left AOP_REG=r0x1055, size=1, right AOP_DIR=_TRISB, 
                            size=1
                      03098 ;; >>> /home/sdcc-builder/build/sdcc-build/orig/sdcc/src/pic14/gen.c:4241:genAnd
                      03099 ;;      1027
                      03100 ;;      1045  _TRISB   offset=0
0076   0??? 0???      03101         BANKSEL _TRISB
0078   08??           03102         MOVF    _TRISB,W
gpasm-1.5.0 #1285 (Sep 12 2016) obj\Debug\gpi   8-8-2021  22:26:03          PAGE 60


LOC    OBJECT CODE    LINE  SOURCE TEXT
  VALUE

                      03103 ;; >>> /home/sdcc-builder/build/sdcc-build/orig/sdcc/src/pic14/gen.c:4242:genAnd
                      03104 ;;      1126 rIdx = r0x1055 
0079   0??? 0???      03105         BANKSEL r0x1010
007B   05??           03106         ANDWF   r0x1010,F
                      03107 ;;; /home/sdcc-builder/build/sdcc-build/orig/sdcc/src/pic14/gen.c:2358:resultRemat *{*
                      03108 ;;; /home/sdcc-builder/build/sdcc-build/orig/sdcc/src/pic14/gen.c:5667:genGenericShift *{*
                      03109 ;; ***  genGenericShift  5670
                      03110 ;;      708 register type nRegs=1
                      03111 ;;      708 register type nRegs=1
                      03112 ;;      708 register type nRegs=1
                      03113 ;; ***  mov2w  1395  offset=0
                      03114 ;; >>> /home/sdcc-builder/build/sdcc-build/orig/sdcc/src/pic14/gen.c:1400:mov2w
                      03115 ;;      1126 rIdx = r0x1057 
007C   08??           03116         MOVF    r0x1012,W
                      03117 ;; >>> /home/sdcc-builder/build/sdcc-build/orig/sdcc/src/pic14/gen.c:1407:movwf
                      03118 ;;      1126 rIdx = r0x1058 
007D   00??           03119         MOVWF   r0x1013
                      03120 ;; ***  addSign  1087
                      03121 ;;; /home/sdcc-builder/build/sdcc-build/orig/sdcc/src/pic14/genarith.c:1088:addSign *{*
                      03122 ;; ***  mov2w  1395  offset=0
                      03123 ;; >>> /home/sdcc-builder/build/sdcc-build/orig/sdcc/src/pic14/gen.c:1400:mov2w
                      03124 ;;      1126 rIdx = r0x1056 
007E   08??           03125         MOVF    r0x1011,W
                      03126 ;; >>> /home/sdcc-builder/build/sdcc-build/orig/sdcc/src/pic14/gen.c:5741:genGenericShift
007F   3C00           03127         SUBLW   0x00
                      03128 ;; >>> /home/sdcc-builder/build/sdcc-build/orig/sdcc/src/pic14/gen.c:5743:genGenericShift
0080   1903           03129         BTFSC   STATUS,2
                      03130 ;; >>> /home/sdcc-builder/build/sdcc-build/orig/sdcc/src/pic14/gen.c:5744:genGenericShift
                      03131 ;; ***  popGetLabel  key=27, label offset 107
0081   2???           03132         GOTO    _00234_DS_
                      03133 ;;; /home/sdcc-builder/build/sdcc-build/orig/sdcc/src/pic14/gen.c:5618:genMultiAsm *{*
                      03134 ;; ***  genMultiAsm  5619
                      03135 ;; >>> /home/sdcc-builder/build/sdcc-build/orig/sdcc/src/pic14/gen.c:5636:genMultiAsm
                      03136 ;;      1126 rIdx = r0x1058 
0082                  03137 _00233_DS_:
0082   0??? 0???      03138         BANKSEL r0x1013
0084   0D??           03139         RLF     r0x1013,F
                      03140 ;; >>> /home/sdcc-builder/build/sdcc-build/orig/sdcc/src/pic14/gen.c:5750:genGenericShift
0085   3E01           03141         ADDLW   0x01
                      03142 ;; >>> /home/sdcc-builder/build/sdcc-build/orig/sdcc/src/pic14/gen.c:5751:genGenericShift
0086   1C03           03143         BTFSS   STATUS,0
                      03144 ;; >>> /home/sdcc-builder/build/sdcc-build/orig/sdcc/src/pic14/gen.c:5752:genGenericShift
                      03145 ;; ***  popGetLabel  key=26, label offset 107
0087   2???           03146         GOTO    _00233_DS_
                      03147 ;;; /home/sdcc-builder/build/sdcc-build/orig/sdcc/src/pic14/gen.c:2358:resultRemat *{*
                      03148 ;;; /home/sdcc-builder/build/sdcc-build/orig/sdcc/src/pic14/gen.c:4324:genOr *{*
                      03149 ;; ***  genOr  4325
                      03150 ;;      708 register type nRegs=1
                      03151 ;;      708 register type nRegs=1
                      03152 ;; ***  aopForSym 324
                      03153 ;;      336 sym->rname = _TRISB, size = 1
                      03154 ;;      line = 4331 result AOP_DIR=_TRISB, size=1, left AOP_REG=r0x1055, size=1, right AOP_REG=r0x1058, 
                            size=1
gpasm-1.5.0 #1285 (Sep 12 2016) obj\Debug\gpi   8-8-2021  22:26:03          PAGE 61


LOC    OBJECT CODE    LINE  SOURCE TEXT
  VALUE

                      03155 ;;      line = 4357 result AOP_DIR=_TRISB, size=1, left AOP_REG=r0x1055, size=1, right AOP_REG=r0x1058, 
                            size=1
                      03156 ;; >>> /home/sdcc-builder/build/sdcc-build/orig/sdcc/src/pic14/gen.c:4583:genOr
                      03157 ;;      1126 rIdx = r0x1058 
0088                  03158 _00234_DS_:
0088   0??? 0???      03159         BANKSEL r0x1013
008A   08??           03160         MOVF    r0x1013,W
                      03161 ;; >>> /home/sdcc-builder/build/sdcc-build/orig/sdcc/src/pic14/gen.c:4584:genOr
                      03162 ;;      1126 rIdx = r0x1055 
008B   04??           03163         IORWF   r0x1010,W
                      03164 ;; >>> /home/sdcc-builder/build/sdcc-build/orig/sdcc/src/pic14/gen.c:4585:genOr
                      03165 ;;      1027
                      03166 ;;      1045  _TRISB   offset=0
008C   0??? 0???      03167         BANKSEL _TRISB
008E   00??           03168         MOVWF   _TRISB
                      03169 ;;; /home/sdcc-builder/build/sdcc-build/orig/sdcc/src/pic14/gen.c:2358:resultRemat *{*
                      03170 ;;; /home/sdcc-builder/build/sdcc-build/orig/sdcc/src/pic14/gen.c:2820:genGoto *{*
                      03171 ;; >>> /home/sdcc-builder/build/sdcc-build/orig/sdcc/src/pic14/gen.c:2822:genGoto
                      03172 ;; ***  popGetLabel  key=8, label offset 107
                      03173         .line   114; "gpio.c"   break;
008F   2???           03174         GOTO    _00215_DS_
                      03175 ;;; /home/sdcc-builder/build/sdcc-build/orig/sdcc/src/pic14/gen.c:2358:resultRemat *{*
                      03176 ;;; /home/sdcc-builder/build/sdcc-build/orig/sdcc/src/pic14/gen.c:2802:genLabel *{*
                      03177 ;; ***  genLabel  2805
                      03178 ;;; /home/sdcc-builder/build/sdcc-build/orig/sdcc/src/pic14/gen.c:2358:resultRemat *{*
                      03179 ;;; /home/sdcc-builder/build/sdcc-build/orig/sdcc/src/pic14/gen.c:7386:genCast *{*
                      03180 ;; ***  genCast  7387
                      03181 ;;      708 register type nRegs=1
                      03182 ;;      708 register type nRegs=1
                      03183 ;;      line = 7395 result AOP_REG=r0x1055, size=1, left -=-, size=0, right AOP_REG=r0x1056, size=1
                      03184 ;; ***  genCast  7537
                      03185 ;; >>> /home/sdcc-builder/build/sdcc-build/orig/sdcc/src/pic14/gen.c:7561:genCast
                      03186 ;;      1126 rIdx = r0x1056 
                      03187 ;;110   MOVF    r0x1011,W
                      03188 ;; >>> /home/sdcc-builder/build/sdcc-build/orig/sdcc/src/pic14/gen.c:7562:genCast
                      03189 ;;      1126 rIdx = r0x1055 
                      03190 ;;; /home/sdcc-builder/build/sdcc-build/orig/sdcc/src/pic14/gen.c:2358:resultRemat *{*
                      03191 ;;; /home/sdcc-builder/build/sdcc-build/orig/sdcc/src/pic14/gen.c:5667:genGenericShift *{*
                      03192 ;; ***  genGenericShift  5670
                      03193 ;;      708 register type nRegs=1
                      03194 ;;      708 register type nRegs=1
                      03195 ;; ***  mov2w  1395  offset=0
                      03196 ;; >>> /home/sdcc-builder/build/sdcc-build/orig/sdcc/src/pic14/gen.c:1398:mov2w
0090                  03197 _00210_DS_:
                      03198         .line   116; "gpio.c"   SetRegisterPin(TRISC,pin,direction) ;
0090   3001           03199         MOVLW   0x01
                      03200 ;; >>> /home/sdcc-builder/build/sdcc-build/orig/sdcc/src/pic14/gen.c:1407:movwf
                      03201 ;;      1126 rIdx = r0x1058 
0091   0??? 0???      03202         BANKSEL r0x1013
0093   00??           03203         MOVWF   r0x1013
                      03204 ;; ***  addSign  1087
                      03205 ;;; /home/sdcc-builder/build/sdcc-build/orig/sdcc/src/pic14/genarith.c:1088:addSign *{*
                      03206 ;; ***  mov2w  1395  offset=0
gpasm-1.5.0 #1285 (Sep 12 2016) obj\Debug\gpi   8-8-2021  22:26:03          PAGE 62


LOC    OBJECT CODE    LINE  SOURCE TEXT
  VALUE

                      03207 ;; >>> /home/sdcc-builder/build/sdcc-build/orig/sdcc/src/pic14/gen.c:1400:mov2w
                      03208 ;;      1126 rIdx = r0x1055 
                      03209 ;;109   MOVF    r0x1010,W
0094   08??           03210         MOVF    r0x1011,W
0095   00??           03211         MOVWF   r0x1010
                      03212 ;; >>> /home/sdcc-builder/build/sdcc-build/orig/sdcc/src/pic14/gen.c:5738:genGenericShift
0096   1B??           03213         BTFSC   r0x1010,7
                      03214 ;; >>> /home/sdcc-builder/build/sdcc-build/orig/sdcc/src/pic14/gen.c:5739:genGenericShift
                      03215 ;; ***  popGetLabel  key=30, label offset 107
0097   2???           03216         GOTO    _00238_DS_
                      03217 ;; >>> /home/sdcc-builder/build/sdcc-build/orig/sdcc/src/pic14/gen.c:5741:genGenericShift
0098   3C00           03218         SUBLW   0x00
                      03219 ;; >>> /home/sdcc-builder/build/sdcc-build/orig/sdcc/src/pic14/gen.c:5743:genGenericShift
0099   1903           03220         BTFSC   STATUS,2
                      03221 ;; >>> /home/sdcc-builder/build/sdcc-build/orig/sdcc/src/pic14/gen.c:5744:genGenericShift
                      03222 ;; ***  popGetLabel  key=29, label offset 107
009A   2???           03223         GOTO    _00236_DS_
                      03224 ;;; /home/sdcc-builder/build/sdcc-build/orig/sdcc/src/pic14/gen.c:5618:genMultiAsm *{*
                      03225 ;; ***  genMultiAsm  5619
                      03226 ;; >>> /home/sdcc-builder/build/sdcc-build/orig/sdcc/src/pic14/gen.c:5636:genMultiAsm
                      03227 ;;      1126 rIdx = r0x1058 
009B                  03228 _00235_DS_:
009B   0??? 0???      03229         BANKSEL r0x1013
009D   0D??           03230         RLF     r0x1013,F
                      03231 ;; >>> /home/sdcc-builder/build/sdcc-build/orig/sdcc/src/pic14/gen.c:5750:genGenericShift
009E   3E01           03232         ADDLW   0x01
                      03233 ;; >>> /home/sdcc-builder/build/sdcc-build/orig/sdcc/src/pic14/gen.c:5751:genGenericShift
009F   1C03           03234         BTFSS   STATUS,0
                      03235 ;; >>> /home/sdcc-builder/build/sdcc-build/orig/sdcc/src/pic14/gen.c:5752:genGenericShift
                      03236 ;; ***  popGetLabel  key=28, label offset 107
00A0   2???           03237         GOTO    _00235_DS_
                      03238 ;; >>> /home/sdcc-builder/build/sdcc-build/orig/sdcc/src/pic14/gen.c:5761:genGenericShift
                      03239 ;; ***  popGetLabel  key=29, label offset 107
00A1   2???           03240         GOTO    _00236_DS_
                      03241 ;;; /home/sdcc-builder/build/sdcc-build/orig/sdcc/src/pic14/gen.c:5649:loadSignToC *{*
                      03242 ;; >>> /home/sdcc-builder/build/sdcc-build/orig/sdcc/src/pic14/gen.c:5652:loadSignToC
00A2                  03243 _00238_DS_:
00A2   1003           03244         BCF     STATUS,0
                      03245 ;; >>> /home/sdcc-builder/build/sdcc-build/orig/sdcc/src/pic14/gen.c:5653:loadSignToC
00A3   0??? 0???      03246         BANKSEL r0x1013
00A5   1B??           03247         BTFSC   r0x1013,7
                      03248 ;; >>> /home/sdcc-builder/build/sdcc-build/orig/sdcc/src/pic14/gen.c:5654:loadSignToC
00A6   1403           03249         BSF     STATUS,0
                      03250 ;;; /home/sdcc-builder/build/sdcc-build/orig/sdcc/src/pic14/gen.c:5618:genMultiAsm *{*
                      03251 ;; ***  genMultiAsm  5619
                      03252 ;; >>> /home/sdcc-builder/build/sdcc-build/orig/sdcc/src/pic14/gen.c:5636:genMultiAsm
                      03253 ;;      1126 rIdx = r0x1058 
00A7   0C??           03254         RRF     r0x1013,F
                      03255 ;; >>> /home/sdcc-builder/build/sdcc-build/orig/sdcc/src/pic14/gen.c:5772:genGenericShift
00A8   3E01           03256         ADDLW   0x01
                      03257 ;; >>> /home/sdcc-builder/build/sdcc-build/orig/sdcc/src/pic14/gen.c:5773:genGenericShift
00A9   1C03           03258         BTFSS   STATUS,0
                      03259 ;; >>> /home/sdcc-builder/build/sdcc-build/orig/sdcc/src/pic14/gen.c:5774:genGenericShift
gpasm-1.5.0 #1285 (Sep 12 2016) obj\Debug\gpi   8-8-2021  22:26:03          PAGE 63


LOC    OBJECT CODE    LINE  SOURCE TEXT
  VALUE

                      03260 ;; ***  popGetLabel  key=31, label offset 107
00AA   2???           03261         GOTO    _00238_DS_
                      03262 ;;; /home/sdcc-builder/build/sdcc-build/orig/sdcc/src/pic14/gen.c:2358:resultRemat *{*
                      03263 ;;; /home/sdcc-builder/build/sdcc-build/orig/sdcc/src/pic14/gen.c:1609:genCpl *{*
                      03264 ;; ***  genCpl  1611
                      03265 ;;      708 register type nRegs=1
                      03266 ;;      708 register type nRegs=1
                      03267 ;; >>> /home/sdcc-builder/build/sdcc-build/orig/sdcc/src/pic14/gen.c:1631:genCpl
                      03268 ;;      1126 rIdx = r0x1058 
00AB                  03269 _00236_DS_:
00AB   0??? 0???      03270         BANKSEL r0x1013
00AD   09??           03271         COMF    r0x1013,W
                      03272 ;; >>> /home/sdcc-builder/build/sdcc-build/orig/sdcc/src/pic14/gen.c:1632:genCpl
                      03273 ;;      1126 rIdx = r0x1055 
00AE   00??           03274         MOVWF   r0x1010
                      03275 ;; ***  addSign  1087
                      03276 ;;; /home/sdcc-builder/build/sdcc-build/orig/sdcc/src/pic14/genarith.c:1088:addSign *{*
                      03277 ;;; /home/sdcc-builder/build/sdcc-build/orig/sdcc/src/pic14/gen.c:2358:resultRemat *{*
                      03278 ;;; /home/sdcc-builder/build/sdcc-build/orig/sdcc/src/pic14/gen.c:4023:genAnd *{*
                      03279 ;; ***  genAnd  4024
                      03280 ;; ***  aopForSym 324
                      03281 ;;      336 sym->rname = _TRISC, size = 1
                      03282 ;;      708 register type nRegs=1
                      03283 ;;      708 register type nRegs=1
                      03284 ;;      line = 4059 result AOP_REG=r0x1055, size=1, left AOP_REG=r0x1055, size=1, right AOP_DIR=_TRISC, 
                            size=1
                      03285 ;; >>> /home/sdcc-builder/build/sdcc-build/orig/sdcc/src/pic14/gen.c:4241:genAnd
                      03286 ;;      1027
                      03287 ;;      1045  _TRISC   offset=0
00AF   0??? 0???      03288         BANKSEL _TRISC
00B1   08??           03289         MOVF    _TRISC,W
                      03290 ;; >>> /home/sdcc-builder/build/sdcc-build/orig/sdcc/src/pic14/gen.c:4242:genAnd
                      03291 ;;      1126 rIdx = r0x1055 
00B2   0??? 0???      03292         BANKSEL r0x1010
00B4   05??           03293         ANDWF   r0x1010,F
                      03294 ;;; /home/sdcc-builder/build/sdcc-build/orig/sdcc/src/pic14/gen.c:2358:resultRemat *{*
                      03295 ;;; /home/sdcc-builder/build/sdcc-build/orig/sdcc/src/pic14/gen.c:5667:genGenericShift *{*
                      03296 ;; ***  genGenericShift  5670
                      03297 ;;      708 register type nRegs=1
                      03298 ;;      708 register type nRegs=1
                      03299 ;;      708 register type nRegs=1
                      03300 ;; ***  mov2w  1395  offset=0
                      03301 ;; >>> /home/sdcc-builder/build/sdcc-build/orig/sdcc/src/pic14/gen.c:1400:mov2w
                      03302 ;;      1126 rIdx = r0x1057 
00B5   08??           03303         MOVF    r0x1012,W
                      03304 ;; >>> /home/sdcc-builder/build/sdcc-build/orig/sdcc/src/pic14/gen.c:1407:movwf
                      03305 ;;      1126 rIdx = r0x1058 
00B6   00??           03306         MOVWF   r0x1013
                      03307 ;; ***  addSign  1087
                      03308 ;;; /home/sdcc-builder/build/sdcc-build/orig/sdcc/src/pic14/genarith.c:1088:addSign *{*
                      03309 ;; ***  mov2w  1395  offset=0
                      03310 ;; >>> /home/sdcc-builder/build/sdcc-build/orig/sdcc/src/pic14/gen.c:1400:mov2w
                      03311 ;;      1126 rIdx = r0x1056 
gpasm-1.5.0 #1285 (Sep 12 2016) obj\Debug\gpi   8-8-2021  22:26:03          PAGE 64


LOC    OBJECT CODE    LINE  SOURCE TEXT
  VALUE

00B7   08??           03312         MOVF    r0x1011,W
                      03313 ;; >>> /home/sdcc-builder/build/sdcc-build/orig/sdcc/src/pic14/gen.c:5741:genGenericShift
00B8   3C00           03314         SUBLW   0x00
                      03315 ;; >>> /home/sdcc-builder/build/sdcc-build/orig/sdcc/src/pic14/gen.c:5743:genGenericShift
00B9   1903           03316         BTFSC   STATUS,2
                      03317 ;; >>> /home/sdcc-builder/build/sdcc-build/orig/sdcc/src/pic14/gen.c:5744:genGenericShift
                      03318 ;; ***  popGetLabel  key=33, label offset 107
00BA   2???           03319         GOTO    _00240_DS_
                      03320 ;;; /home/sdcc-builder/build/sdcc-build/orig/sdcc/src/pic14/gen.c:5618:genMultiAsm *{*
                      03321 ;; ***  genMultiAsm  5619
                      03322 ;; >>> /home/sdcc-builder/build/sdcc-build/orig/sdcc/src/pic14/gen.c:5636:genMultiAsm
                      03323 ;;      1126 rIdx = r0x1058 
00BB                  03324 _00239_DS_:
00BB   0??? 0???      03325         BANKSEL r0x1013
00BD   0D??           03326         RLF     r0x1013,F
                      03327 ;; >>> /home/sdcc-builder/build/sdcc-build/orig/sdcc/src/pic14/gen.c:5750:genGenericShift
00BE   3E01           03328         ADDLW   0x01
                      03329 ;; >>> /home/sdcc-builder/build/sdcc-build/orig/sdcc/src/pic14/gen.c:5751:genGenericShift
00BF   1C03           03330         BTFSS   STATUS,0
                      03331 ;; >>> /home/sdcc-builder/build/sdcc-build/orig/sdcc/src/pic14/gen.c:5752:genGenericShift
                      03332 ;; ***  popGetLabel  key=32, label offset 107
00C0   2???           03333         GOTO    _00239_DS_
                      03334 ;;; /home/sdcc-builder/build/sdcc-build/orig/sdcc/src/pic14/gen.c:2358:resultRemat *{*
                      03335 ;;; /home/sdcc-builder/build/sdcc-build/orig/sdcc/src/pic14/gen.c:4324:genOr *{*
                      03336 ;; ***  genOr  4325
                      03337 ;;      708 register type nRegs=1
                      03338 ;;      708 register type nRegs=1
                      03339 ;; ***  aopForSym 324
                      03340 ;;      336 sym->rname = _TRISC, size = 1
                      03341 ;;      line = 4331 result AOP_DIR=_TRISC, size=1, left AOP_REG=r0x1055, size=1, right AOP_REG=r0x1058, 
                            size=1
                      03342 ;;      line = 4357 result AOP_DIR=_TRISC, size=1, left AOP_REG=r0x1055, size=1, right AOP_REG=r0x1058, 
                            size=1
                      03343 ;; >>> /home/sdcc-builder/build/sdcc-build/orig/sdcc/src/pic14/gen.c:4583:genOr
                      03344 ;;      1126 rIdx = r0x1058 
00C1                  03345 _00240_DS_:
00C1   0??? 0???      03346         BANKSEL r0x1013
00C3   08??           03347         MOVF    r0x1013,W
                      03348 ;; >>> /home/sdcc-builder/build/sdcc-build/orig/sdcc/src/pic14/gen.c:4584:genOr
                      03349 ;;      1126 rIdx = r0x1055 
00C4   04??           03350         IORWF   r0x1010,W
                      03351 ;; >>> /home/sdcc-builder/build/sdcc-build/orig/sdcc/src/pic14/gen.c:4585:genOr
                      03352 ;;      1027
                      03353 ;;      1045  _TRISC   offset=0
00C5   0??? 0???      03354         BANKSEL _TRISC
00C7   00??           03355         MOVWF   _TRISC
                      03356 ;;; /home/sdcc-builder/build/sdcc-build/orig/sdcc/src/pic14/gen.c:2358:resultRemat *{*
                      03357 ;;; /home/sdcc-builder/build/sdcc-build/orig/sdcc/src/pic14/gen.c:2820:genGoto *{*
                      03358 ;; >>> /home/sdcc-builder/build/sdcc-build/orig/sdcc/src/pic14/gen.c:2822:genGoto
                      03359 ;; ***  popGetLabel  key=8, label offset 107
                      03360         .line   117; "gpio.c"   break;
00C8   2???           03361         GOTO    _00215_DS_
                      03362 ;;; /home/sdcc-builder/build/sdcc-build/orig/sdcc/src/pic14/gen.c:2358:resultRemat *{*
gpasm-1.5.0 #1285 (Sep 12 2016) obj\Debug\gpi   8-8-2021  22:26:03          PAGE 65


LOC    OBJECT CODE    LINE  SOURCE TEXT
  VALUE

                      03363 ;;; /home/sdcc-builder/build/sdcc-build/orig/sdcc/src/pic14/gen.c:2802:genLabel *{*
                      03364 ;; ***  genLabel  2805
                      03365 ;;; /home/sdcc-builder/build/sdcc-build/orig/sdcc/src/pic14/gen.c:2358:resultRemat *{*
                      03366 ;;; /home/sdcc-builder/build/sdcc-build/orig/sdcc/src/pic14/gen.c:7386:genCast *{*
                      03367 ;; ***  genCast  7387
                      03368 ;;      708 register type nRegs=1
                      03369 ;;      708 register type nRegs=1
                      03370 ;;      line = 7395 result AOP_REG=r0x1055, size=1, left -=-, size=0, right AOP_REG=r0x1056, size=1
                      03371 ;; ***  genCast  7537
                      03372 ;; >>> /home/sdcc-builder/build/sdcc-build/orig/sdcc/src/pic14/gen.c:7561:genCast
                      03373 ;;      1126 rIdx = r0x1056 
                      03374 ;;106   MOVF    r0x1011,W
                      03375 ;; >>> /home/sdcc-builder/build/sdcc-build/orig/sdcc/src/pic14/gen.c:7562:genCast
                      03376 ;;      1126 rIdx = r0x1055 
                      03377 ;;; /home/sdcc-builder/build/sdcc-build/orig/sdcc/src/pic14/gen.c:2358:resultRemat *{*
                      03378 ;;; /home/sdcc-builder/build/sdcc-build/orig/sdcc/src/pic14/gen.c:5667:genGenericShift *{*
                      03379 ;; ***  genGenericShift  5670
                      03380 ;;      708 register type nRegs=1
                      03381 ;;      708 register type nRegs=1
                      03382 ;; ***  mov2w  1395  offset=0
                      03383 ;; >>> /home/sdcc-builder/build/sdcc-build/orig/sdcc/src/pic14/gen.c:1398:mov2w
00C9                  03384 _00211_DS_:
                      03385         .line   119; "gpio.c"   SetRegisterPin(TRISD,pin,direction) ;
00C9   3001           03386         MOVLW   0x01
                      03387 ;; >>> /home/sdcc-builder/build/sdcc-build/orig/sdcc/src/pic14/gen.c:1407:movwf
                      03388 ;;      1126 rIdx = r0x1058 
00CA   0??? 0???      03389         BANKSEL r0x1013
00CC   00??           03390         MOVWF   r0x1013
                      03391 ;; ***  addSign  1087
                      03392 ;;; /home/sdcc-builder/build/sdcc-build/orig/sdcc/src/pic14/genarith.c:1088:addSign *{*
                      03393 ;; ***  mov2w  1395  offset=0
                      03394 ;; >>> /home/sdcc-builder/build/sdcc-build/orig/sdcc/src/pic14/gen.c:1400:mov2w
                      03395 ;;      1126 rIdx = r0x1055 
                      03396 ;;105   MOVF    r0x1010,W
00CD   08??           03397         MOVF    r0x1011,W
00CE   00??           03398         MOVWF   r0x1010
                      03399 ;; >>> /home/sdcc-builder/build/sdcc-build/orig/sdcc/src/pic14/gen.c:5738:genGenericShift
00CF   1B??           03400         BTFSC   r0x1010,7
                      03401 ;; >>> /home/sdcc-builder/build/sdcc-build/orig/sdcc/src/pic14/gen.c:5739:genGenericShift
                      03402 ;; ***  popGetLabel  key=36, label offset 107
00D0   2???           03403         GOTO    _00244_DS_
                      03404 ;; >>> /home/sdcc-builder/build/sdcc-build/orig/sdcc/src/pic14/gen.c:5741:genGenericShift
00D1   3C00           03405         SUBLW   0x00
                      03406 ;; >>> /home/sdcc-builder/build/sdcc-build/orig/sdcc/src/pic14/gen.c:5743:genGenericShift
00D2   1903           03407         BTFSC   STATUS,2
                      03408 ;; >>> /home/sdcc-builder/build/sdcc-build/orig/sdcc/src/pic14/gen.c:5744:genGenericShift
                      03409 ;; ***  popGetLabel  key=35, label offset 107
00D3   2???           03410         GOTO    _00242_DS_
                      03411 ;;; /home/sdcc-builder/build/sdcc-build/orig/sdcc/src/pic14/gen.c:5618:genMultiAsm *{*
                      03412 ;; ***  genMultiAsm  5619
                      03413 ;; >>> /home/sdcc-builder/build/sdcc-build/orig/sdcc/src/pic14/gen.c:5636:genMultiAsm
                      03414 ;;      1126 rIdx = r0x1058 
00D4                  03415 _00241_DS_:
gpasm-1.5.0 #1285 (Sep 12 2016) obj\Debug\gpi   8-8-2021  22:26:03          PAGE 66


LOC    OBJECT CODE    LINE  SOURCE TEXT
  VALUE

00D4   0??? 0???      03416         BANKSEL r0x1013
00D6   0D??           03417         RLF     r0x1013,F
                      03418 ;; >>> /home/sdcc-builder/build/sdcc-build/orig/sdcc/src/pic14/gen.c:5750:genGenericShift
00D7   3E01           03419         ADDLW   0x01
                      03420 ;; >>> /home/sdcc-builder/build/sdcc-build/orig/sdcc/src/pic14/gen.c:5751:genGenericShift
00D8   1C03           03421         BTFSS   STATUS,0
                      03422 ;; >>> /home/sdcc-builder/build/sdcc-build/orig/sdcc/src/pic14/gen.c:5752:genGenericShift
                      03423 ;; ***  popGetLabel  key=34, label offset 107
00D9   2???           03424         GOTO    _00241_DS_
                      03425 ;; >>> /home/sdcc-builder/build/sdcc-build/orig/sdcc/src/pic14/gen.c:5761:genGenericShift
                      03426 ;; ***  popGetLabel  key=35, label offset 107
00DA   2???           03427         GOTO    _00242_DS_
                      03428 ;;; /home/sdcc-builder/build/sdcc-build/orig/sdcc/src/pic14/gen.c:5649:loadSignToC *{*
                      03429 ;; >>> /home/sdcc-builder/build/sdcc-build/orig/sdcc/src/pic14/gen.c:5652:loadSignToC
00DB                  03430 _00244_DS_:
00DB   1003           03431         BCF     STATUS,0
                      03432 ;; >>> /home/sdcc-builder/build/sdcc-build/orig/sdcc/src/pic14/gen.c:5653:loadSignToC
00DC   0??? 0???      03433         BANKSEL r0x1013
00DE   1B??           03434         BTFSC   r0x1013,7
                      03435 ;; >>> /home/sdcc-builder/build/sdcc-build/orig/sdcc/src/pic14/gen.c:5654:loadSignToC
00DF   1403           03436         BSF     STATUS,0
                      03437 ;;; /home/sdcc-builder/build/sdcc-build/orig/sdcc/src/pic14/gen.c:5618:genMultiAsm *{*
                      03438 ;; ***  genMultiAsm  5619
                      03439 ;; >>> /home/sdcc-builder/build/sdcc-build/orig/sdcc/src/pic14/gen.c:5636:genMultiAsm
                      03440 ;;      1126 rIdx = r0x1058 
00E0   0C??           03441         RRF     r0x1013,F
                      03442 ;; >>> /home/sdcc-builder/build/sdcc-build/orig/sdcc/src/pic14/gen.c:5772:genGenericShift
00E1   3E01           03443         ADDLW   0x01
                      03444 ;; >>> /home/sdcc-builder/build/sdcc-build/orig/sdcc/src/pic14/gen.c:5773:genGenericShift
00E2   1C03           03445         BTFSS   STATUS,0
                      03446 ;; >>> /home/sdcc-builder/build/sdcc-build/orig/sdcc/src/pic14/gen.c:5774:genGenericShift
                      03447 ;; ***  popGetLabel  key=37, label offset 107
00E3   2???           03448         GOTO    _00244_DS_
                      03449 ;;; /home/sdcc-builder/build/sdcc-build/orig/sdcc/src/pic14/gen.c:2358:resultRemat *{*
                      03450 ;;; /home/sdcc-builder/build/sdcc-build/orig/sdcc/src/pic14/gen.c:1609:genCpl *{*
                      03451 ;; ***  genCpl  1611
                      03452 ;;      708 register type nRegs=1
                      03453 ;;      708 register type nRegs=1
                      03454 ;; >>> /home/sdcc-builder/build/sdcc-build/orig/sdcc/src/pic14/gen.c:1631:genCpl
                      03455 ;;      1126 rIdx = r0x1058 
00E4                  03456 _00242_DS_:
00E4   0??? 0???      03457         BANKSEL r0x1013
00E6   09??           03458         COMF    r0x1013,W
                      03459 ;; >>> /home/sdcc-builder/build/sdcc-build/orig/sdcc/src/pic14/gen.c:1632:genCpl
                      03460 ;;      1126 rIdx = r0x1055 
00E7   00??           03461         MOVWF   r0x1010
                      03462 ;; ***  addSign  1087
                      03463 ;;; /home/sdcc-builder/build/sdcc-build/orig/sdcc/src/pic14/genarith.c:1088:addSign *{*
                      03464 ;;; /home/sdcc-builder/build/sdcc-build/orig/sdcc/src/pic14/gen.c:2358:resultRemat *{*
                      03465 ;;; /home/sdcc-builder/build/sdcc-build/orig/sdcc/src/pic14/gen.c:4023:genAnd *{*
                      03466 ;; ***  genAnd  4024
                      03467 ;; ***  aopForSym 324
                      03468 ;;      336 sym->rname = _TRISD, size = 1
gpasm-1.5.0 #1285 (Sep 12 2016) obj\Debug\gpi   8-8-2021  22:26:03          PAGE 67


LOC    OBJECT CODE    LINE  SOURCE TEXT
  VALUE

                      03469 ;;      708 register type nRegs=1
                      03470 ;;      708 register type nRegs=1
                      03471 ;;      line = 4059 result AOP_REG=r0x1055, size=1, left AOP_REG=r0x1055, size=1, right AOP_DIR=_TRISD, 
                            size=1
                      03472 ;; >>> /home/sdcc-builder/build/sdcc-build/orig/sdcc/src/pic14/gen.c:4241:genAnd
                      03473 ;;      1027
                      03474 ;;      1045  _TRISD   offset=0
00E8   0??? 0???      03475         BANKSEL _TRISD
00EA   08??           03476         MOVF    _TRISD,W
                      03477 ;; >>> /home/sdcc-builder/build/sdcc-build/orig/sdcc/src/pic14/gen.c:4242:genAnd
                      03478 ;;      1126 rIdx = r0x1055 
00EB   0??? 0???      03479         BANKSEL r0x1010
00ED   05??           03480         ANDWF   r0x1010,F
                      03481 ;;; /home/sdcc-builder/build/sdcc-build/orig/sdcc/src/pic14/gen.c:2358:resultRemat *{*
                      03482 ;;; /home/sdcc-builder/build/sdcc-build/orig/sdcc/src/pic14/gen.c:5667:genGenericShift *{*
                      03483 ;; ***  genGenericShift  5670
                      03484 ;;      708 register type nRegs=1
                      03485 ;;      708 register type nRegs=1
                      03486 ;;      708 register type nRegs=1
                      03487 ;; ***  mov2w  1395  offset=0
                      03488 ;; >>> /home/sdcc-builder/build/sdcc-build/orig/sdcc/src/pic14/gen.c:1400:mov2w
                      03489 ;;      1126 rIdx = r0x1057 
00EE   08??           03490         MOVF    r0x1012,W
                      03491 ;; >>> /home/sdcc-builder/build/sdcc-build/orig/sdcc/src/pic14/gen.c:1407:movwf
                      03492 ;;      1126 rIdx = r0x1058 
00EF   00??           03493         MOVWF   r0x1013
                      03494 ;; ***  addSign  1087
                      03495 ;;; /home/sdcc-builder/build/sdcc-build/orig/sdcc/src/pic14/genarith.c:1088:addSign *{*
                      03496 ;; ***  mov2w  1395  offset=0
                      03497 ;; >>> /home/sdcc-builder/build/sdcc-build/orig/sdcc/src/pic14/gen.c:1400:mov2w
                      03498 ;;      1126 rIdx = r0x1056 
00F0   08??           03499         MOVF    r0x1011,W
                      03500 ;; >>> /home/sdcc-builder/build/sdcc-build/orig/sdcc/src/pic14/gen.c:5741:genGenericShift
00F1   3C00           03501         SUBLW   0x00
                      03502 ;; >>> /home/sdcc-builder/build/sdcc-build/orig/sdcc/src/pic14/gen.c:5743:genGenericShift
00F2   1903           03503         BTFSC   STATUS,2
                      03504 ;; >>> /home/sdcc-builder/build/sdcc-build/orig/sdcc/src/pic14/gen.c:5744:genGenericShift
                      03505 ;; ***  popGetLabel  key=39, label offset 107
00F3   2???           03506         GOTO    _00246_DS_
                      03507 ;;; /home/sdcc-builder/build/sdcc-build/orig/sdcc/src/pic14/gen.c:5618:genMultiAsm *{*
                      03508 ;; ***  genMultiAsm  5619
                      03509 ;; >>> /home/sdcc-builder/build/sdcc-build/orig/sdcc/src/pic14/gen.c:5636:genMultiAsm
                      03510 ;;      1126 rIdx = r0x1058 
00F4                  03511 _00245_DS_:
00F4   0??? 0???      03512         BANKSEL r0x1013
00F6   0D??           03513         RLF     r0x1013,F
                      03514 ;; >>> /home/sdcc-builder/build/sdcc-build/orig/sdcc/src/pic14/gen.c:5750:genGenericShift
00F7   3E01           03515         ADDLW   0x01
                      03516 ;; >>> /home/sdcc-builder/build/sdcc-build/orig/sdcc/src/pic14/gen.c:5751:genGenericShift
00F8   1C03           03517         BTFSS   STATUS,0
                      03518 ;; >>> /home/sdcc-builder/build/sdcc-build/orig/sdcc/src/pic14/gen.c:5752:genGenericShift
                      03519 ;; ***  popGetLabel  key=38, label offset 107
00F9   2???           03520         GOTO    _00245_DS_
gpasm-1.5.0 #1285 (Sep 12 2016) obj\Debug\gpi   8-8-2021  22:26:03          PAGE 68


LOC    OBJECT CODE    LINE  SOURCE TEXT
  VALUE

                      03521 ;;; /home/sdcc-builder/build/sdcc-build/orig/sdcc/src/pic14/gen.c:2358:resultRemat *{*
                      03522 ;;; /home/sdcc-builder/build/sdcc-build/orig/sdcc/src/pic14/gen.c:4324:genOr *{*
                      03523 ;; ***  genOr  4325
                      03524 ;;      708 register type nRegs=1
                      03525 ;;      708 register type nRegs=1
                      03526 ;; ***  aopForSym 324
                      03527 ;;      336 sym->rname = _TRISD, size = 1
                      03528 ;;      line = 4331 result AOP_DIR=_TRISD, size=1, left AOP_REG=r0x1055, size=1, right AOP_REG=r0x1058, 
                            size=1
                      03529 ;;      line = 4357 result AOP_DIR=_TRISD, size=1, left AOP_REG=r0x1055, size=1, right AOP_REG=r0x1058, 
                            size=1
                      03530 ;; >>> /home/sdcc-builder/build/sdcc-build/orig/sdcc/src/pic14/gen.c:4583:genOr
                      03531 ;;      1126 rIdx = r0x1058 
00FA                  03532 _00246_DS_:
00FA   0??? 0???      03533         BANKSEL r0x1013
00FC   08??           03534         MOVF    r0x1013,W
                      03535 ;; >>> /home/sdcc-builder/build/sdcc-build/orig/sdcc/src/pic14/gen.c:4584:genOr
                      03536 ;;      1126 rIdx = r0x1055 
00FD   04??           03537         IORWF   r0x1010,W
                      03538 ;; >>> /home/sdcc-builder/build/sdcc-build/orig/sdcc/src/pic14/gen.c:4585:genOr
                      03539 ;;      1027
                      03540 ;;      1045  _TRISD   offset=0
00FE   0??? 0???      03541         BANKSEL _TRISD
0100   00??           03542         MOVWF   _TRISD
                      03543 ;;; /home/sdcc-builder/build/sdcc-build/orig/sdcc/src/pic14/gen.c:2358:resultRemat *{*
                      03544 ;;; /home/sdcc-builder/build/sdcc-build/orig/sdcc/src/pic14/gen.c:2820:genGoto *{*
                      03545 ;; >>> /home/sdcc-builder/build/sdcc-build/orig/sdcc/src/pic14/gen.c:2822:genGoto
                      03546 ;; ***  popGetLabel  key=8, label offset 107
                      03547         .line   120; "gpio.c"   break;
0101   2???           03548         GOTO    _00215_DS_
                      03549 ;;; /home/sdcc-builder/build/sdcc-build/orig/sdcc/src/pic14/gen.c:2358:resultRemat *{*
                      03550 ;;; /home/sdcc-builder/build/sdcc-build/orig/sdcc/src/pic14/gen.c:2802:genLabel *{*
                      03551 ;; ***  genLabel  2805
                      03552 ;;; /home/sdcc-builder/build/sdcc-build/orig/sdcc/src/pic14/gen.c:2358:resultRemat *{*
                      03553 ;;; /home/sdcc-builder/build/sdcc-build/orig/sdcc/src/pic14/gen.c:7386:genCast *{*
                      03554 ;; ***  genCast  7387
                      03555 ;;      708 register type nRegs=1
                      03556 ;;      708 register type nRegs=1
                      03557 ;;      line = 7395 result AOP_REG=r0x1055, size=1, left -=-, size=0, right AOP_REG=r0x1056, size=1
                      03558 ;; ***  genCast  7537
                      03559 ;; >>> /home/sdcc-builder/build/sdcc-build/orig/sdcc/src/pic14/gen.c:7561:genCast
                      03560 ;;      1126 rIdx = r0x1056 
                      03561 ;;102   MOVF    r0x1011,W
                      03562 ;; >>> /home/sdcc-builder/build/sdcc-build/orig/sdcc/src/pic14/gen.c:7562:genCast
                      03563 ;;      1126 rIdx = r0x1055 
                      03564 ;;; /home/sdcc-builder/build/sdcc-build/orig/sdcc/src/pic14/gen.c:2358:resultRemat *{*
                      03565 ;;; /home/sdcc-builder/build/sdcc-build/orig/sdcc/src/pic14/gen.c:5667:genGenericShift *{*
                      03566 ;; ***  genGenericShift  5670
                      03567 ;;      708 register type nRegs=1
                      03568 ;;      708 register type nRegs=1
                      03569 ;; ***  mov2w  1395  offset=0
                      03570 ;; >>> /home/sdcc-builder/build/sdcc-build/orig/sdcc/src/pic14/gen.c:1398:mov2w
0102                  03571 _00212_DS_:
gpasm-1.5.0 #1285 (Sep 12 2016) obj\Debug\gpi   8-8-2021  22:26:03          PAGE 69


LOC    OBJECT CODE    LINE  SOURCE TEXT
  VALUE

                      03572         .line   122; "gpio.c"   SetRegisterPin(TRISE,pin,direction) ;
0102   3001           03573         MOVLW   0x01
                      03574 ;; >>> /home/sdcc-builder/build/sdcc-build/orig/sdcc/src/pic14/gen.c:1407:movwf
                      03575 ;;      1126 rIdx = r0x1058 
0103   0??? 0???      03576         BANKSEL r0x1013
0105   00??           03577         MOVWF   r0x1013
                      03578 ;; ***  addSign  1087
                      03579 ;;; /home/sdcc-builder/build/sdcc-build/orig/sdcc/src/pic14/genarith.c:1088:addSign *{*
                      03580 ;; ***  mov2w  1395  offset=0
                      03581 ;; >>> /home/sdcc-builder/build/sdcc-build/orig/sdcc/src/pic14/gen.c:1400:mov2w
                      03582 ;;      1126 rIdx = r0x1055 
                      03583 ;;101   MOVF    r0x1010,W
0106   08??           03584         MOVF    r0x1011,W
0107   00??           03585         MOVWF   r0x1010
                      03586 ;; >>> /home/sdcc-builder/build/sdcc-build/orig/sdcc/src/pic14/gen.c:5738:genGenericShift
0108   1B??           03587         BTFSC   r0x1010,7
                      03588 ;; >>> /home/sdcc-builder/build/sdcc-build/orig/sdcc/src/pic14/gen.c:5739:genGenericShift
                      03589 ;; ***  popGetLabel  key=42, label offset 107
0109   2???           03590         GOTO    _00250_DS_
                      03591 ;; >>> /home/sdcc-builder/build/sdcc-build/orig/sdcc/src/pic14/gen.c:5741:genGenericShift
010A   3C00           03592         SUBLW   0x00
                      03593 ;; >>> /home/sdcc-builder/build/sdcc-build/orig/sdcc/src/pic14/gen.c:5743:genGenericShift
010B   1903           03594         BTFSC   STATUS,2
                      03595 ;; >>> /home/sdcc-builder/build/sdcc-build/orig/sdcc/src/pic14/gen.c:5744:genGenericShift
                      03596 ;; ***  popGetLabel  key=41, label offset 107
010C   2???           03597         GOTO    _00248_DS_
                      03598 ;;; /home/sdcc-builder/build/sdcc-build/orig/sdcc/src/pic14/gen.c:5618:genMultiAsm *{*
                      03599 ;; ***  genMultiAsm  5619
                      03600 ;; >>> /home/sdcc-builder/build/sdcc-build/orig/sdcc/src/pic14/gen.c:5636:genMultiAsm
                      03601 ;;      1126 rIdx = r0x1058 
010D                  03602 _00247_DS_:
010D   0??? 0???      03603         BANKSEL r0x1013
010F   0D??           03604         RLF     r0x1013,F
                      03605 ;; >>> /home/sdcc-builder/build/sdcc-build/orig/sdcc/src/pic14/gen.c:5750:genGenericShift
0110   3E01           03606         ADDLW   0x01
                      03607 ;; >>> /home/sdcc-builder/build/sdcc-build/orig/sdcc/src/pic14/gen.c:5751:genGenericShift
0111   1C03           03608         BTFSS   STATUS,0
                      03609 ;; >>> /home/sdcc-builder/build/sdcc-build/orig/sdcc/src/pic14/gen.c:5752:genGenericShift
                      03610 ;; ***  popGetLabel  key=40, label offset 107
0112   2???           03611         GOTO    _00247_DS_
                      03612 ;; >>> /home/sdcc-builder/build/sdcc-build/orig/sdcc/src/pic14/gen.c:5761:genGenericShift
                      03613 ;; ***  popGetLabel  key=41, label offset 107
0113   2???           03614         GOTO    _00248_DS_
                      03615 ;;; /home/sdcc-builder/build/sdcc-build/orig/sdcc/src/pic14/gen.c:5649:loadSignToC *{*
                      03616 ;; >>> /home/sdcc-builder/build/sdcc-build/orig/sdcc/src/pic14/gen.c:5652:loadSignToC
0114                  03617 _00250_DS_:
0114   1003           03618         BCF     STATUS,0
                      03619 ;; >>> /home/sdcc-builder/build/sdcc-build/orig/sdcc/src/pic14/gen.c:5653:loadSignToC
0115   0??? 0???      03620         BANKSEL r0x1013
0117   1B??           03621         BTFSC   r0x1013,7
                      03622 ;; >>> /home/sdcc-builder/build/sdcc-build/orig/sdcc/src/pic14/gen.c:5654:loadSignToC
0118   1403           03623         BSF     STATUS,0
                      03624 ;;; /home/sdcc-builder/build/sdcc-build/orig/sdcc/src/pic14/gen.c:5618:genMultiAsm *{*
gpasm-1.5.0 #1285 (Sep 12 2016) obj\Debug\gpi   8-8-2021  22:26:03          PAGE 70


LOC    OBJECT CODE    LINE  SOURCE TEXT
  VALUE

                      03625 ;; ***  genMultiAsm  5619
                      03626 ;; >>> /home/sdcc-builder/build/sdcc-build/orig/sdcc/src/pic14/gen.c:5636:genMultiAsm
                      03627 ;;      1126 rIdx = r0x1058 
0119   0C??           03628         RRF     r0x1013,F
                      03629 ;; >>> /home/sdcc-builder/build/sdcc-build/orig/sdcc/src/pic14/gen.c:5772:genGenericShift
011A   3E01           03630         ADDLW   0x01
                      03631 ;; >>> /home/sdcc-builder/build/sdcc-build/orig/sdcc/src/pic14/gen.c:5773:genGenericShift
011B   1C03           03632         BTFSS   STATUS,0
                      03633 ;; >>> /home/sdcc-builder/build/sdcc-build/orig/sdcc/src/pic14/gen.c:5774:genGenericShift
                      03634 ;; ***  popGetLabel  key=43, label offset 107
011C   2???           03635         GOTO    _00250_DS_
                      03636 ;;; /home/sdcc-builder/build/sdcc-build/orig/sdcc/src/pic14/gen.c:2358:resultRemat *{*
                      03637 ;;; /home/sdcc-builder/build/sdcc-build/orig/sdcc/src/pic14/gen.c:1609:genCpl *{*
                      03638 ;; ***  genCpl  1611
                      03639 ;;      708 register type nRegs=1
                      03640 ;;      708 register type nRegs=1
                      03641 ;; >>> /home/sdcc-builder/build/sdcc-build/orig/sdcc/src/pic14/gen.c:1631:genCpl
                      03642 ;;      1126 rIdx = r0x1058 
011D                  03643 _00248_DS_:
011D   0??? 0???      03644         BANKSEL r0x1013
011F   09??           03645         COMF    r0x1013,W
                      03646 ;; >>> /home/sdcc-builder/build/sdcc-build/orig/sdcc/src/pic14/gen.c:1632:genCpl
                      03647 ;;      1126 rIdx = r0x1055 
0120   00??           03648         MOVWF   r0x1010
                      03649 ;; ***  addSign  1087
                      03650 ;;; /home/sdcc-builder/build/sdcc-build/orig/sdcc/src/pic14/genarith.c:1088:addSign *{*
                      03651 ;;; /home/sdcc-builder/build/sdcc-build/orig/sdcc/src/pic14/gen.c:2358:resultRemat *{*
                      03652 ;;; /home/sdcc-builder/build/sdcc-build/orig/sdcc/src/pic14/gen.c:4023:genAnd *{*
                      03653 ;; ***  genAnd  4024
                      03654 ;; ***  aopForSym 324
                      03655 ;;      336 sym->rname = _TRISE, size = 1
                      03656 ;;      708 register type nRegs=1
                      03657 ;;      708 register type nRegs=1
                      03658 ;;      line = 4059 result AOP_REG=r0x1055, size=1, left AOP_REG=r0x1055, size=1, right AOP_DIR=_TRISE, 
                            size=1
                      03659 ;; >>> /home/sdcc-builder/build/sdcc-build/orig/sdcc/src/pic14/gen.c:4241:genAnd
                      03660 ;;      1027
                      03661 ;;      1045  _TRISE   offset=0
0121   0??? 0???      03662         BANKSEL _TRISE
0123   08??           03663         MOVF    _TRISE,W
                      03664 ;; >>> /home/sdcc-builder/build/sdcc-build/orig/sdcc/src/pic14/gen.c:4242:genAnd
                      03665 ;;      1126 rIdx = r0x1055 
0124   0??? 0???      03666         BANKSEL r0x1010
0126   05??           03667         ANDWF   r0x1010,F
                      03668 ;;; /home/sdcc-builder/build/sdcc-build/orig/sdcc/src/pic14/gen.c:2358:resultRemat *{*
                      03669 ;;; /home/sdcc-builder/build/sdcc-build/orig/sdcc/src/pic14/gen.c:5667:genGenericShift *{*
                      03670 ;; ***  genGenericShift  5670
                      03671 ;;      708 register type nRegs=1
                      03672 ;;      708 register type nRegs=1
                      03673 ;;      708 register type nRegs=1
                      03674 ;; ***  mov2w  1395  offset=0
                      03675 ;; >>> /home/sdcc-builder/build/sdcc-build/orig/sdcc/src/pic14/gen.c:1400:mov2w
                      03676 ;;      1126 rIdx = r0x1057 
gpasm-1.5.0 #1285 (Sep 12 2016) obj\Debug\gpi   8-8-2021  22:26:03          PAGE 71


LOC    OBJECT CODE    LINE  SOURCE TEXT
  VALUE

0127   08??           03677         MOVF    r0x1012,W
                      03678 ;; >>> /home/sdcc-builder/build/sdcc-build/orig/sdcc/src/pic14/gen.c:1407:movwf
                      03679 ;;      1126 rIdx = r0x1058 
0128   00??           03680         MOVWF   r0x1013
                      03681 ;; ***  addSign  1087
                      03682 ;;; /home/sdcc-builder/build/sdcc-build/orig/sdcc/src/pic14/genarith.c:1088:addSign *{*
                      03683 ;; ***  mov2w  1395  offset=0
                      03684 ;; >>> /home/sdcc-builder/build/sdcc-build/orig/sdcc/src/pic14/gen.c:1400:mov2w
                      03685 ;;      1126 rIdx = r0x1056 
0129   08??           03686         MOVF    r0x1011,W
                      03687 ;; >>> /home/sdcc-builder/build/sdcc-build/orig/sdcc/src/pic14/gen.c:5741:genGenericShift
012A   3C00           03688         SUBLW   0x00
                      03689 ;; >>> /home/sdcc-builder/build/sdcc-build/orig/sdcc/src/pic14/gen.c:5743:genGenericShift
012B   1903           03690         BTFSC   STATUS,2
                      03691 ;; >>> /home/sdcc-builder/build/sdcc-build/orig/sdcc/src/pic14/gen.c:5744:genGenericShift
                      03692 ;; ***  popGetLabel  key=45, label offset 107
012C   2???           03693         GOTO    _00252_DS_
                      03694 ;;; /home/sdcc-builder/build/sdcc-build/orig/sdcc/src/pic14/gen.c:5618:genMultiAsm *{*
                      03695 ;; ***  genMultiAsm  5619
                      03696 ;; >>> /home/sdcc-builder/build/sdcc-build/orig/sdcc/src/pic14/gen.c:5636:genMultiAsm
                      03697 ;;      1126 rIdx = r0x1058 
012D                  03698 _00251_DS_:
012D   0??? 0???      03699         BANKSEL r0x1013
012F   0D??           03700         RLF     r0x1013,F
                      03701 ;; >>> /home/sdcc-builder/build/sdcc-build/orig/sdcc/src/pic14/gen.c:5750:genGenericShift
0130   3E01           03702         ADDLW   0x01
                      03703 ;; >>> /home/sdcc-builder/build/sdcc-build/orig/sdcc/src/pic14/gen.c:5751:genGenericShift
0131   1C03           03704         BTFSS   STATUS,0
                      03705 ;; >>> /home/sdcc-builder/build/sdcc-build/orig/sdcc/src/pic14/gen.c:5752:genGenericShift
                      03706 ;; ***  popGetLabel  key=44, label offset 107
0132   2???           03707         GOTO    _00251_DS_
                      03708 ;;; /home/sdcc-builder/build/sdcc-build/orig/sdcc/src/pic14/gen.c:2358:resultRemat *{*
                      03709 ;;; /home/sdcc-builder/build/sdcc-build/orig/sdcc/src/pic14/gen.c:4324:genOr *{*
                      03710 ;; ***  genOr  4325
                      03711 ;;      708 register type nRegs=1
                      03712 ;;      708 register type nRegs=1
                      03713 ;; ***  aopForSym 324
                      03714 ;;      336 sym->rname = _TRISE, size = 1
                      03715 ;;      line = 4331 result AOP_DIR=_TRISE, size=1, left AOP_REG=r0x1055, size=1, right AOP_REG=r0x1058, 
                            size=1
                      03716 ;;      line = 4357 result AOP_DIR=_TRISE, size=1, left AOP_REG=r0x1055, size=1, right AOP_REG=r0x1058, 
                            size=1
                      03717 ;; >>> /home/sdcc-builder/build/sdcc-build/orig/sdcc/src/pic14/gen.c:4583:genOr
                      03718 ;;      1126 rIdx = r0x1058 
0133                  03719 _00252_DS_:
0133   0??? 0???      03720         BANKSEL r0x1013
0135   08??           03721         MOVF    r0x1013,W
                      03722 ;; >>> /home/sdcc-builder/build/sdcc-build/orig/sdcc/src/pic14/gen.c:4584:genOr
                      03723 ;;      1126 rIdx = r0x1055 
0136   04??           03724         IORWF   r0x1010,W
                      03725 ;; >>> /home/sdcc-builder/build/sdcc-build/orig/sdcc/src/pic14/gen.c:4585:genOr
                      03726 ;;      1027
                      03727 ;;      1045  _TRISE   offset=0
gpasm-1.5.0 #1285 (Sep 12 2016) obj\Debug\gpi   8-8-2021  22:26:03          PAGE 72


LOC    OBJECT CODE    LINE  SOURCE TEXT
  VALUE

0137   0??? 0???      03728         BANKSEL _TRISE
0139   00??           03729         MOVWF   _TRISE
                      03730 ;;; /home/sdcc-builder/build/sdcc-build/orig/sdcc/src/pic14/gen.c:2358:resultRemat *{*
                      03731 ;;; /home/sdcc-builder/build/sdcc-build/orig/sdcc/src/pic14/gen.c:2802:genLabel *{*
                      03732 ;; ***  genLabel  2805
                      03733 ;;; /home/sdcc-builder/build/sdcc-build/orig/sdcc/src/pic14/gen.c:2358:resultRemat *{*
                      03734 ;;; /home/sdcc-builder/build/sdcc-build/orig/sdcc/src/pic14/gen.c:2570:genEndFunction *{*
                      03735 ;; ***  genEndFunction  2572
013A                  03736 _00215_DS_:
                      03737         .line   128; "gpio.c"   }
013A   0008           03738         RETURN  
                      03739 ; exit point of _GPIO_SetPinDirection
                      03740 ;;; /home/sdcc-builder/build/sdcc-build/orig/sdcc/src/pic14/gen.c:7710:genpic14Code *{*
                      03741 
                      03742 ;***
                      03743 ;  pBlock Stats: dbName = C
                      03744 ;***
                      03745 ;has an exit
                      03746 ;6 compiler assigned registers:
                      03747 ;   r0x1014
                      03748 ;   STK00
                      03749 ;   r0x1015
                      03750 ;   STK01
                      03751 ;   r0x1016
                      03752 ;   r0x1017
                      03753 ;; Starting pCode block
                      03754 ;;; /home/sdcc-builder/build/sdcc-build/orig/sdcc/src/pic14/gen.c:2358:resultRemat *{*
                      03755 ;;; /home/sdcc-builder/build/sdcc-build/orig/sdcc/src/pic14/gen.c:2802:genLabel *{*
                      03756 ;; ***  genLabel  2805
                      03757 ;;; /home/sdcc-builder/build/sdcc-build/orig/sdcc/src/pic14/gen.c:2358:resultRemat *{*
                      03758 ;;; /home/sdcc-builder/build/sdcc-build/orig/sdcc/src/pic14/gen.c:2382:genFunction *{*
                      03759 ;; ***  genFunction  2384 curr label offset=39previous max_key=15 
                      03760 S_gpio__GPIO_SetPinState        code
0000                  03761 _GPIO_SetPinState:
                      03762 ; 2 exit points
                      03763 ;;; /home/sdcc-builder/build/sdcc-build/orig/sdcc/src/pic14/gen.c:2358:resultRemat *{*
                      03764 ;;; /home/sdcc-builder/build/sdcc-build/orig/sdcc/src/pic14/gen.c:7642:genReceive *{*
                      03765 ;; ***  genReceive  7643
                      03766 ;;      708 register type nRegs=1
                      03767 ;;; /home/sdcc-builder/build/sdcc-build/orig/sdcc/src/pic14/gen.c:1929:assignResultValue *{*
                      03768 ;; ***  assignResultValue  1931
                      03769 ;;      line = 1933 result -=-, size=0, left AOP_REG=r0x1051, size=1, right -=-, size=0
                      03770 ;; >>> /home/sdcc-builder/build/sdcc-build/orig/sdcc/src/pic14/gen.c:1407:movwf
                      03771 ;;      1126 rIdx = r0x1051 
                      03772         .line   81; "gpio.c"    void GPIO_SetPinState(tPORT port , tPIN pin , tSTATE state)
0000   0??? 0???      03773         BANKSEL r0x1014
0002   00??           03774         MOVWF   r0x1014
                      03775 ;;; /home/sdcc-builder/build/sdcc-build/orig/sdcc/src/pic14/gen.c:2358:resultRemat *{*
                      03776 ;;; /home/sdcc-builder/build/sdcc-build/orig/sdcc/src/pic14/gen.c:7642:genReceive *{*
                      03777 ;; ***  genReceive  7643
                      03778 ;;      708 register type nRegs=1
                      03779 ;;; /home/sdcc-builder/build/sdcc-build/orig/sdcc/src/pic14/gen.c:1929:assignResultValue *{*
                      03780 ;; ***  assignResultValue  1931
gpasm-1.5.0 #1285 (Sep 12 2016) obj\Debug\gpi   8-8-2021  22:26:03          PAGE 73


LOC    OBJECT CODE    LINE  SOURCE TEXT
  VALUE

                      03781 ;;      line = 1933 result -=-, size=0, left AOP_REG=r0x1052, size=1, right -=-, size=0
                      03782 ;; >>> /home/sdcc-builder/build/sdcc-build/orig/sdcc/src/pic14/gen.c:1437:get_returnvalue
                      03783 ;; ***  popRegFromIdx,1059  , rIdx=0x7f
0003   08??           03784         MOVF    STK00,W
                      03785 ;; >>> /home/sdcc-builder/build/sdcc-build/orig/sdcc/src/pic14/gen.c:1407:movwf
                      03786 ;;      1126 rIdx = r0x1052 
0004   00??           03787         MOVWF   r0x1015
                      03788 ;;; /home/sdcc-builder/build/sdcc-build/orig/sdcc/src/pic14/gen.c:2358:resultRemat *{*
                      03789 ;;; /home/sdcc-builder/build/sdcc-build/orig/sdcc/src/pic14/gen.c:7642:genReceive *{*
                      03790 ;; ***  genReceive  7643
                      03791 ;;      708 register type nRegs=1
                      03792 ;;; /home/sdcc-builder/build/sdcc-build/orig/sdcc/src/pic14/gen.c:1929:assignResultValue *{*
                      03793 ;; ***  assignResultValue  1931
                      03794 ;;      line = 1933 result -=-, size=0, left AOP_REG=r0x1053, size=1, right -=-, size=0
                      03795 ;; >>> /home/sdcc-builder/build/sdcc-build/orig/sdcc/src/pic14/gen.c:1437:get_returnvalue
                      03796 ;; ***  popRegFromIdx,1059  , rIdx=0x7e
0005   08??           03797         MOVF    STK01,W
                      03798 ;; >>> /home/sdcc-builder/build/sdcc-build/orig/sdcc/src/pic14/gen.c:1407:movwf
                      03799 ;;      1126 rIdx = r0x1053 
0006   00??           03800         MOVWF   r0x1016
                      03801 ;;; /home/sdcc-builder/build/sdcc-build/orig/sdcc/src/pic14/gen.c:2358:resultRemat *{*
                      03802 ;;; /home/sdcc-builder/build/sdcc-build/orig/sdcc/src/pic14/gen.c:3616:genCmpGt *{*
                      03803 ;; ***  genCmpGt  3617
                      03804 ;;      708 register type nRegs=1
                      03805 ;;; /home/sdcc-builder/build/sdcc-build/orig/sdcc/src/pic14/gen.c:3354:genCmp *{*
                      03806 ;;swapping arguments (AOP_TYPEs 1/2)
                      03807 ;;unsigned compare: left >= lit(0x5=5), size=1
                      03808 ;; >>> /home/sdcc-builder/build/sdcc-build/orig/sdcc/src/pic14/gen.c:3325:pic14_mov2w_regOrLit
                      03809         .line   83; "gpio.c"    switch(port)
0007   3005           03810         MOVLW   0x05
                      03811 ;; >>> /home/sdcc-builder/build/sdcc-build/orig/sdcc/src/pic14/gen.c:3492:genCmp
                      03812 ;;      1126 rIdx = r0x1051 
0008   02??           03813         SUBWF   r0x1014,W
                      03814 ;;; /home/sdcc-builder/build/sdcc-build/orig/sdcc/src/pic14/gen.c:3297:genSkipc *{*
                      03815 ;; >>> /home/sdcc-builder/build/sdcc-build/orig/sdcc/src/pic14/gen.c:3302:genSkipc
0009   1803           03816         BTFSC   STATUS,0
                      03817 ;; >>> /home/sdcc-builder/build/sdcc-build/orig/sdcc/src/pic14/gen.c:3306:genSkipc
                      03818 ;; ***  popGetLabel  key=8, label offset 58
000A   2???           03819         GOTO    _00166_DS_
                      03820 ;;genSkipc:3307: created from rifx:0000000000BC9340
                      03821 ;;; /home/sdcc-builder/build/sdcc-build/orig/sdcc/src/pic14/gen.c:2358:resultRemat *{*
                      03822 ;;; /home/sdcc-builder/build/sdcc-build/orig/sdcc/src/pic14/gen.c:2358:resultRemat *{*
                      03823 ;;; /home/sdcc-builder/build/sdcc-build/orig/sdcc/src/pic14/gen.c:7337:genJumpTab *{*
                      03824 ;; ***  genJumpTab  7338
                      03825 ;;      708 register type nRegs=1
                      03826 ;; >>> /home/sdcc-builder/build/sdcc-build/orig/sdcc/src/pic14/gen.c:7353:genJumpTab
                      03827 ;; ***  popGetLabel  key=15, label offset 58
000B   30??           03828         MOVLW   HIGH(_00173_DS_)
                      03829 ;; >>> /home/sdcc-builder/build/sdcc-build/orig/sdcc/src/pic14/gen.c:7354:genJumpTab
000C   1283 1303      03830         BANKSEL PCLATH
000E   008A           03831         MOVWF   PCLATH
                      03832 ;; >>> /home/sdcc-builder/build/sdcc-build/orig/sdcc/src/pic14/gen.c:7355:genJumpTab
                      03833 ;; ***  popGetLabel  key=15, label offset 58
gpasm-1.5.0 #1285 (Sep 12 2016) obj\Debug\gpi   8-8-2021  22:26:03          PAGE 74


LOC    OBJECT CODE    LINE  SOURCE TEXT
  VALUE

000F   30??           03834         MOVLW   _00173_DS_
                      03835 ;; >>> /home/sdcc-builder/build/sdcc-build/orig/sdcc/src/pic14/gen.c:7356:genJumpTab
                      03836 ;;      1126 rIdx = r0x1051 
0010   0??? 0???      03837         BANKSEL r0x1014
0012   07??           03838         ADDWF   r0x1014,W
                      03839 ;; >>> /home/sdcc-builder/build/sdcc-build/orig/sdcc/src/pic14/gen.c:7357:genJumpTab
0013   1C03           03840         BTFSS   STATUS,0
0014   2???           03841         GOTO    _00006_DS_
                      03842 ;; >>> /home/sdcc-builder/build/sdcc-build/orig/sdcc/src/pic14/gen.c:7358:genJumpTab
0015   1283 1303      03843         BANKSEL PCLATH
0017   0A8A           03844         INCF    PCLATH,F
                      03845 ;; >>> /home/sdcc-builder/build/sdcc-build/orig/sdcc/src/pic14/gen.c:7359:genJumpTab
0018                  03846 _00006_DS_:
0018   0082           03847         MOVWF   PCL
                      03848 ;; >>> /home/sdcc-builder/build/sdcc-build/orig/sdcc/src/pic14/gen.c:7368:genJumpTab
                      03849 ;; ***  popGetLabel  key=1, label offset 58
0019                  03850 _00173_DS_:
0019   2???           03851         GOTO    _00159_DS_
                      03852 ;; >>> /home/sdcc-builder/build/sdcc-build/orig/sdcc/src/pic14/gen.c:7368:genJumpTab
                      03853 ;; ***  popGetLabel  key=2, label offset 58
001A   2???           03854         GOTO    _00160_DS_
                      03855 ;; >>> /home/sdcc-builder/build/sdcc-build/orig/sdcc/src/pic14/gen.c:7368:genJumpTab
                      03856 ;; ***  popGetLabel  key=3, label offset 58
001B   2???           03857         GOTO    _00161_DS_
                      03858 ;; >>> /home/sdcc-builder/build/sdcc-build/orig/sdcc/src/pic14/gen.c:7368:genJumpTab
                      03859 ;; ***  popGetLabel  key=4, label offset 58
001C   2???           03860         GOTO    _00162_DS_
                      03861 ;; >>> /home/sdcc-builder/build/sdcc-build/orig/sdcc/src/pic14/gen.c:7368:genJumpTab
                      03862 ;; ***  popGetLabel  key=5, label offset 58
001D   2???           03863         GOTO    _00163_DS_
                      03864 ;;; /home/sdcc-builder/build/sdcc-build/orig/sdcc/src/pic14/gen.c:2358:resultRemat *{*
                      03865 ;;; /home/sdcc-builder/build/sdcc-build/orig/sdcc/src/pic14/gen.c:2802:genLabel *{*
                      03866 ;; ***  genLabel  2805
                      03867 ;;; /home/sdcc-builder/build/sdcc-build/orig/sdcc/src/pic14/gen.c:2358:resultRemat *{*
                      03868 ;;; /home/sdcc-builder/build/sdcc-build/orig/sdcc/src/pic14/gen.c:7386:genCast *{*
                      03869 ;; ***  genCast  7387
                      03870 ;;      708 register type nRegs=1
                      03871 ;;      708 register type nRegs=1
                      03872 ;;      line = 7395 result AOP_REG=r0x1051, size=1, left -=-, size=0, right AOP_REG=r0x1052, size=1
                      03873 ;; ***  genCast  7537
                      03874 ;; >>> /home/sdcc-builder/build/sdcc-build/orig/sdcc/src/pic14/gen.c:7561:genCast
                      03875 ;;      1126 rIdx = r0x1052 
001E                  03876 _00159_DS_:
                      03877         .line   86; "gpio.c"    SetRegisterPin(PORTA,pin,state) ;
001E   0??? 0???      03878         BANKSEL r0x1015
                      03879 ;;116   MOVF    r0x1015,W
                      03880 ;; >>> /home/sdcc-builder/build/sdcc-build/orig/sdcc/src/pic14/gen.c:7562:genCast
                      03881 ;;      1126 rIdx = r0x1051 
                      03882 ;;; /home/sdcc-builder/build/sdcc-build/orig/sdcc/src/pic14/gen.c:2358:resultRemat *{*
                      03883 ;;; /home/sdcc-builder/build/sdcc-build/orig/sdcc/src/pic14/gen.c:5667:genGenericShift *{*
                      03884 ;; ***  genGenericShift  5670
                      03885 ;;      708 register type nRegs=1
                      03886 ;;      708 register type nRegs=1
gpasm-1.5.0 #1285 (Sep 12 2016) obj\Debug\gpi   8-8-2021  22:26:03          PAGE 75


LOC    OBJECT CODE    LINE  SOURCE TEXT
  VALUE

                      03887 ;; ***  mov2w  1395  offset=0
                      03888 ;; >>> /home/sdcc-builder/build/sdcc-build/orig/sdcc/src/pic14/gen.c:1398:mov2w
0020   3001           03889         MOVLW   0x01
                      03890 ;; >>> /home/sdcc-builder/build/sdcc-build/orig/sdcc/src/pic14/gen.c:1407:movwf
                      03891 ;;      1126 rIdx = r0x1054 
0021   00??           03892         MOVWF   r0x1017
                      03893 ;; ***  addSign  1087
                      03894 ;;; /home/sdcc-builder/build/sdcc-build/orig/sdcc/src/pic14/genarith.c:1088:addSign *{*
                      03895 ;; ***  mov2w  1395  offset=0
                      03896 ;; >>> /home/sdcc-builder/build/sdcc-build/orig/sdcc/src/pic14/gen.c:1400:mov2w
                      03897 ;;      1126 rIdx = r0x1051 
                      03898 ;;115   MOVF    r0x1014,W
0022   08??           03899         MOVF    r0x1015,W
0023   00??           03900         MOVWF   r0x1014
                      03901 ;; >>> /home/sdcc-builder/build/sdcc-build/orig/sdcc/src/pic14/gen.c:5738:genGenericShift
0024   1B??           03902         BTFSC   r0x1014,7
                      03903 ;; >>> /home/sdcc-builder/build/sdcc-build/orig/sdcc/src/pic14/gen.c:5739:genGenericShift
                      03904 ;; ***  popGetLabel  key=18, label offset 58
0025   2???           03905         GOTO    _00177_DS_
                      03906 ;; >>> /home/sdcc-builder/build/sdcc-build/orig/sdcc/src/pic14/gen.c:5741:genGenericShift
0026   3C00           03907         SUBLW   0x00
                      03908 ;; >>> /home/sdcc-builder/build/sdcc-build/orig/sdcc/src/pic14/gen.c:5743:genGenericShift
0027   1903           03909         BTFSC   STATUS,2
                      03910 ;; >>> /home/sdcc-builder/build/sdcc-build/orig/sdcc/src/pic14/gen.c:5744:genGenericShift
                      03911 ;; ***  popGetLabel  key=17, label offset 58
0028   2???           03912         GOTO    _00175_DS_
                      03913 ;;; /home/sdcc-builder/build/sdcc-build/orig/sdcc/src/pic14/gen.c:5618:genMultiAsm *{*
                      03914 ;; ***  genMultiAsm  5619
                      03915 ;; >>> /home/sdcc-builder/build/sdcc-build/orig/sdcc/src/pic14/gen.c:5636:genMultiAsm
                      03916 ;;      1126 rIdx = r0x1054 
0029                  03917 _00174_DS_:
0029   0??? 0???      03918         BANKSEL r0x1017
002B   0D??           03919         RLF     r0x1017,F
                      03920 ;; >>> /home/sdcc-builder/build/sdcc-build/orig/sdcc/src/pic14/gen.c:5750:genGenericShift
002C   3E01           03921         ADDLW   0x01
                      03922 ;; >>> /home/sdcc-builder/build/sdcc-build/orig/sdcc/src/pic14/gen.c:5751:genGenericShift
002D   1C03           03923         BTFSS   STATUS,0
                      03924 ;; >>> /home/sdcc-builder/build/sdcc-build/orig/sdcc/src/pic14/gen.c:5752:genGenericShift
                      03925 ;; ***  popGetLabel  key=16, label offset 58
002E   2???           03926         GOTO    _00174_DS_
                      03927 ;; >>> /home/sdcc-builder/build/sdcc-build/orig/sdcc/src/pic14/gen.c:5761:genGenericShift
                      03928 ;; ***  popGetLabel  key=17, label offset 58
002F   2???           03929         GOTO    _00175_DS_
                      03930 ;;; /home/sdcc-builder/build/sdcc-build/orig/sdcc/src/pic14/gen.c:5649:loadSignToC *{*
                      03931 ;; >>> /home/sdcc-builder/build/sdcc-build/orig/sdcc/src/pic14/gen.c:5652:loadSignToC
0030                  03932 _00177_DS_:
0030   1003           03933         BCF     STATUS,0
                      03934 ;; >>> /home/sdcc-builder/build/sdcc-build/orig/sdcc/src/pic14/gen.c:5653:loadSignToC
0031   0??? 0???      03935         BANKSEL r0x1017
0033   1B??           03936         BTFSC   r0x1017,7
                      03937 ;; >>> /home/sdcc-builder/build/sdcc-build/orig/sdcc/src/pic14/gen.c:5654:loadSignToC
0034   1403           03938         BSF     STATUS,0
                      03939 ;;; /home/sdcc-builder/build/sdcc-build/orig/sdcc/src/pic14/gen.c:5618:genMultiAsm *{*
gpasm-1.5.0 #1285 (Sep 12 2016) obj\Debug\gpi   8-8-2021  22:26:03          PAGE 76


LOC    OBJECT CODE    LINE  SOURCE TEXT
  VALUE

                      03940 ;; ***  genMultiAsm  5619
                      03941 ;; >>> /home/sdcc-builder/build/sdcc-build/orig/sdcc/src/pic14/gen.c:5636:genMultiAsm
                      03942 ;;      1126 rIdx = r0x1054 
0035   0C??           03943         RRF     r0x1017,F
                      03944 ;; >>> /home/sdcc-builder/build/sdcc-build/orig/sdcc/src/pic14/gen.c:5772:genGenericShift
0036   3E01           03945         ADDLW   0x01
                      03946 ;; >>> /home/sdcc-builder/build/sdcc-build/orig/sdcc/src/pic14/gen.c:5773:genGenericShift
0037   1C03           03947         BTFSS   STATUS,0
                      03948 ;; >>> /home/sdcc-builder/build/sdcc-build/orig/sdcc/src/pic14/gen.c:5774:genGenericShift
                      03949 ;; ***  popGetLabel  key=19, label offset 58
0038   2???           03950         GOTO    _00177_DS_
                      03951 ;;; /home/sdcc-builder/build/sdcc-build/orig/sdcc/src/pic14/gen.c:2358:resultRemat *{*
                      03952 ;;; /home/sdcc-builder/build/sdcc-build/orig/sdcc/src/pic14/gen.c:1609:genCpl *{*
                      03953 ;; ***  genCpl  1611
                      03954 ;;      708 register type nRegs=1
                      03955 ;;      708 register type nRegs=1
                      03956 ;; >>> /home/sdcc-builder/build/sdcc-build/orig/sdcc/src/pic14/gen.c:1631:genCpl
                      03957 ;;      1126 rIdx = r0x1054 
0039                  03958 _00175_DS_:
0039   0??? 0???      03959         BANKSEL r0x1017
003B   09??           03960         COMF    r0x1017,W
                      03961 ;; >>> /home/sdcc-builder/build/sdcc-build/orig/sdcc/src/pic14/gen.c:1632:genCpl
                      03962 ;;      1126 rIdx = r0x1051 
003C   00??           03963         MOVWF   r0x1014
                      03964 ;; ***  addSign  1087
                      03965 ;;; /home/sdcc-builder/build/sdcc-build/orig/sdcc/src/pic14/genarith.c:1088:addSign *{*
                      03966 ;;; /home/sdcc-builder/build/sdcc-build/orig/sdcc/src/pic14/gen.c:2358:resultRemat *{*
                      03967 ;;; /home/sdcc-builder/build/sdcc-build/orig/sdcc/src/pic14/gen.c:4023:genAnd *{*
                      03968 ;; ***  genAnd  4024
                      03969 ;; ***  aopForSym 324
                      03970 ;;      336 sym->rname = _PORTA, size = 1
                      03971 ;;      708 register type nRegs=1
                      03972 ;;      708 register type nRegs=1
                      03973 ;;      line = 4059 result AOP_REG=r0x1051, size=1, left AOP_REG=r0x1051, size=1, right AOP_DIR=_PORTA, 
                            size=1
                      03974 ;; >>> /home/sdcc-builder/build/sdcc-build/orig/sdcc/src/pic14/gen.c:4241:genAnd
                      03975 ;;      1027
                      03976 ;;      1045  _PORTA   offset=0
003D   0??? 0???      03977         BANKSEL _PORTA
003F   08??           03978         MOVF    _PORTA,W
                      03979 ;; >>> /home/sdcc-builder/build/sdcc-build/orig/sdcc/src/pic14/gen.c:4242:genAnd
                      03980 ;;      1126 rIdx = r0x1051 
0040   0??? 0???      03981         BANKSEL r0x1014
0042   05??           03982         ANDWF   r0x1014,F
                      03983 ;;; /home/sdcc-builder/build/sdcc-build/orig/sdcc/src/pic14/gen.c:2358:resultRemat *{*
                      03984 ;;; /home/sdcc-builder/build/sdcc-build/orig/sdcc/src/pic14/gen.c:5667:genGenericShift *{*
                      03985 ;; ***  genGenericShift  5670
                      03986 ;;      708 register type nRegs=1
                      03987 ;;      708 register type nRegs=1
                      03988 ;;      708 register type nRegs=1
                      03989 ;; ***  mov2w  1395  offset=0
                      03990 ;; >>> /home/sdcc-builder/build/sdcc-build/orig/sdcc/src/pic14/gen.c:1400:mov2w
                      03991 ;;      1126 rIdx = r0x1053 
gpasm-1.5.0 #1285 (Sep 12 2016) obj\Debug\gpi   8-8-2021  22:26:03          PAGE 77


LOC    OBJECT CODE    LINE  SOURCE TEXT
  VALUE

0043   08??           03992         MOVF    r0x1016,W
                      03993 ;; >>> /home/sdcc-builder/build/sdcc-build/orig/sdcc/src/pic14/gen.c:1407:movwf
                      03994 ;;      1126 rIdx = r0x1054 
0044   00??           03995         MOVWF   r0x1017
                      03996 ;; ***  addSign  1087
                      03997 ;;; /home/sdcc-builder/build/sdcc-build/orig/sdcc/src/pic14/genarith.c:1088:addSign *{*
                      03998 ;; ***  mov2w  1395  offset=0
                      03999 ;; >>> /home/sdcc-builder/build/sdcc-build/orig/sdcc/src/pic14/gen.c:1400:mov2w
                      04000 ;;      1126 rIdx = r0x1052 
0045   08??           04001         MOVF    r0x1015,W
                      04002 ;; >>> /home/sdcc-builder/build/sdcc-build/orig/sdcc/src/pic14/gen.c:5741:genGenericShift
0046   3C00           04003         SUBLW   0x00
                      04004 ;; >>> /home/sdcc-builder/build/sdcc-build/orig/sdcc/src/pic14/gen.c:5743:genGenericShift
0047   1903           04005         BTFSC   STATUS,2
                      04006 ;; >>> /home/sdcc-builder/build/sdcc-build/orig/sdcc/src/pic14/gen.c:5744:genGenericShift
                      04007 ;; ***  popGetLabel  key=21, label offset 58
0048   2???           04008         GOTO    _00179_DS_
                      04009 ;;; /home/sdcc-builder/build/sdcc-build/orig/sdcc/src/pic14/gen.c:5618:genMultiAsm *{*
                      04010 ;; ***  genMultiAsm  5619
                      04011 ;; >>> /home/sdcc-builder/build/sdcc-build/orig/sdcc/src/pic14/gen.c:5636:genMultiAsm
                      04012 ;;      1126 rIdx = r0x1054 
0049                  04013 _00178_DS_:
0049   0??? 0???      04014         BANKSEL r0x1017
004B   0D??           04015         RLF     r0x1017,F
                      04016 ;; >>> /home/sdcc-builder/build/sdcc-build/orig/sdcc/src/pic14/gen.c:5750:genGenericShift
004C   3E01           04017         ADDLW   0x01
                      04018 ;; >>> /home/sdcc-builder/build/sdcc-build/orig/sdcc/src/pic14/gen.c:5751:genGenericShift
004D   1C03           04019         BTFSS   STATUS,0
                      04020 ;; >>> /home/sdcc-builder/build/sdcc-build/orig/sdcc/src/pic14/gen.c:5752:genGenericShift
                      04021 ;; ***  popGetLabel  key=20, label offset 58
004E   2???           04022         GOTO    _00178_DS_
                      04023 ;;; /home/sdcc-builder/build/sdcc-build/orig/sdcc/src/pic14/gen.c:2358:resultRemat *{*
                      04024 ;;; /home/sdcc-builder/build/sdcc-build/orig/sdcc/src/pic14/gen.c:4324:genOr *{*
                      04025 ;; ***  genOr  4325
                      04026 ;;      708 register type nRegs=1
                      04027 ;;      708 register type nRegs=1
                      04028 ;; ***  aopForSym 324
                      04029 ;;      336 sym->rname = _PORTA, size = 1
                      04030 ;;      line = 4331 result AOP_DIR=_PORTA, size=1, left AOP_REG=r0x1051, size=1, right AOP_REG=r0x1054, 
                            size=1
                      04031 ;;      line = 4357 result AOP_DIR=_PORTA, size=1, left AOP_REG=r0x1051, size=1, right AOP_REG=r0x1054, 
                            size=1
                      04032 ;; >>> /home/sdcc-builder/build/sdcc-build/orig/sdcc/src/pic14/gen.c:4583:genOr
                      04033 ;;      1126 rIdx = r0x1054 
004F                  04034 _00179_DS_:
004F   0??? 0???      04035         BANKSEL r0x1017
0051   08??           04036         MOVF    r0x1017,W
                      04037 ;; >>> /home/sdcc-builder/build/sdcc-build/orig/sdcc/src/pic14/gen.c:4584:genOr
                      04038 ;;      1126 rIdx = r0x1051 
0052   04??           04039         IORWF   r0x1014,W
                      04040 ;; >>> /home/sdcc-builder/build/sdcc-build/orig/sdcc/src/pic14/gen.c:4585:genOr
                      04041 ;;      1027
                      04042 ;;      1045  _PORTA   offset=0
gpasm-1.5.0 #1285 (Sep 12 2016) obj\Debug\gpi   8-8-2021  22:26:03          PAGE 78


LOC    OBJECT CODE    LINE  SOURCE TEXT
  VALUE

0053   0??? 0???      04043         BANKSEL _PORTA
0055   00??           04044         MOVWF   _PORTA
                      04045 ;;; /home/sdcc-builder/build/sdcc-build/orig/sdcc/src/pic14/gen.c:2358:resultRemat *{*
                      04046 ;;; /home/sdcc-builder/build/sdcc-build/orig/sdcc/src/pic14/gen.c:2820:genGoto *{*
                      04047 ;; >>> /home/sdcc-builder/build/sdcc-build/orig/sdcc/src/pic14/gen.c:2822:genGoto
                      04048 ;; ***  popGetLabel  key=8, label offset 58
                      04049         .line   87; "gpio.c"    break;
0056   2???           04050         GOTO    _00166_DS_
                      04051 ;;; /home/sdcc-builder/build/sdcc-build/orig/sdcc/src/pic14/gen.c:2358:resultRemat *{*
                      04052 ;;; /home/sdcc-builder/build/sdcc-build/orig/sdcc/src/pic14/gen.c:2802:genLabel *{*
                      04053 ;; ***  genLabel  2805
                      04054 ;;; /home/sdcc-builder/build/sdcc-build/orig/sdcc/src/pic14/gen.c:2358:resultRemat *{*
                      04055 ;;; /home/sdcc-builder/build/sdcc-build/orig/sdcc/src/pic14/gen.c:7386:genCast *{*
                      04056 ;; ***  genCast  7387
                      04057 ;;      708 register type nRegs=1
                      04058 ;;      708 register type nRegs=1
                      04059 ;;      line = 7395 result AOP_REG=r0x1051, size=1, left -=-, size=0, right AOP_REG=r0x1052, size=1
                      04060 ;; ***  genCast  7537
                      04061 ;; >>> /home/sdcc-builder/build/sdcc-build/orig/sdcc/src/pic14/gen.c:7561:genCast
                      04062 ;;      1126 rIdx = r0x1052 
                      04063 ;;112   MOVF    r0x1015,W
                      04064 ;; >>> /home/sdcc-builder/build/sdcc-build/orig/sdcc/src/pic14/gen.c:7562:genCast
                      04065 ;;      1126 rIdx = r0x1051 
                      04066 ;;; /home/sdcc-builder/build/sdcc-build/orig/sdcc/src/pic14/gen.c:2358:resultRemat *{*
                      04067 ;;; /home/sdcc-builder/build/sdcc-build/orig/sdcc/src/pic14/gen.c:5667:genGenericShift *{*
                      04068 ;; ***  genGenericShift  5670
                      04069 ;;      708 register type nRegs=1
                      04070 ;;      708 register type nRegs=1
                      04071 ;; ***  mov2w  1395  offset=0
                      04072 ;; >>> /home/sdcc-builder/build/sdcc-build/orig/sdcc/src/pic14/gen.c:1398:mov2w
0057                  04073 _00160_DS_:
                      04074         .line   89; "gpio.c"    SetRegisterPin(PORTB,pin,state) ;
0057   3001           04075         MOVLW   0x01
                      04076 ;; >>> /home/sdcc-builder/build/sdcc-build/orig/sdcc/src/pic14/gen.c:1407:movwf
                      04077 ;;      1126 rIdx = r0x1054 
0058   0??? 0???      04078         BANKSEL r0x1017
005A   00??           04079         MOVWF   r0x1017
                      04080 ;; ***  addSign  1087
                      04081 ;;; /home/sdcc-builder/build/sdcc-build/orig/sdcc/src/pic14/genarith.c:1088:addSign *{*
                      04082 ;; ***  mov2w  1395  offset=0
                      04083 ;; >>> /home/sdcc-builder/build/sdcc-build/orig/sdcc/src/pic14/gen.c:1400:mov2w
                      04084 ;;      1126 rIdx = r0x1051 
                      04085 ;;111   MOVF    r0x1014,W
005B   08??           04086         MOVF    r0x1015,W
005C   00??           04087         MOVWF   r0x1014
                      04088 ;; >>> /home/sdcc-builder/build/sdcc-build/orig/sdcc/src/pic14/gen.c:5738:genGenericShift
005D   1B??           04089         BTFSC   r0x1014,7
                      04090 ;; >>> /home/sdcc-builder/build/sdcc-build/orig/sdcc/src/pic14/gen.c:5739:genGenericShift
                      04091 ;; ***  popGetLabel  key=24, label offset 58
005E   2???           04092         GOTO    _00183_DS_
                      04093 ;; >>> /home/sdcc-builder/build/sdcc-build/orig/sdcc/src/pic14/gen.c:5741:genGenericShift
005F   3C00           04094         SUBLW   0x00
                      04095 ;; >>> /home/sdcc-builder/build/sdcc-build/orig/sdcc/src/pic14/gen.c:5743:genGenericShift
gpasm-1.5.0 #1285 (Sep 12 2016) obj\Debug\gpi   8-8-2021  22:26:03          PAGE 79


LOC    OBJECT CODE    LINE  SOURCE TEXT
  VALUE

0060   1903           04096         BTFSC   STATUS,2
                      04097 ;; >>> /home/sdcc-builder/build/sdcc-build/orig/sdcc/src/pic14/gen.c:5744:genGenericShift
                      04098 ;; ***  popGetLabel  key=23, label offset 58
0061   2???           04099         GOTO    _00181_DS_
                      04100 ;;; /home/sdcc-builder/build/sdcc-build/orig/sdcc/src/pic14/gen.c:5618:genMultiAsm *{*
                      04101 ;; ***  genMultiAsm  5619
                      04102 ;; >>> /home/sdcc-builder/build/sdcc-build/orig/sdcc/src/pic14/gen.c:5636:genMultiAsm
                      04103 ;;      1126 rIdx = r0x1054 
0062                  04104 _00180_DS_:
0062   0??? 0???      04105         BANKSEL r0x1017
0064   0D??           04106         RLF     r0x1017,F
                      04107 ;; >>> /home/sdcc-builder/build/sdcc-build/orig/sdcc/src/pic14/gen.c:5750:genGenericShift
0065   3E01           04108         ADDLW   0x01
                      04109 ;; >>> /home/sdcc-builder/build/sdcc-build/orig/sdcc/src/pic14/gen.c:5751:genGenericShift
0066   1C03           04110         BTFSS   STATUS,0
                      04111 ;; >>> /home/sdcc-builder/build/sdcc-build/orig/sdcc/src/pic14/gen.c:5752:genGenericShift
                      04112 ;; ***  popGetLabel  key=22, label offset 58
0067   2???           04113         GOTO    _00180_DS_
                      04114 ;; >>> /home/sdcc-builder/build/sdcc-build/orig/sdcc/src/pic14/gen.c:5761:genGenericShift
                      04115 ;; ***  popGetLabel  key=23, label offset 58
0068   2???           04116         GOTO    _00181_DS_
                      04117 ;;; /home/sdcc-builder/build/sdcc-build/orig/sdcc/src/pic14/gen.c:5649:loadSignToC *{*
                      04118 ;; >>> /home/sdcc-builder/build/sdcc-build/orig/sdcc/src/pic14/gen.c:5652:loadSignToC
0069                  04119 _00183_DS_:
0069   1003           04120         BCF     STATUS,0
                      04121 ;; >>> /home/sdcc-builder/build/sdcc-build/orig/sdcc/src/pic14/gen.c:5653:loadSignToC
006A   0??? 0???      04122         BANKSEL r0x1017
006C   1B??           04123         BTFSC   r0x1017,7
                      04124 ;; >>> /home/sdcc-builder/build/sdcc-build/orig/sdcc/src/pic14/gen.c:5654:loadSignToC
006D   1403           04125         BSF     STATUS,0
                      04126 ;;; /home/sdcc-builder/build/sdcc-build/orig/sdcc/src/pic14/gen.c:5618:genMultiAsm *{*
                      04127 ;; ***  genMultiAsm  5619
                      04128 ;; >>> /home/sdcc-builder/build/sdcc-build/orig/sdcc/src/pic14/gen.c:5636:genMultiAsm
                      04129 ;;      1126 rIdx = r0x1054 
006E   0C??           04130         RRF     r0x1017,F
                      04131 ;; >>> /home/sdcc-builder/build/sdcc-build/orig/sdcc/src/pic14/gen.c:5772:genGenericShift
006F   3E01           04132         ADDLW   0x01
                      04133 ;; >>> /home/sdcc-builder/build/sdcc-build/orig/sdcc/src/pic14/gen.c:5773:genGenericShift
0070   1C03           04134         BTFSS   STATUS,0
                      04135 ;; >>> /home/sdcc-builder/build/sdcc-build/orig/sdcc/src/pic14/gen.c:5774:genGenericShift
                      04136 ;; ***  popGetLabel  key=25, label offset 58
0071   2???           04137         GOTO    _00183_DS_
                      04138 ;;; /home/sdcc-builder/build/sdcc-build/orig/sdcc/src/pic14/gen.c:2358:resultRemat *{*
                      04139 ;;; /home/sdcc-builder/build/sdcc-build/orig/sdcc/src/pic14/gen.c:1609:genCpl *{*
                      04140 ;; ***  genCpl  1611
                      04141 ;;      708 register type nRegs=1
                      04142 ;;      708 register type nRegs=1
                      04143 ;; >>> /home/sdcc-builder/build/sdcc-build/orig/sdcc/src/pic14/gen.c:1631:genCpl
                      04144 ;;      1126 rIdx = r0x1054 
0072                  04145 _00181_DS_:
0072   0??? 0???      04146         BANKSEL r0x1017
0074   09??           04147         COMF    r0x1017,W
                      04148 ;; >>> /home/sdcc-builder/build/sdcc-build/orig/sdcc/src/pic14/gen.c:1632:genCpl
gpasm-1.5.0 #1285 (Sep 12 2016) obj\Debug\gpi   8-8-2021  22:26:03          PAGE 80


LOC    OBJECT CODE    LINE  SOURCE TEXT
  VALUE

                      04149 ;;      1126 rIdx = r0x1051 
0075   00??           04150         MOVWF   r0x1014
                      04151 ;; ***  addSign  1087
                      04152 ;;; /home/sdcc-builder/build/sdcc-build/orig/sdcc/src/pic14/genarith.c:1088:addSign *{*
                      04153 ;;; /home/sdcc-builder/build/sdcc-build/orig/sdcc/src/pic14/gen.c:2358:resultRemat *{*
                      04154 ;;; /home/sdcc-builder/build/sdcc-build/orig/sdcc/src/pic14/gen.c:4023:genAnd *{*
                      04155 ;; ***  genAnd  4024
                      04156 ;; ***  aopForSym 324
                      04157 ;;      336 sym->rname = _PORTB, size = 1
                      04158 ;;      708 register type nRegs=1
                      04159 ;;      708 register type nRegs=1
                      04160 ;;      line = 4059 result AOP_REG=r0x1051, size=1, left AOP_REG=r0x1051, size=1, right AOP_DIR=_PORTB, 
                            size=1
                      04161 ;; >>> /home/sdcc-builder/build/sdcc-build/orig/sdcc/src/pic14/gen.c:4241:genAnd
                      04162 ;;      1027
                      04163 ;;      1045  _PORTB   offset=0
0076   0??? 0???      04164         BANKSEL _PORTB
0078   08??           04165         MOVF    _PORTB,W
                      04166 ;; >>> /home/sdcc-builder/build/sdcc-build/orig/sdcc/src/pic14/gen.c:4242:genAnd
                      04167 ;;      1126 rIdx = r0x1051 
0079   0??? 0???      04168         BANKSEL r0x1014
007B   05??           04169         ANDWF   r0x1014,F
                      04170 ;;; /home/sdcc-builder/build/sdcc-build/orig/sdcc/src/pic14/gen.c:2358:resultRemat *{*
                      04171 ;;; /home/sdcc-builder/build/sdcc-build/orig/sdcc/src/pic14/gen.c:5667:genGenericShift *{*
                      04172 ;; ***  genGenericShift  5670
                      04173 ;;      708 register type nRegs=1
                      04174 ;;      708 register type nRegs=1
                      04175 ;;      708 register type nRegs=1
                      04176 ;; ***  mov2w  1395  offset=0
                      04177 ;; >>> /home/sdcc-builder/build/sdcc-build/orig/sdcc/src/pic14/gen.c:1400:mov2w
                      04178 ;;      1126 rIdx = r0x1053 
007C   08??           04179         MOVF    r0x1016,W
                      04180 ;; >>> /home/sdcc-builder/build/sdcc-build/orig/sdcc/src/pic14/gen.c:1407:movwf
                      04181 ;;      1126 rIdx = r0x1054 
007D   00??           04182         MOVWF   r0x1017
                      04183 ;; ***  addSign  1087
                      04184 ;;; /home/sdcc-builder/build/sdcc-build/orig/sdcc/src/pic14/genarith.c:1088:addSign *{*
                      04185 ;; ***  mov2w  1395  offset=0
                      04186 ;; >>> /home/sdcc-builder/build/sdcc-build/orig/sdcc/src/pic14/gen.c:1400:mov2w
                      04187 ;;      1126 rIdx = r0x1052 
007E   08??           04188         MOVF    r0x1015,W
                      04189 ;; >>> /home/sdcc-builder/build/sdcc-build/orig/sdcc/src/pic14/gen.c:5741:genGenericShift
007F   3C00           04190         SUBLW   0x00
                      04191 ;; >>> /home/sdcc-builder/build/sdcc-build/orig/sdcc/src/pic14/gen.c:5743:genGenericShift
0080   1903           04192         BTFSC   STATUS,2
                      04193 ;; >>> /home/sdcc-builder/build/sdcc-build/orig/sdcc/src/pic14/gen.c:5744:genGenericShift
                      04194 ;; ***  popGetLabel  key=27, label offset 58
0081   2???           04195         GOTO    _00185_DS_
                      04196 ;;; /home/sdcc-builder/build/sdcc-build/orig/sdcc/src/pic14/gen.c:5618:genMultiAsm *{*
                      04197 ;; ***  genMultiAsm  5619
                      04198 ;; >>> /home/sdcc-builder/build/sdcc-build/orig/sdcc/src/pic14/gen.c:5636:genMultiAsm
                      04199 ;;      1126 rIdx = r0x1054 
0082                  04200 _00184_DS_:
gpasm-1.5.0 #1285 (Sep 12 2016) obj\Debug\gpi   8-8-2021  22:26:03          PAGE 81


LOC    OBJECT CODE    LINE  SOURCE TEXT
  VALUE

0082   0??? 0???      04201         BANKSEL r0x1017
0084   0D??           04202         RLF     r0x1017,F
                      04203 ;; >>> /home/sdcc-builder/build/sdcc-build/orig/sdcc/src/pic14/gen.c:5750:genGenericShift
0085   3E01           04204         ADDLW   0x01
                      04205 ;; >>> /home/sdcc-builder/build/sdcc-build/orig/sdcc/src/pic14/gen.c:5751:genGenericShift
0086   1C03           04206         BTFSS   STATUS,0
                      04207 ;; >>> /home/sdcc-builder/build/sdcc-build/orig/sdcc/src/pic14/gen.c:5752:genGenericShift
                      04208 ;; ***  popGetLabel  key=26, label offset 58
0087   2???           04209         GOTO    _00184_DS_
                      04210 ;;; /home/sdcc-builder/build/sdcc-build/orig/sdcc/src/pic14/gen.c:2358:resultRemat *{*
                      04211 ;;; /home/sdcc-builder/build/sdcc-build/orig/sdcc/src/pic14/gen.c:4324:genOr *{*
                      04212 ;; ***  genOr  4325
                      04213 ;;      708 register type nRegs=1
                      04214 ;;      708 register type nRegs=1
                      04215 ;; ***  aopForSym 324
                      04216 ;;      336 sym->rname = _PORTB, size = 1
                      04217 ;;      line = 4331 result AOP_DIR=_PORTB, size=1, left AOP_REG=r0x1051, size=1, right AOP_REG=r0x1054, 
                            size=1
                      04218 ;;      line = 4357 result AOP_DIR=_PORTB, size=1, left AOP_REG=r0x1051, size=1, right AOP_REG=r0x1054, 
                            size=1
                      04219 ;; >>> /home/sdcc-builder/build/sdcc-build/orig/sdcc/src/pic14/gen.c:4583:genOr
                      04220 ;;      1126 rIdx = r0x1054 
0088                  04221 _00185_DS_:
0088   0??? 0???      04222         BANKSEL r0x1017
008A   08??           04223         MOVF    r0x1017,W
                      04224 ;; >>> /home/sdcc-builder/build/sdcc-build/orig/sdcc/src/pic14/gen.c:4584:genOr
                      04225 ;;      1126 rIdx = r0x1051 
008B   04??           04226         IORWF   r0x1014,W
                      04227 ;; >>> /home/sdcc-builder/build/sdcc-build/orig/sdcc/src/pic14/gen.c:4585:genOr
                      04228 ;;      1027
                      04229 ;;      1045  _PORTB   offset=0
008C   0??? 0???      04230         BANKSEL _PORTB
008E   00??           04231         MOVWF   _PORTB
                      04232 ;;; /home/sdcc-builder/build/sdcc-build/orig/sdcc/src/pic14/gen.c:2358:resultRemat *{*
                      04233 ;;; /home/sdcc-builder/build/sdcc-build/orig/sdcc/src/pic14/gen.c:2820:genGoto *{*
                      04234 ;; >>> /home/sdcc-builder/build/sdcc-build/orig/sdcc/src/pic14/gen.c:2822:genGoto
                      04235 ;; ***  popGetLabel  key=8, label offset 58
                      04236         .line   90; "gpio.c"    break;
008F   2???           04237         GOTO    _00166_DS_
                      04238 ;;; /home/sdcc-builder/build/sdcc-build/orig/sdcc/src/pic14/gen.c:2358:resultRemat *{*
                      04239 ;;; /home/sdcc-builder/build/sdcc-build/orig/sdcc/src/pic14/gen.c:2802:genLabel *{*
                      04240 ;; ***  genLabel  2805
                      04241 ;;; /home/sdcc-builder/build/sdcc-build/orig/sdcc/src/pic14/gen.c:2358:resultRemat *{*
                      04242 ;;; /home/sdcc-builder/build/sdcc-build/orig/sdcc/src/pic14/gen.c:7386:genCast *{*
                      04243 ;; ***  genCast  7387
                      04244 ;;      708 register type nRegs=1
                      04245 ;;      708 register type nRegs=1
                      04246 ;;      line = 7395 result AOP_REG=r0x1051, size=1, left -=-, size=0, right AOP_REG=r0x1052, size=1
                      04247 ;; ***  genCast  7537
                      04248 ;; >>> /home/sdcc-builder/build/sdcc-build/orig/sdcc/src/pic14/gen.c:7561:genCast
                      04249 ;;      1126 rIdx = r0x1052 
                      04250 ;;108   MOVF    r0x1015,W
                      04251 ;; >>> /home/sdcc-builder/build/sdcc-build/orig/sdcc/src/pic14/gen.c:7562:genCast
gpasm-1.5.0 #1285 (Sep 12 2016) obj\Debug\gpi   8-8-2021  22:26:03          PAGE 82


LOC    OBJECT CODE    LINE  SOURCE TEXT
  VALUE

                      04252 ;;      1126 rIdx = r0x1051 
                      04253 ;;; /home/sdcc-builder/build/sdcc-build/orig/sdcc/src/pic14/gen.c:2358:resultRemat *{*
                      04254 ;;; /home/sdcc-builder/build/sdcc-build/orig/sdcc/src/pic14/gen.c:5667:genGenericShift *{*
                      04255 ;; ***  genGenericShift  5670
                      04256 ;;      708 register type nRegs=1
                      04257 ;;      708 register type nRegs=1
                      04258 ;; ***  mov2w  1395  offset=0
                      04259 ;; >>> /home/sdcc-builder/build/sdcc-build/orig/sdcc/src/pic14/gen.c:1398:mov2w
0090                  04260 _00161_DS_:
                      04261         .line   92; "gpio.c"    SetRegisterPin(PORTC,pin,state) ;
0090   3001           04262         MOVLW   0x01
                      04263 ;; >>> /home/sdcc-builder/build/sdcc-build/orig/sdcc/src/pic14/gen.c:1407:movwf
                      04264 ;;      1126 rIdx = r0x1054 
0091   0??? 0???      04265         BANKSEL r0x1017
0093   00??           04266         MOVWF   r0x1017
                      04267 ;; ***  addSign  1087
                      04268 ;;; /home/sdcc-builder/build/sdcc-build/orig/sdcc/src/pic14/genarith.c:1088:addSign *{*
                      04269 ;; ***  mov2w  1395  offset=0
                      04270 ;; >>> /home/sdcc-builder/build/sdcc-build/orig/sdcc/src/pic14/gen.c:1400:mov2w
                      04271 ;;      1126 rIdx = r0x1051 
                      04272 ;;107   MOVF    r0x1014,W
0094   08??           04273         MOVF    r0x1015,W
0095   00??           04274         MOVWF   r0x1014
                      04275 ;; >>> /home/sdcc-builder/build/sdcc-build/orig/sdcc/src/pic14/gen.c:5738:genGenericShift
0096   1B??           04276         BTFSC   r0x1014,7
                      04277 ;; >>> /home/sdcc-builder/build/sdcc-build/orig/sdcc/src/pic14/gen.c:5739:genGenericShift
                      04278 ;; ***  popGetLabel  key=30, label offset 58
0097   2???           04279         GOTO    _00189_DS_
                      04280 ;; >>> /home/sdcc-builder/build/sdcc-build/orig/sdcc/src/pic14/gen.c:5741:genGenericShift
0098   3C00           04281         SUBLW   0x00
                      04282 ;; >>> /home/sdcc-builder/build/sdcc-build/orig/sdcc/src/pic14/gen.c:5743:genGenericShift
0099   1903           04283         BTFSC   STATUS,2
                      04284 ;; >>> /home/sdcc-builder/build/sdcc-build/orig/sdcc/src/pic14/gen.c:5744:genGenericShift
                      04285 ;; ***  popGetLabel  key=29, label offset 58
009A   2???           04286         GOTO    _00187_DS_
                      04287 ;;; /home/sdcc-builder/build/sdcc-build/orig/sdcc/src/pic14/gen.c:5618:genMultiAsm *{*
                      04288 ;; ***  genMultiAsm  5619
                      04289 ;; >>> /home/sdcc-builder/build/sdcc-build/orig/sdcc/src/pic14/gen.c:5636:genMultiAsm
                      04290 ;;      1126 rIdx = r0x1054 
009B                  04291 _00186_DS_:
009B   0??? 0???      04292         BANKSEL r0x1017
009D   0D??           04293         RLF     r0x1017,F
                      04294 ;; >>> /home/sdcc-builder/build/sdcc-build/orig/sdcc/src/pic14/gen.c:5750:genGenericShift
009E   3E01           04295         ADDLW   0x01
                      04296 ;; >>> /home/sdcc-builder/build/sdcc-build/orig/sdcc/src/pic14/gen.c:5751:genGenericShift
009F   1C03           04297         BTFSS   STATUS,0
                      04298 ;; >>> /home/sdcc-builder/build/sdcc-build/orig/sdcc/src/pic14/gen.c:5752:genGenericShift
                      04299 ;; ***  popGetLabel  key=28, label offset 58
00A0   2???           04300         GOTO    _00186_DS_
                      04301 ;; >>> /home/sdcc-builder/build/sdcc-build/orig/sdcc/src/pic14/gen.c:5761:genGenericShift
                      04302 ;; ***  popGetLabel  key=29, label offset 58
00A1   2???           04303         GOTO    _00187_DS_
                      04304 ;;; /home/sdcc-builder/build/sdcc-build/orig/sdcc/src/pic14/gen.c:5649:loadSignToC *{*
gpasm-1.5.0 #1285 (Sep 12 2016) obj\Debug\gpi   8-8-2021  22:26:03          PAGE 83


LOC    OBJECT CODE    LINE  SOURCE TEXT
  VALUE

                      04305 ;; >>> /home/sdcc-builder/build/sdcc-build/orig/sdcc/src/pic14/gen.c:5652:loadSignToC
00A2                  04306 _00189_DS_:
00A2   1003           04307         BCF     STATUS,0
                      04308 ;; >>> /home/sdcc-builder/build/sdcc-build/orig/sdcc/src/pic14/gen.c:5653:loadSignToC
00A3   0??? 0???      04309         BANKSEL r0x1017
00A5   1B??           04310         BTFSC   r0x1017,7
                      04311 ;; >>> /home/sdcc-builder/build/sdcc-build/orig/sdcc/src/pic14/gen.c:5654:loadSignToC
00A6   1403           04312         BSF     STATUS,0
                      04313 ;;; /home/sdcc-builder/build/sdcc-build/orig/sdcc/src/pic14/gen.c:5618:genMultiAsm *{*
                      04314 ;; ***  genMultiAsm  5619
                      04315 ;; >>> /home/sdcc-builder/build/sdcc-build/orig/sdcc/src/pic14/gen.c:5636:genMultiAsm
                      04316 ;;      1126 rIdx = r0x1054 
00A7   0C??           04317         RRF     r0x1017,F
                      04318 ;; >>> /home/sdcc-builder/build/sdcc-build/orig/sdcc/src/pic14/gen.c:5772:genGenericShift
00A8   3E01           04319         ADDLW   0x01
                      04320 ;; >>> /home/sdcc-builder/build/sdcc-build/orig/sdcc/src/pic14/gen.c:5773:genGenericShift
00A9   1C03           04321         BTFSS   STATUS,0
                      04322 ;; >>> /home/sdcc-builder/build/sdcc-build/orig/sdcc/src/pic14/gen.c:5774:genGenericShift
                      04323 ;; ***  popGetLabel  key=31, label offset 58
00AA   2???           04324         GOTO    _00189_DS_
                      04325 ;;; /home/sdcc-builder/build/sdcc-build/orig/sdcc/src/pic14/gen.c:2358:resultRemat *{*
                      04326 ;;; /home/sdcc-builder/build/sdcc-build/orig/sdcc/src/pic14/gen.c:1609:genCpl *{*
                      04327 ;; ***  genCpl  1611
                      04328 ;;      708 register type nRegs=1
                      04329 ;;      708 register type nRegs=1
                      04330 ;; >>> /home/sdcc-builder/build/sdcc-build/orig/sdcc/src/pic14/gen.c:1631:genCpl
                      04331 ;;      1126 rIdx = r0x1054 
00AB                  04332 _00187_DS_:
00AB   0??? 0???      04333         BANKSEL r0x1017
00AD   09??           04334         COMF    r0x1017,W
                      04335 ;; >>> /home/sdcc-builder/build/sdcc-build/orig/sdcc/src/pic14/gen.c:1632:genCpl
                      04336 ;;      1126 rIdx = r0x1051 
00AE   00??           04337         MOVWF   r0x1014
                      04338 ;; ***  addSign  1087
                      04339 ;;; /home/sdcc-builder/build/sdcc-build/orig/sdcc/src/pic14/genarith.c:1088:addSign *{*
                      04340 ;;; /home/sdcc-builder/build/sdcc-build/orig/sdcc/src/pic14/gen.c:2358:resultRemat *{*
                      04341 ;;; /home/sdcc-builder/build/sdcc-build/orig/sdcc/src/pic14/gen.c:4023:genAnd *{*
                      04342 ;; ***  genAnd  4024
                      04343 ;; ***  aopForSym 324
                      04344 ;;      336 sym->rname = _PORTC, size = 1
                      04345 ;;      708 register type nRegs=1
                      04346 ;;      708 register type nRegs=1
                      04347 ;;      line = 4059 result AOP_REG=r0x1051, size=1, left AOP_REG=r0x1051, size=1, right AOP_DIR=_PORTC, 
                            size=1
                      04348 ;; >>> /home/sdcc-builder/build/sdcc-build/orig/sdcc/src/pic14/gen.c:4241:genAnd
                      04349 ;;      1027
                      04350 ;;      1045  _PORTC   offset=0
00AF   0??? 0???      04351         BANKSEL _PORTC
00B1   08??           04352         MOVF    _PORTC,W
                      04353 ;; >>> /home/sdcc-builder/build/sdcc-build/orig/sdcc/src/pic14/gen.c:4242:genAnd
                      04354 ;;      1126 rIdx = r0x1051 
00B2   0??? 0???      04355         BANKSEL r0x1014
00B4   05??           04356         ANDWF   r0x1014,F
gpasm-1.5.0 #1285 (Sep 12 2016) obj\Debug\gpi   8-8-2021  22:26:03          PAGE 84


LOC    OBJECT CODE    LINE  SOURCE TEXT
  VALUE

                      04357 ;;; /home/sdcc-builder/build/sdcc-build/orig/sdcc/src/pic14/gen.c:2358:resultRemat *{*
                      04358 ;;; /home/sdcc-builder/build/sdcc-build/orig/sdcc/src/pic14/gen.c:5667:genGenericShift *{*
                      04359 ;; ***  genGenericShift  5670
                      04360 ;;      708 register type nRegs=1
                      04361 ;;      708 register type nRegs=1
                      04362 ;;      708 register type nRegs=1
                      04363 ;; ***  mov2w  1395  offset=0
                      04364 ;; >>> /home/sdcc-builder/build/sdcc-build/orig/sdcc/src/pic14/gen.c:1400:mov2w
                      04365 ;;      1126 rIdx = r0x1053 
00B5   08??           04366         MOVF    r0x1016,W
                      04367 ;; >>> /home/sdcc-builder/build/sdcc-build/orig/sdcc/src/pic14/gen.c:1407:movwf
                      04368 ;;      1126 rIdx = r0x1054 
00B6   00??           04369         MOVWF   r0x1017
                      04370 ;; ***  addSign  1087
                      04371 ;;; /home/sdcc-builder/build/sdcc-build/orig/sdcc/src/pic14/genarith.c:1088:addSign *{*
                      04372 ;; ***  mov2w  1395  offset=0
                      04373 ;; >>> /home/sdcc-builder/build/sdcc-build/orig/sdcc/src/pic14/gen.c:1400:mov2w
                      04374 ;;      1126 rIdx = r0x1052 
00B7   08??           04375         MOVF    r0x1015,W
                      04376 ;; >>> /home/sdcc-builder/build/sdcc-build/orig/sdcc/src/pic14/gen.c:5741:genGenericShift
00B8   3C00           04377         SUBLW   0x00
                      04378 ;; >>> /home/sdcc-builder/build/sdcc-build/orig/sdcc/src/pic14/gen.c:5743:genGenericShift
00B9   1903           04379         BTFSC   STATUS,2
                      04380 ;; >>> /home/sdcc-builder/build/sdcc-build/orig/sdcc/src/pic14/gen.c:5744:genGenericShift
                      04381 ;; ***  popGetLabel  key=33, label offset 58
00BA   2???           04382         GOTO    _00191_DS_
                      04383 ;;; /home/sdcc-builder/build/sdcc-build/orig/sdcc/src/pic14/gen.c:5618:genMultiAsm *{*
                      04384 ;; ***  genMultiAsm  5619
                      04385 ;; >>> /home/sdcc-builder/build/sdcc-build/orig/sdcc/src/pic14/gen.c:5636:genMultiAsm
                      04386 ;;      1126 rIdx = r0x1054 
00BB                  04387 _00190_DS_:
00BB   0??? 0???      04388         BANKSEL r0x1017
00BD   0D??           04389         RLF     r0x1017,F
                      04390 ;; >>> /home/sdcc-builder/build/sdcc-build/orig/sdcc/src/pic14/gen.c:5750:genGenericShift
00BE   3E01           04391         ADDLW   0x01
                      04392 ;; >>> /home/sdcc-builder/build/sdcc-build/orig/sdcc/src/pic14/gen.c:5751:genGenericShift
00BF   1C03           04393         BTFSS   STATUS,0
                      04394 ;; >>> /home/sdcc-builder/build/sdcc-build/orig/sdcc/src/pic14/gen.c:5752:genGenericShift
                      04395 ;; ***  popGetLabel  key=32, label offset 58
00C0   2???           04396         GOTO    _00190_DS_
                      04397 ;;; /home/sdcc-builder/build/sdcc-build/orig/sdcc/src/pic14/gen.c:2358:resultRemat *{*
                      04398 ;;; /home/sdcc-builder/build/sdcc-build/orig/sdcc/src/pic14/gen.c:4324:genOr *{*
                      04399 ;; ***  genOr  4325
                      04400 ;;      708 register type nRegs=1
                      04401 ;;      708 register type nRegs=1
                      04402 ;; ***  aopForSym 324
                      04403 ;;      336 sym->rname = _PORTC, size = 1
                      04404 ;;      line = 4331 result AOP_DIR=_PORTC, size=1, left AOP_REG=r0x1051, size=1, right AOP_REG=r0x1054, 
                            size=1
                      04405 ;;      line = 4357 result AOP_DIR=_PORTC, size=1, left AOP_REG=r0x1051, size=1, right AOP_REG=r0x1054, 
                            size=1
                      04406 ;; >>> /home/sdcc-builder/build/sdcc-build/orig/sdcc/src/pic14/gen.c:4583:genOr
                      04407 ;;      1126 rIdx = r0x1054 
gpasm-1.5.0 #1285 (Sep 12 2016) obj\Debug\gpi   8-8-2021  22:26:03          PAGE 85


LOC    OBJECT CODE    LINE  SOURCE TEXT
  VALUE

00C1                  04408 _00191_DS_:
00C1   0??? 0???      04409         BANKSEL r0x1017
00C3   08??           04410         MOVF    r0x1017,W
                      04411 ;; >>> /home/sdcc-builder/build/sdcc-build/orig/sdcc/src/pic14/gen.c:4584:genOr
                      04412 ;;      1126 rIdx = r0x1051 
00C4   04??           04413         IORWF   r0x1014,W
                      04414 ;; >>> /home/sdcc-builder/build/sdcc-build/orig/sdcc/src/pic14/gen.c:4585:genOr
                      04415 ;;      1027
                      04416 ;;      1045  _PORTC   offset=0
00C5   0??? 0???      04417         BANKSEL _PORTC
00C7   00??           04418         MOVWF   _PORTC
                      04419 ;;; /home/sdcc-builder/build/sdcc-build/orig/sdcc/src/pic14/gen.c:2358:resultRemat *{*
                      04420 ;;; /home/sdcc-builder/build/sdcc-build/orig/sdcc/src/pic14/gen.c:2820:genGoto *{*
                      04421 ;; >>> /home/sdcc-builder/build/sdcc-build/orig/sdcc/src/pic14/gen.c:2822:genGoto
                      04422 ;; ***  popGetLabel  key=8, label offset 58
                      04423         .line   93; "gpio.c"    break;
00C8   2???           04424         GOTO    _00166_DS_
                      04425 ;;; /home/sdcc-builder/build/sdcc-build/orig/sdcc/src/pic14/gen.c:2358:resultRemat *{*
                      04426 ;;; /home/sdcc-builder/build/sdcc-build/orig/sdcc/src/pic14/gen.c:2802:genLabel *{*
                      04427 ;; ***  genLabel  2805
                      04428 ;;; /home/sdcc-builder/build/sdcc-build/orig/sdcc/src/pic14/gen.c:2358:resultRemat *{*
                      04429 ;;; /home/sdcc-builder/build/sdcc-build/orig/sdcc/src/pic14/gen.c:7386:genCast *{*
                      04430 ;; ***  genCast  7387
                      04431 ;;      708 register type nRegs=1
                      04432 ;;      708 register type nRegs=1
                      04433 ;;      line = 7395 result AOP_REG=r0x1051, size=1, left -=-, size=0, right AOP_REG=r0x1052, size=1
                      04434 ;; ***  genCast  7537
                      04435 ;; >>> /home/sdcc-builder/build/sdcc-build/orig/sdcc/src/pic14/gen.c:7561:genCast
                      04436 ;;      1126 rIdx = r0x1052 
                      04437 ;;104   MOVF    r0x1015,W
                      04438 ;; >>> /home/sdcc-builder/build/sdcc-build/orig/sdcc/src/pic14/gen.c:7562:genCast
                      04439 ;;      1126 rIdx = r0x1051 
                      04440 ;;; /home/sdcc-builder/build/sdcc-build/orig/sdcc/src/pic14/gen.c:2358:resultRemat *{*
                      04441 ;;; /home/sdcc-builder/build/sdcc-build/orig/sdcc/src/pic14/gen.c:5667:genGenericShift *{*
                      04442 ;; ***  genGenericShift  5670
                      04443 ;;      708 register type nRegs=1
                      04444 ;;      708 register type nRegs=1
                      04445 ;; ***  mov2w  1395  offset=0
                      04446 ;; >>> /home/sdcc-builder/build/sdcc-build/orig/sdcc/src/pic14/gen.c:1398:mov2w
00C9                  04447 _00162_DS_:
                      04448         .line   95; "gpio.c"    SetRegisterPin(PORTD,pin,state) ;
00C9   3001           04449         MOVLW   0x01
                      04450 ;; >>> /home/sdcc-builder/build/sdcc-build/orig/sdcc/src/pic14/gen.c:1407:movwf
                      04451 ;;      1126 rIdx = r0x1054 
00CA   0??? 0???      04452         BANKSEL r0x1017
00CC   00??           04453         MOVWF   r0x1017
                      04454 ;; ***  addSign  1087
                      04455 ;;; /home/sdcc-builder/build/sdcc-build/orig/sdcc/src/pic14/genarith.c:1088:addSign *{*
                      04456 ;; ***  mov2w  1395  offset=0
                      04457 ;; >>> /home/sdcc-builder/build/sdcc-build/orig/sdcc/src/pic14/gen.c:1400:mov2w
                      04458 ;;      1126 rIdx = r0x1051 
                      04459 ;;103   MOVF    r0x1014,W
00CD   08??           04460         MOVF    r0x1015,W
gpasm-1.5.0 #1285 (Sep 12 2016) obj\Debug\gpi   8-8-2021  22:26:03          PAGE 86


LOC    OBJECT CODE    LINE  SOURCE TEXT
  VALUE

00CE   00??           04461         MOVWF   r0x1014
                      04462 ;; >>> /home/sdcc-builder/build/sdcc-build/orig/sdcc/src/pic14/gen.c:5738:genGenericShift
00CF   1B??           04463         BTFSC   r0x1014,7
                      04464 ;; >>> /home/sdcc-builder/build/sdcc-build/orig/sdcc/src/pic14/gen.c:5739:genGenericShift
                      04465 ;; ***  popGetLabel  key=36, label offset 58
00D0   2???           04466         GOTO    _00195_DS_
                      04467 ;; >>> /home/sdcc-builder/build/sdcc-build/orig/sdcc/src/pic14/gen.c:5741:genGenericShift
00D1   3C00           04468         SUBLW   0x00
                      04469 ;; >>> /home/sdcc-builder/build/sdcc-build/orig/sdcc/src/pic14/gen.c:5743:genGenericShift
00D2   1903           04470         BTFSC   STATUS,2
                      04471 ;; >>> /home/sdcc-builder/build/sdcc-build/orig/sdcc/src/pic14/gen.c:5744:genGenericShift
                      04472 ;; ***  popGetLabel  key=35, label offset 58
00D3   2???           04473         GOTO    _00193_DS_
                      04474 ;;; /home/sdcc-builder/build/sdcc-build/orig/sdcc/src/pic14/gen.c:5618:genMultiAsm *{*
                      04475 ;; ***  genMultiAsm  5619
                      04476 ;; >>> /home/sdcc-builder/build/sdcc-build/orig/sdcc/src/pic14/gen.c:5636:genMultiAsm
                      04477 ;;      1126 rIdx = r0x1054 
00D4                  04478 _00192_DS_:
00D4   0??? 0???      04479         BANKSEL r0x1017
00D6   0D??           04480         RLF     r0x1017,F
                      04481 ;; >>> /home/sdcc-builder/build/sdcc-build/orig/sdcc/src/pic14/gen.c:5750:genGenericShift
00D7   3E01           04482         ADDLW   0x01
                      04483 ;; >>> /home/sdcc-builder/build/sdcc-build/orig/sdcc/src/pic14/gen.c:5751:genGenericShift
00D8   1C03           04484         BTFSS   STATUS,0
                      04485 ;; >>> /home/sdcc-builder/build/sdcc-build/orig/sdcc/src/pic14/gen.c:5752:genGenericShift
                      04486 ;; ***  popGetLabel  key=34, label offset 58
00D9   2???           04487         GOTO    _00192_DS_
                      04488 ;; >>> /home/sdcc-builder/build/sdcc-build/orig/sdcc/src/pic14/gen.c:5761:genGenericShift
                      04489 ;; ***  popGetLabel  key=35, label offset 58
00DA   2???           04490         GOTO    _00193_DS_
                      04491 ;;; /home/sdcc-builder/build/sdcc-build/orig/sdcc/src/pic14/gen.c:5649:loadSignToC *{*
                      04492 ;; >>> /home/sdcc-builder/build/sdcc-build/orig/sdcc/src/pic14/gen.c:5652:loadSignToC
00DB                  04493 _00195_DS_:
00DB   1003           04494         BCF     STATUS,0
                      04495 ;; >>> /home/sdcc-builder/build/sdcc-build/orig/sdcc/src/pic14/gen.c:5653:loadSignToC
00DC   0??? 0???      04496         BANKSEL r0x1017
00DE   1B??           04497         BTFSC   r0x1017,7
                      04498 ;; >>> /home/sdcc-builder/build/sdcc-build/orig/sdcc/src/pic14/gen.c:5654:loadSignToC
00DF   1403           04499         BSF     STATUS,0
                      04500 ;;; /home/sdcc-builder/build/sdcc-build/orig/sdcc/src/pic14/gen.c:5618:genMultiAsm *{*
                      04501 ;; ***  genMultiAsm  5619
                      04502 ;; >>> /home/sdcc-builder/build/sdcc-build/orig/sdcc/src/pic14/gen.c:5636:genMultiAsm
                      04503 ;;      1126 rIdx = r0x1054 
00E0   0C??           04504         RRF     r0x1017,F
                      04505 ;; >>> /home/sdcc-builder/build/sdcc-build/orig/sdcc/src/pic14/gen.c:5772:genGenericShift
00E1   3E01           04506         ADDLW   0x01
                      04507 ;; >>> /home/sdcc-builder/build/sdcc-build/orig/sdcc/src/pic14/gen.c:5773:genGenericShift
00E2   1C03           04508         BTFSS   STATUS,0
                      04509 ;; >>> /home/sdcc-builder/build/sdcc-build/orig/sdcc/src/pic14/gen.c:5774:genGenericShift
                      04510 ;; ***  popGetLabel  key=37, label offset 58
00E3   2???           04511         GOTO    _00195_DS_
                      04512 ;;; /home/sdcc-builder/build/sdcc-build/orig/sdcc/src/pic14/gen.c:2358:resultRemat *{*
                      04513 ;;; /home/sdcc-builder/build/sdcc-build/orig/sdcc/src/pic14/gen.c:1609:genCpl *{*
gpasm-1.5.0 #1285 (Sep 12 2016) obj\Debug\gpi   8-8-2021  22:26:03          PAGE 87


LOC    OBJECT CODE    LINE  SOURCE TEXT
  VALUE

                      04514 ;; ***  genCpl  1611
                      04515 ;;      708 register type nRegs=1
                      04516 ;;      708 register type nRegs=1
                      04517 ;; >>> /home/sdcc-builder/build/sdcc-build/orig/sdcc/src/pic14/gen.c:1631:genCpl
                      04518 ;;      1126 rIdx = r0x1054 
00E4                  04519 _00193_DS_:
00E4   0??? 0???      04520         BANKSEL r0x1017
00E6   09??           04521         COMF    r0x1017,W
                      04522 ;; >>> /home/sdcc-builder/build/sdcc-build/orig/sdcc/src/pic14/gen.c:1632:genCpl
                      04523 ;;      1126 rIdx = r0x1051 
00E7   00??           04524         MOVWF   r0x1014
                      04525 ;; ***  addSign  1087
                      04526 ;;; /home/sdcc-builder/build/sdcc-build/orig/sdcc/src/pic14/genarith.c:1088:addSign *{*
                      04527 ;;; /home/sdcc-builder/build/sdcc-build/orig/sdcc/src/pic14/gen.c:2358:resultRemat *{*
                      04528 ;;; /home/sdcc-builder/build/sdcc-build/orig/sdcc/src/pic14/gen.c:4023:genAnd *{*
                      04529 ;; ***  genAnd  4024
                      04530 ;; ***  aopForSym 324
                      04531 ;;      336 sym->rname = _PORTD, size = 1
                      04532 ;;      708 register type nRegs=1
                      04533 ;;      708 register type nRegs=1
                      04534 ;;      line = 4059 result AOP_REG=r0x1051, size=1, left AOP_REG=r0x1051, size=1, right AOP_DIR=_PORTD, 
                            size=1
                      04535 ;; >>> /home/sdcc-builder/build/sdcc-build/orig/sdcc/src/pic14/gen.c:4241:genAnd
                      04536 ;;      1027
                      04537 ;;      1045  _PORTD   offset=0
00E8   0??? 0???      04538         BANKSEL _PORTD
00EA   08??           04539         MOVF    _PORTD,W
                      04540 ;; >>> /home/sdcc-builder/build/sdcc-build/orig/sdcc/src/pic14/gen.c:4242:genAnd
                      04541 ;;      1126 rIdx = r0x1051 
00EB   0??? 0???      04542         BANKSEL r0x1014
00ED   05??           04543         ANDWF   r0x1014,F
                      04544 ;;; /home/sdcc-builder/build/sdcc-build/orig/sdcc/src/pic14/gen.c:2358:resultRemat *{*
                      04545 ;;; /home/sdcc-builder/build/sdcc-build/orig/sdcc/src/pic14/gen.c:5667:genGenericShift *{*
                      04546 ;; ***  genGenericShift  5670
                      04547 ;;      708 register type nRegs=1
                      04548 ;;      708 register type nRegs=1
                      04549 ;;      708 register type nRegs=1
                      04550 ;; ***  mov2w  1395  offset=0
                      04551 ;; >>> /home/sdcc-builder/build/sdcc-build/orig/sdcc/src/pic14/gen.c:1400:mov2w
                      04552 ;;      1126 rIdx = r0x1053 
00EE   08??           04553         MOVF    r0x1016,W
                      04554 ;; >>> /home/sdcc-builder/build/sdcc-build/orig/sdcc/src/pic14/gen.c:1407:movwf
                      04555 ;;      1126 rIdx = r0x1054 
00EF   00??           04556         MOVWF   r0x1017
                      04557 ;; ***  addSign  1087
                      04558 ;;; /home/sdcc-builder/build/sdcc-build/orig/sdcc/src/pic14/genarith.c:1088:addSign *{*
                      04559 ;; ***  mov2w  1395  offset=0
                      04560 ;; >>> /home/sdcc-builder/build/sdcc-build/orig/sdcc/src/pic14/gen.c:1400:mov2w
                      04561 ;;      1126 rIdx = r0x1052 
00F0   08??           04562         MOVF    r0x1015,W
                      04563 ;; >>> /home/sdcc-builder/build/sdcc-build/orig/sdcc/src/pic14/gen.c:5741:genGenericShift
00F1   3C00           04564         SUBLW   0x00
                      04565 ;; >>> /home/sdcc-builder/build/sdcc-build/orig/sdcc/src/pic14/gen.c:5743:genGenericShift
gpasm-1.5.0 #1285 (Sep 12 2016) obj\Debug\gpi   8-8-2021  22:26:03          PAGE 88


LOC    OBJECT CODE    LINE  SOURCE TEXT
  VALUE

00F2   1903           04566         BTFSC   STATUS,2
                      04567 ;; >>> /home/sdcc-builder/build/sdcc-build/orig/sdcc/src/pic14/gen.c:5744:genGenericShift
                      04568 ;; ***  popGetLabel  key=39, label offset 58
00F3   2???           04569         GOTO    _00197_DS_
                      04570 ;;; /home/sdcc-builder/build/sdcc-build/orig/sdcc/src/pic14/gen.c:5618:genMultiAsm *{*
                      04571 ;; ***  genMultiAsm  5619
                      04572 ;; >>> /home/sdcc-builder/build/sdcc-build/orig/sdcc/src/pic14/gen.c:5636:genMultiAsm
                      04573 ;;      1126 rIdx = r0x1054 
00F4                  04574 _00196_DS_:
00F4   0??? 0???      04575         BANKSEL r0x1017
00F6   0D??           04576         RLF     r0x1017,F
                      04577 ;; >>> /home/sdcc-builder/build/sdcc-build/orig/sdcc/src/pic14/gen.c:5750:genGenericShift
00F7   3E01           04578         ADDLW   0x01
                      04579 ;; >>> /home/sdcc-builder/build/sdcc-build/orig/sdcc/src/pic14/gen.c:5751:genGenericShift
00F8   1C03           04580         BTFSS   STATUS,0
                      04581 ;; >>> /home/sdcc-builder/build/sdcc-build/orig/sdcc/src/pic14/gen.c:5752:genGenericShift
                      04582 ;; ***  popGetLabel  key=38, label offset 58
00F9   2???           04583         GOTO    _00196_DS_
                      04584 ;;; /home/sdcc-builder/build/sdcc-build/orig/sdcc/src/pic14/gen.c:2358:resultRemat *{*
                      04585 ;;; /home/sdcc-builder/build/sdcc-build/orig/sdcc/src/pic14/gen.c:4324:genOr *{*
                      04586 ;; ***  genOr  4325
                      04587 ;;      708 register type nRegs=1
                      04588 ;;      708 register type nRegs=1
                      04589 ;; ***  aopForSym 324
                      04590 ;;      336 sym->rname = _PORTD, size = 1
                      04591 ;;      line = 4331 result AOP_DIR=_PORTD, size=1, left AOP_REG=r0x1051, size=1, right AOP_REG=r0x1054, 
                            size=1
                      04592 ;;      line = 4357 result AOP_DIR=_PORTD, size=1, left AOP_REG=r0x1051, size=1, right AOP_REG=r0x1054, 
                            size=1
                      04593 ;; >>> /home/sdcc-builder/build/sdcc-build/orig/sdcc/src/pic14/gen.c:4583:genOr
                      04594 ;;      1126 rIdx = r0x1054 
00FA                  04595 _00197_DS_:
00FA   0??? 0???      04596         BANKSEL r0x1017
00FC   08??           04597         MOVF    r0x1017,W
                      04598 ;; >>> /home/sdcc-builder/build/sdcc-build/orig/sdcc/src/pic14/gen.c:4584:genOr
                      04599 ;;      1126 rIdx = r0x1051 
00FD   04??           04600         IORWF   r0x1014,W
                      04601 ;; >>> /home/sdcc-builder/build/sdcc-build/orig/sdcc/src/pic14/gen.c:4585:genOr
                      04602 ;;      1027
                      04603 ;;      1045  _PORTD   offset=0
00FE   0??? 0???      04604         BANKSEL _PORTD
0100   00??           04605         MOVWF   _PORTD
                      04606 ;;; /home/sdcc-builder/build/sdcc-build/orig/sdcc/src/pic14/gen.c:2358:resultRemat *{*
                      04607 ;;; /home/sdcc-builder/build/sdcc-build/orig/sdcc/src/pic14/gen.c:2820:genGoto *{*
                      04608 ;; >>> /home/sdcc-builder/build/sdcc-build/orig/sdcc/src/pic14/gen.c:2822:genGoto
                      04609 ;; ***  popGetLabel  key=8, label offset 58
                      04610         .line   96; "gpio.c"    break;
0101   2???           04611         GOTO    _00166_DS_
                      04612 ;;; /home/sdcc-builder/build/sdcc-build/orig/sdcc/src/pic14/gen.c:2358:resultRemat *{*
                      04613 ;;; /home/sdcc-builder/build/sdcc-build/orig/sdcc/src/pic14/gen.c:2802:genLabel *{*
                      04614 ;; ***  genLabel  2805
                      04615 ;;; /home/sdcc-builder/build/sdcc-build/orig/sdcc/src/pic14/gen.c:2358:resultRemat *{*
                      04616 ;;; /home/sdcc-builder/build/sdcc-build/orig/sdcc/src/pic14/gen.c:7386:genCast *{*
gpasm-1.5.0 #1285 (Sep 12 2016) obj\Debug\gpi   8-8-2021  22:26:03          PAGE 89


LOC    OBJECT CODE    LINE  SOURCE TEXT
  VALUE

                      04617 ;; ***  genCast  7387
                      04618 ;;      708 register type nRegs=1
                      04619 ;;      708 register type nRegs=1
                      04620 ;;      line = 7395 result AOP_REG=r0x1051, size=1, left -=-, size=0, right AOP_REG=r0x1052, size=1
                      04621 ;; ***  genCast  7537
                      04622 ;; >>> /home/sdcc-builder/build/sdcc-build/orig/sdcc/src/pic14/gen.c:7561:genCast
                      04623 ;;      1126 rIdx = r0x1052 
                      04624 ;;100   MOVF    r0x1015,W
                      04625 ;; >>> /home/sdcc-builder/build/sdcc-build/orig/sdcc/src/pic14/gen.c:7562:genCast
                      04626 ;;      1126 rIdx = r0x1051 
                      04627 ;;; /home/sdcc-builder/build/sdcc-build/orig/sdcc/src/pic14/gen.c:2358:resultRemat *{*
                      04628 ;;; /home/sdcc-builder/build/sdcc-build/orig/sdcc/src/pic14/gen.c:5667:genGenericShift *{*
                      04629 ;; ***  genGenericShift  5670
                      04630 ;;      708 register type nRegs=1
                      04631 ;;      708 register type nRegs=1
                      04632 ;; ***  mov2w  1395  offset=0
                      04633 ;; >>> /home/sdcc-builder/build/sdcc-build/orig/sdcc/src/pic14/gen.c:1398:mov2w
0102                  04634 _00163_DS_:
                      04635         .line   98; "gpio.c"    SetRegisterPin(PORTE,pin,state) ;
0102   3001           04636         MOVLW   0x01
                      04637 ;; >>> /home/sdcc-builder/build/sdcc-build/orig/sdcc/src/pic14/gen.c:1407:movwf
                      04638 ;;      1126 rIdx = r0x1054 
0103   0??? 0???      04639         BANKSEL r0x1017
0105   00??           04640         MOVWF   r0x1017
                      04641 ;; ***  addSign  1087
                      04642 ;;; /home/sdcc-builder/build/sdcc-build/orig/sdcc/src/pic14/genarith.c:1088:addSign *{*
                      04643 ;; ***  mov2w  1395  offset=0
                      04644 ;; >>> /home/sdcc-builder/build/sdcc-build/orig/sdcc/src/pic14/gen.c:1400:mov2w
                      04645 ;;      1126 rIdx = r0x1051 
                      04646 ;;99    MOVF    r0x1014,W
0106   08??           04647         MOVF    r0x1015,W
0107   00??           04648         MOVWF   r0x1014
                      04649 ;; >>> /home/sdcc-builder/build/sdcc-build/orig/sdcc/src/pic14/gen.c:5738:genGenericShift
0108   1B??           04650         BTFSC   r0x1014,7
                      04651 ;; >>> /home/sdcc-builder/build/sdcc-build/orig/sdcc/src/pic14/gen.c:5739:genGenericShift
                      04652 ;; ***  popGetLabel  key=42, label offset 58
0109   2???           04653         GOTO    _00201_DS_
                      04654 ;; >>> /home/sdcc-builder/build/sdcc-build/orig/sdcc/src/pic14/gen.c:5741:genGenericShift
010A   3C00           04655         SUBLW   0x00
                      04656 ;; >>> /home/sdcc-builder/build/sdcc-build/orig/sdcc/src/pic14/gen.c:5743:genGenericShift
010B   1903           04657         BTFSC   STATUS,2
                      04658 ;; >>> /home/sdcc-builder/build/sdcc-build/orig/sdcc/src/pic14/gen.c:5744:genGenericShift
                      04659 ;; ***  popGetLabel  key=41, label offset 58
010C   2???           04660         GOTO    _00199_DS_
                      04661 ;;; /home/sdcc-builder/build/sdcc-build/orig/sdcc/src/pic14/gen.c:5618:genMultiAsm *{*
                      04662 ;; ***  genMultiAsm  5619
                      04663 ;; >>> /home/sdcc-builder/build/sdcc-build/orig/sdcc/src/pic14/gen.c:5636:genMultiAsm
                      04664 ;;      1126 rIdx = r0x1054 
010D                  04665 _00198_DS_:
010D   0??? 0???      04666         BANKSEL r0x1017
010F   0D??           04667         RLF     r0x1017,F
                      04668 ;; >>> /home/sdcc-builder/build/sdcc-build/orig/sdcc/src/pic14/gen.c:5750:genGenericShift
0110   3E01           04669         ADDLW   0x01
gpasm-1.5.0 #1285 (Sep 12 2016) obj\Debug\gpi   8-8-2021  22:26:03          PAGE 90


LOC    OBJECT CODE    LINE  SOURCE TEXT
  VALUE

                      04670 ;; >>> /home/sdcc-builder/build/sdcc-build/orig/sdcc/src/pic14/gen.c:5751:genGenericShift
0111   1C03           04671         BTFSS   STATUS,0
                      04672 ;; >>> /home/sdcc-builder/build/sdcc-build/orig/sdcc/src/pic14/gen.c:5752:genGenericShift
                      04673 ;; ***  popGetLabel  key=40, label offset 58
0112   2???           04674         GOTO    _00198_DS_
                      04675 ;; >>> /home/sdcc-builder/build/sdcc-build/orig/sdcc/src/pic14/gen.c:5761:genGenericShift
                      04676 ;; ***  popGetLabel  key=41, label offset 58
0113   2???           04677         GOTO    _00199_DS_
                      04678 ;;; /home/sdcc-builder/build/sdcc-build/orig/sdcc/src/pic14/gen.c:5649:loadSignToC *{*
                      04679 ;; >>> /home/sdcc-builder/build/sdcc-build/orig/sdcc/src/pic14/gen.c:5652:loadSignToC
0114                  04680 _00201_DS_:
0114   1003           04681         BCF     STATUS,0
                      04682 ;; >>> /home/sdcc-builder/build/sdcc-build/orig/sdcc/src/pic14/gen.c:5653:loadSignToC
0115   0??? 0???      04683         BANKSEL r0x1017
0117   1B??           04684         BTFSC   r0x1017,7
                      04685 ;; >>> /home/sdcc-builder/build/sdcc-build/orig/sdcc/src/pic14/gen.c:5654:loadSignToC
0118   1403           04686         BSF     STATUS,0
                      04687 ;;; /home/sdcc-builder/build/sdcc-build/orig/sdcc/src/pic14/gen.c:5618:genMultiAsm *{*
                      04688 ;; ***  genMultiAsm  5619
                      04689 ;; >>> /home/sdcc-builder/build/sdcc-build/orig/sdcc/src/pic14/gen.c:5636:genMultiAsm
                      04690 ;;      1126 rIdx = r0x1054 
0119   0C??           04691         RRF     r0x1017,F
                      04692 ;; >>> /home/sdcc-builder/build/sdcc-build/orig/sdcc/src/pic14/gen.c:5772:genGenericShift
011A   3E01           04693         ADDLW   0x01
                      04694 ;; >>> /home/sdcc-builder/build/sdcc-build/orig/sdcc/src/pic14/gen.c:5773:genGenericShift
011B   1C03           04695         BTFSS   STATUS,0
                      04696 ;; >>> /home/sdcc-builder/build/sdcc-build/orig/sdcc/src/pic14/gen.c:5774:genGenericShift
                      04697 ;; ***  popGetLabel  key=43, label offset 58
011C   2???           04698         GOTO    _00201_DS_
                      04699 ;;; /home/sdcc-builder/build/sdcc-build/orig/sdcc/src/pic14/gen.c:2358:resultRemat *{*
                      04700 ;;; /home/sdcc-builder/build/sdcc-build/orig/sdcc/src/pic14/gen.c:1609:genCpl *{*
                      04701 ;; ***  genCpl  1611
                      04702 ;;      708 register type nRegs=1
                      04703 ;;      708 register type nRegs=1
                      04704 ;; >>> /home/sdcc-builder/build/sdcc-build/orig/sdcc/src/pic14/gen.c:1631:genCpl
                      04705 ;;      1126 rIdx = r0x1054 
011D                  04706 _00199_DS_:
011D   0??? 0???      04707         BANKSEL r0x1017
011F   09??           04708         COMF    r0x1017,W
                      04709 ;; >>> /home/sdcc-builder/build/sdcc-build/orig/sdcc/src/pic14/gen.c:1632:genCpl
                      04710 ;;      1126 rIdx = r0x1051 
0120   00??           04711         MOVWF   r0x1014
                      04712 ;; ***  addSign  1087
                      04713 ;;; /home/sdcc-builder/build/sdcc-build/orig/sdcc/src/pic14/genarith.c:1088:addSign *{*
                      04714 ;;; /home/sdcc-builder/build/sdcc-build/orig/sdcc/src/pic14/gen.c:2358:resultRemat *{*
                      04715 ;;; /home/sdcc-builder/build/sdcc-build/orig/sdcc/src/pic14/gen.c:4023:genAnd *{*
                      04716 ;; ***  genAnd  4024
                      04717 ;; ***  aopForSym 324
                      04718 ;;      336 sym->rname = _PORTE, size = 1
                      04719 ;;      708 register type nRegs=1
                      04720 ;;      708 register type nRegs=1
                      04721 ;;      line = 4059 result AOP_REG=r0x1051, size=1, left AOP_REG=r0x1051, size=1, right AOP_DIR=_PORTE, 
                            size=1
gpasm-1.5.0 #1285 (Sep 12 2016) obj\Debug\gpi   8-8-2021  22:26:03          PAGE 91


LOC    OBJECT CODE    LINE  SOURCE TEXT
  VALUE

                      04722 ;; >>> /home/sdcc-builder/build/sdcc-build/orig/sdcc/src/pic14/gen.c:4241:genAnd
                      04723 ;;      1027
                      04724 ;;      1045  _PORTE   offset=0
0121   0??? 0???      04725         BANKSEL _PORTE
0123   08??           04726         MOVF    _PORTE,W
                      04727 ;; >>> /home/sdcc-builder/build/sdcc-build/orig/sdcc/src/pic14/gen.c:4242:genAnd
                      04728 ;;      1126 rIdx = r0x1051 
0124   0??? 0???      04729         BANKSEL r0x1014
0126   05??           04730         ANDWF   r0x1014,F
                      04731 ;;; /home/sdcc-builder/build/sdcc-build/orig/sdcc/src/pic14/gen.c:2358:resultRemat *{*
                      04732 ;;; /home/sdcc-builder/build/sdcc-build/orig/sdcc/src/pic14/gen.c:5667:genGenericShift *{*
                      04733 ;; ***  genGenericShift  5670
                      04734 ;;      708 register type nRegs=1
                      04735 ;;      708 register type nRegs=1
                      04736 ;;      708 register type nRegs=1
                      04737 ;; ***  mov2w  1395  offset=0
                      04738 ;; >>> /home/sdcc-builder/build/sdcc-build/orig/sdcc/src/pic14/gen.c:1400:mov2w
                      04739 ;;      1126 rIdx = r0x1053 
0127   08??           04740         MOVF    r0x1016,W
                      04741 ;; >>> /home/sdcc-builder/build/sdcc-build/orig/sdcc/src/pic14/gen.c:1407:movwf
                      04742 ;;      1126 rIdx = r0x1054 
0128   00??           04743         MOVWF   r0x1017
                      04744 ;; ***  addSign  1087
                      04745 ;;; /home/sdcc-builder/build/sdcc-build/orig/sdcc/src/pic14/genarith.c:1088:addSign *{*
                      04746 ;; ***  mov2w  1395  offset=0
                      04747 ;; >>> /home/sdcc-builder/build/sdcc-build/orig/sdcc/src/pic14/gen.c:1400:mov2w
                      04748 ;;      1126 rIdx = r0x1052 
0129   08??           04749         MOVF    r0x1015,W
                      04750 ;; >>> /home/sdcc-builder/build/sdcc-build/orig/sdcc/src/pic14/gen.c:5741:genGenericShift
012A   3C00           04751         SUBLW   0x00
                      04752 ;; >>> /home/sdcc-builder/build/sdcc-build/orig/sdcc/src/pic14/gen.c:5743:genGenericShift
012B   1903           04753         BTFSC   STATUS,2
                      04754 ;; >>> /home/sdcc-builder/build/sdcc-build/orig/sdcc/src/pic14/gen.c:5744:genGenericShift
                      04755 ;; ***  popGetLabel  key=45, label offset 58
012C   2???           04756         GOTO    _00203_DS_
                      04757 ;;; /home/sdcc-builder/build/sdcc-build/orig/sdcc/src/pic14/gen.c:5618:genMultiAsm *{*
                      04758 ;; ***  genMultiAsm  5619
                      04759 ;; >>> /home/sdcc-builder/build/sdcc-build/orig/sdcc/src/pic14/gen.c:5636:genMultiAsm
                      04760 ;;      1126 rIdx = r0x1054 
012D                  04761 _00202_DS_:
012D   0??? 0???      04762         BANKSEL r0x1017
012F   0D??           04763         RLF     r0x1017,F
                      04764 ;; >>> /home/sdcc-builder/build/sdcc-build/orig/sdcc/src/pic14/gen.c:5750:genGenericShift
0130   3E01           04765         ADDLW   0x01
                      04766 ;; >>> /home/sdcc-builder/build/sdcc-build/orig/sdcc/src/pic14/gen.c:5751:genGenericShift
0131   1C03           04767         BTFSS   STATUS,0
                      04768 ;; >>> /home/sdcc-builder/build/sdcc-build/orig/sdcc/src/pic14/gen.c:5752:genGenericShift
                      04769 ;; ***  popGetLabel  key=44, label offset 58
0132   2???           04770         GOTO    _00202_DS_
                      04771 ;;; /home/sdcc-builder/build/sdcc-build/orig/sdcc/src/pic14/gen.c:2358:resultRemat *{*
                      04772 ;;; /home/sdcc-builder/build/sdcc-build/orig/sdcc/src/pic14/gen.c:4324:genOr *{*
                      04773 ;; ***  genOr  4325
                      04774 ;;      708 register type nRegs=1
gpasm-1.5.0 #1285 (Sep 12 2016) obj\Debug\gpi   8-8-2021  22:26:03          PAGE 92


LOC    OBJECT CODE    LINE  SOURCE TEXT
  VALUE

                      04775 ;;      708 register type nRegs=1
                      04776 ;; ***  aopForSym 324
                      04777 ;;      336 sym->rname = _PORTE, size = 1
                      04778 ;;      line = 4331 result AOP_DIR=_PORTE, size=1, left AOP_REG=r0x1051, size=1, right AOP_REG=r0x1054, 
                            size=1
                      04779 ;;      line = 4357 result AOP_DIR=_PORTE, size=1, left AOP_REG=r0x1051, size=1, right AOP_REG=r0x1054, 
                            size=1
                      04780 ;; >>> /home/sdcc-builder/build/sdcc-build/orig/sdcc/src/pic14/gen.c:4583:genOr
                      04781 ;;      1126 rIdx = r0x1054 
0133                  04782 _00203_DS_:
0133   0??? 0???      04783         BANKSEL r0x1017
0135   08??           04784         MOVF    r0x1017,W
                      04785 ;; >>> /home/sdcc-builder/build/sdcc-build/orig/sdcc/src/pic14/gen.c:4584:genOr
                      04786 ;;      1126 rIdx = r0x1051 
0136   04??           04787         IORWF   r0x1014,W
                      04788 ;; >>> /home/sdcc-builder/build/sdcc-build/orig/sdcc/src/pic14/gen.c:4585:genOr
                      04789 ;;      1027
                      04790 ;;      1045  _PORTE   offset=0
0137   0??? 0???      04791         BANKSEL _PORTE
0139   00??           04792         MOVWF   _PORTE
                      04793 ;;; /home/sdcc-builder/build/sdcc-build/orig/sdcc/src/pic14/gen.c:2358:resultRemat *{*
                      04794 ;;; /home/sdcc-builder/build/sdcc-build/orig/sdcc/src/pic14/gen.c:2802:genLabel *{*
                      04795 ;; ***  genLabel  2805
                      04796 ;;; /home/sdcc-builder/build/sdcc-build/orig/sdcc/src/pic14/gen.c:2358:resultRemat *{*
                      04797 ;;; /home/sdcc-builder/build/sdcc-build/orig/sdcc/src/pic14/gen.c:2570:genEndFunction *{*
                      04798 ;; ***  genEndFunction  2572
013A                  04799 _00166_DS_:
                      04800         .line   104; "gpio.c"   }
013A   0008           04801         RETURN  
                      04802 ; exit point of _GPIO_SetPinState
                      04803 ;;; /home/sdcc-builder/build/sdcc-build/orig/sdcc/src/pic14/gen.c:7710:genpic14Code *{*
                      04804 
                      04805 ;***
                      04806 ;  pBlock Stats: dbName = C
                      04807 ;***
                      04808 ;has an exit
                      04809 ;3 compiler assigned registers:
                      04810 ;   r0x1018
                      04811 ;   STK00
                      04812 ;   r0x1019
                      04813 ;; Starting pCode block
                      04814 ;;; /home/sdcc-builder/build/sdcc-build/orig/sdcc/src/pic14/gen.c:2358:resultRemat *{*
                      04815 ;;; /home/sdcc-builder/build/sdcc-build/orig/sdcc/src/pic14/gen.c:2802:genLabel *{*
                      04816 ;; ***  genLabel  2805
                      04817 ;;; /home/sdcc-builder/build/sdcc-build/orig/sdcc/src/pic14/gen.c:2358:resultRemat *{*
                      04818 ;;; /home/sdcc-builder/build/sdcc-build/orig/sdcc/src/pic14/gen.c:2382:genFunction *{*
                      04819 ;; ***  genFunction  2384 curr label offset=20previous max_key=15 
                      04820 S_gpio__GPIO_SetPortDirection   code
0000                  04821 _GPIO_SetPortDirection:
                      04822 ; 2 exit points
                      04823 ;;; /home/sdcc-builder/build/sdcc-build/orig/sdcc/src/pic14/gen.c:2358:resultRemat *{*
                      04824 ;;; /home/sdcc-builder/build/sdcc-build/orig/sdcc/src/pic14/gen.c:7642:genReceive *{*
                      04825 ;; ***  genReceive  7643
gpasm-1.5.0 #1285 (Sep 12 2016) obj\Debug\gpi   8-8-2021  22:26:03          PAGE 93


LOC    OBJECT CODE    LINE  SOURCE TEXT
  VALUE

                      04826 ;;      708 register type nRegs=1
                      04827 ;;; /home/sdcc-builder/build/sdcc-build/orig/sdcc/src/pic14/gen.c:1929:assignResultValue *{*
                      04828 ;; ***  assignResultValue  1931
                      04829 ;;      line = 1933 result -=-, size=0, left AOP_REG=r0x104F, size=1, right -=-, size=0
                      04830 ;; >>> /home/sdcc-builder/build/sdcc-build/orig/sdcc/src/pic14/gen.c:1407:movwf
                      04831 ;;      1126 rIdx = r0x104F 
                      04832         .line   57; "gpio.c"    void GPIO_SetPortDirection(tPORT port,tPORT_DIRECTION direction)
0000   0??? 0???      04833         BANKSEL r0x1018
0002   00??           04834         MOVWF   r0x1018
                      04835 ;;; /home/sdcc-builder/build/sdcc-build/orig/sdcc/src/pic14/gen.c:2358:resultRemat *{*
                      04836 ;;; /home/sdcc-builder/build/sdcc-build/orig/sdcc/src/pic14/gen.c:7642:genReceive *{*
                      04837 ;; ***  genReceive  7643
                      04838 ;;      708 register type nRegs=1
                      04839 ;;; /home/sdcc-builder/build/sdcc-build/orig/sdcc/src/pic14/gen.c:1929:assignResultValue *{*
                      04840 ;; ***  assignResultValue  1931
                      04841 ;;      line = 1933 result -=-, size=0, left AOP_REG=r0x1050, size=1, right -=-, size=0
                      04842 ;; >>> /home/sdcc-builder/build/sdcc-build/orig/sdcc/src/pic14/gen.c:1437:get_returnvalue
                      04843 ;; ***  popRegFromIdx,1059  , rIdx=0x7f
0003   08??           04844         MOVF    STK00,W
                      04845 ;; >>> /home/sdcc-builder/build/sdcc-build/orig/sdcc/src/pic14/gen.c:1407:movwf
                      04846 ;;      1126 rIdx = r0x1050 
0004   00??           04847         MOVWF   r0x1019
                      04848 ;;; /home/sdcc-builder/build/sdcc-build/orig/sdcc/src/pic14/gen.c:2358:resultRemat *{*
                      04849 ;;; /home/sdcc-builder/build/sdcc-build/orig/sdcc/src/pic14/gen.c:3616:genCmpGt *{*
                      04850 ;; ***  genCmpGt  3617
                      04851 ;;      708 register type nRegs=1
                      04852 ;;; /home/sdcc-builder/build/sdcc-build/orig/sdcc/src/pic14/gen.c:3354:genCmp *{*
                      04853 ;;swapping arguments (AOP_TYPEs 1/2)
                      04854 ;;unsigned compare: left >= lit(0x5=5), size=1
                      04855 ;; >>> /home/sdcc-builder/build/sdcc-build/orig/sdcc/src/pic14/gen.c:3325:pic14_mov2w_regOrLit
                      04856         .line   59; "gpio.c"    switch(port)
0005   3005           04857         MOVLW   0x05
                      04858 ;; >>> /home/sdcc-builder/build/sdcc-build/orig/sdcc/src/pic14/gen.c:3492:genCmp
                      04859 ;;      1126 rIdx = r0x104F 
0006   02??           04860         SUBWF   r0x1018,W
                      04861 ;;; /home/sdcc-builder/build/sdcc-build/orig/sdcc/src/pic14/gen.c:3297:genSkipc *{*
                      04862 ;; >>> /home/sdcc-builder/build/sdcc-build/orig/sdcc/src/pic14/gen.c:3302:genSkipc
0007   1803           04863         BTFSC   STATUS,0
                      04864 ;; >>> /home/sdcc-builder/build/sdcc-build/orig/sdcc/src/pic14/gen.c:3306:genSkipc
                      04865 ;; ***  popGetLabel  key=8, label offset 39
0008   2???           04866         GOTO    _00147_DS_
                      04867 ;;genSkipc:3307: created from rifx:0000000000BC9340
                      04868 ;;; /home/sdcc-builder/build/sdcc-build/orig/sdcc/src/pic14/gen.c:2358:resultRemat *{*
                      04869 ;;; /home/sdcc-builder/build/sdcc-build/orig/sdcc/src/pic14/gen.c:2358:resultRemat *{*
                      04870 ;;; /home/sdcc-builder/build/sdcc-build/orig/sdcc/src/pic14/gen.c:7337:genJumpTab *{*
                      04871 ;; ***  genJumpTab  7338
                      04872 ;;      708 register type nRegs=1
                      04873 ;; >>> /home/sdcc-builder/build/sdcc-build/orig/sdcc/src/pic14/gen.c:7353:genJumpTab
                      04874 ;; ***  popGetLabel  key=15, label offset 39
0009   30??           04875         MOVLW   HIGH(_00154_DS_)
                      04876 ;; >>> /home/sdcc-builder/build/sdcc-build/orig/sdcc/src/pic14/gen.c:7354:genJumpTab
000A   1283 1303      04877         BANKSEL PCLATH
000C   008A           04878         MOVWF   PCLATH
gpasm-1.5.0 #1285 (Sep 12 2016) obj\Debug\gpi   8-8-2021  22:26:03          PAGE 94


LOC    OBJECT CODE    LINE  SOURCE TEXT
  VALUE

                      04879 ;; >>> /home/sdcc-builder/build/sdcc-build/orig/sdcc/src/pic14/gen.c:7355:genJumpTab
                      04880 ;; ***  popGetLabel  key=15, label offset 39
000D   30??           04881         MOVLW   _00154_DS_
                      04882 ;; >>> /home/sdcc-builder/build/sdcc-build/orig/sdcc/src/pic14/gen.c:7356:genJumpTab
                      04883 ;;      1126 rIdx = r0x104F 
000E   0??? 0???      04884         BANKSEL r0x1018
0010   07??           04885         ADDWF   r0x1018,W
                      04886 ;; >>> /home/sdcc-builder/build/sdcc-build/orig/sdcc/src/pic14/gen.c:7357:genJumpTab
0011   1C03           04887         BTFSS   STATUS,0
0012   2???           04888         GOTO    _00007_DS_
                      04889 ;; >>> /home/sdcc-builder/build/sdcc-build/orig/sdcc/src/pic14/gen.c:7358:genJumpTab
0013   1283 1303      04890         BANKSEL PCLATH
0015   0A8A           04891         INCF    PCLATH,F
                      04892 ;; >>> /home/sdcc-builder/build/sdcc-build/orig/sdcc/src/pic14/gen.c:7359:genJumpTab
0016                  04893 _00007_DS_:
0016   0082           04894         MOVWF   PCL
                      04895 ;; >>> /home/sdcc-builder/build/sdcc-build/orig/sdcc/src/pic14/gen.c:7368:genJumpTab
                      04896 ;; ***  popGetLabel  key=1, label offset 39
0017                  04897 _00154_DS_:
0017   2???           04898         GOTO    _00140_DS_
                      04899 ;; >>> /home/sdcc-builder/build/sdcc-build/orig/sdcc/src/pic14/gen.c:7368:genJumpTab
                      04900 ;; ***  popGetLabel  key=2, label offset 39
0018   2???           04901         GOTO    _00141_DS_
                      04902 ;; >>> /home/sdcc-builder/build/sdcc-build/orig/sdcc/src/pic14/gen.c:7368:genJumpTab
                      04903 ;; ***  popGetLabel  key=3, label offset 39
0019   2???           04904         GOTO    _00142_DS_
                      04905 ;; >>> /home/sdcc-builder/build/sdcc-build/orig/sdcc/src/pic14/gen.c:7368:genJumpTab
                      04906 ;; ***  popGetLabel  key=4, label offset 39
001A   2???           04907         GOTO    _00143_DS_
                      04908 ;; >>> /home/sdcc-builder/build/sdcc-build/orig/sdcc/src/pic14/gen.c:7368:genJumpTab
                      04909 ;; ***  popGetLabel  key=5, label offset 39
001B   2???           04910         GOTO    _00144_DS_
                      04911 ;;; /home/sdcc-builder/build/sdcc-build/orig/sdcc/src/pic14/gen.c:2358:resultRemat *{*
                      04912 ;;; /home/sdcc-builder/build/sdcc-build/orig/sdcc/src/pic14/gen.c:2802:genLabel *{*
                      04913 ;; ***  genLabel  2805
                      04914 ;;; /home/sdcc-builder/build/sdcc-build/orig/sdcc/src/pic14/gen.c:2358:resultRemat *{*
                      04915 ;;; /home/sdcc-builder/build/sdcc-build/orig/sdcc/src/pic14/gen.c:7192:genAssign *{*
                      04916 ;; ***  genAssign  7193
                      04917 ;;      708 register type nRegs=1
                      04918 ;; ***  aopForSym 324
                      04919 ;;      336 sym->rname = _TRISA, size = 1
                      04920 ;;      line = 7202 result AOP_DIR=_TRISA, size=1, left -=-, size=0, right AOP_REG=r0x1050, size=1
                      04921 ;; ***  genAssign  7286
                      04922 ;;; /home/sdcc-builder/build/sdcc-build/orig/sdcc/src/pic14/gen.c:1357:mov2w_op *{*
                      04923 ;; ***  mov2w  1395  offset=0
                      04924 ;; >>> /home/sdcc-builder/build/sdcc-build/orig/sdcc/src/pic14/gen.c:1400:mov2w
                      04925 ;;      1126 rIdx = r0x1050 
001C                  04926 _00140_DS_:
                      04927         .line   62; "gpio.c"    SetRegister(TRISA,direction) ;
001C   0??? 0???      04928         BANKSEL r0x1019
001E   08??           04929         MOVF    r0x1019,W
                      04930 ;; >>> /home/sdcc-builder/build/sdcc-build/orig/sdcc/src/pic14/gen.c:7313:genAssign
                      04931 ;;      1027
gpasm-1.5.0 #1285 (Sep 12 2016) obj\Debug\gpi   8-8-2021  22:26:03          PAGE 95


LOC    OBJECT CODE    LINE  SOURCE TEXT
  VALUE

                      04932 ;;      1045  _TRISA   offset=0
001F   0??? 0???      04933         BANKSEL _TRISA
0021   00??           04934         MOVWF   _TRISA
                      04935 ;;; /home/sdcc-builder/build/sdcc-build/orig/sdcc/src/pic14/gen.c:2358:resultRemat *{*
                      04936 ;;; /home/sdcc-builder/build/sdcc-build/orig/sdcc/src/pic14/gen.c:2820:genGoto *{*
                      04937 ;; >>> /home/sdcc-builder/build/sdcc-build/orig/sdcc/src/pic14/gen.c:2822:genGoto
                      04938 ;; ***  popGetLabel  key=8, label offset 39
                      04939         .line   63; "gpio.c"    break;
0022   2???           04940         GOTO    _00147_DS_
                      04941 ;;; /home/sdcc-builder/build/sdcc-build/orig/sdcc/src/pic14/gen.c:2358:resultRemat *{*
                      04942 ;;; /home/sdcc-builder/build/sdcc-build/orig/sdcc/src/pic14/gen.c:2802:genLabel *{*
                      04943 ;; ***  genLabel  2805
                      04944 ;;; /home/sdcc-builder/build/sdcc-build/orig/sdcc/src/pic14/gen.c:2358:resultRemat *{*
                      04945 ;;; /home/sdcc-builder/build/sdcc-build/orig/sdcc/src/pic14/gen.c:7192:genAssign *{*
                      04946 ;; ***  genAssign  7193
                      04947 ;;      708 register type nRegs=1
                      04948 ;; ***  aopForSym 324
                      04949 ;;      336 sym->rname = _TRISB, size = 1
                      04950 ;;      line = 7202 result AOP_DIR=_TRISB, size=1, left -=-, size=0, right AOP_REG=r0x1050, size=1
                      04951 ;; ***  genAssign  7286
                      04952 ;;; /home/sdcc-builder/build/sdcc-build/orig/sdcc/src/pic14/gen.c:1357:mov2w_op *{*
                      04953 ;; ***  mov2w  1395  offset=0
                      04954 ;; >>> /home/sdcc-builder/build/sdcc-build/orig/sdcc/src/pic14/gen.c:1400:mov2w
                      04955 ;;      1126 rIdx = r0x1050 
0023                  04956 _00141_DS_:
                      04957         .line   65; "gpio.c"    SetRegister(TRISB,direction) ;
0023   0??? 0???      04958         BANKSEL r0x1019
0025   08??           04959         MOVF    r0x1019,W
                      04960 ;; >>> /home/sdcc-builder/build/sdcc-build/orig/sdcc/src/pic14/gen.c:7313:genAssign
                      04961 ;;      1027
                      04962 ;;      1045  _TRISB   offset=0
0026   0??? 0???      04963         BANKSEL _TRISB
0028   00??           04964         MOVWF   _TRISB
                      04965 ;;; /home/sdcc-builder/build/sdcc-build/orig/sdcc/src/pic14/gen.c:2358:resultRemat *{*
                      04966 ;;; /home/sdcc-builder/build/sdcc-build/orig/sdcc/src/pic14/gen.c:2820:genGoto *{*
                      04967 ;; >>> /home/sdcc-builder/build/sdcc-build/orig/sdcc/src/pic14/gen.c:2822:genGoto
                      04968 ;; ***  popGetLabel  key=8, label offset 39
                      04969         .line   66; "gpio.c"    break;
0029   2???           04970         GOTO    _00147_DS_
                      04971 ;;; /home/sdcc-builder/build/sdcc-build/orig/sdcc/src/pic14/gen.c:2358:resultRemat *{*
                      04972 ;;; /home/sdcc-builder/build/sdcc-build/orig/sdcc/src/pic14/gen.c:2802:genLabel *{*
                      04973 ;; ***  genLabel  2805
                      04974 ;;; /home/sdcc-builder/build/sdcc-build/orig/sdcc/src/pic14/gen.c:2358:resultRemat *{*
                      04975 ;;; /home/sdcc-builder/build/sdcc-build/orig/sdcc/src/pic14/gen.c:7192:genAssign *{*
                      04976 ;; ***  genAssign  7193
                      04977 ;;      708 register type nRegs=1
                      04978 ;; ***  aopForSym 324
                      04979 ;;      336 sym->rname = _TRISC, size = 1
                      04980 ;;      line = 7202 result AOP_DIR=_TRISC, size=1, left -=-, size=0, right AOP_REG=r0x1050, size=1
                      04981 ;; ***  genAssign  7286
                      04982 ;;; /home/sdcc-builder/build/sdcc-build/orig/sdcc/src/pic14/gen.c:1357:mov2w_op *{*
                      04983 ;; ***  mov2w  1395  offset=0
                      04984 ;; >>> /home/sdcc-builder/build/sdcc-build/orig/sdcc/src/pic14/gen.c:1400:mov2w
gpasm-1.5.0 #1285 (Sep 12 2016) obj\Debug\gpi   8-8-2021  22:26:03          PAGE 96


LOC    OBJECT CODE    LINE  SOURCE TEXT
  VALUE

                      04985 ;;      1126 rIdx = r0x1050 
002A                  04986 _00142_DS_:
                      04987         .line   68; "gpio.c"    SetRegister(TRISC,direction) ;
002A   0??? 0???      04988         BANKSEL r0x1019
002C   08??           04989         MOVF    r0x1019,W
                      04990 ;; >>> /home/sdcc-builder/build/sdcc-build/orig/sdcc/src/pic14/gen.c:7313:genAssign
                      04991 ;;      1027
                      04992 ;;      1045  _TRISC   offset=0
002D   0??? 0???      04993         BANKSEL _TRISC
002F   00??           04994         MOVWF   _TRISC
                      04995 ;;; /home/sdcc-builder/build/sdcc-build/orig/sdcc/src/pic14/gen.c:2358:resultRemat *{*
                      04996 ;;; /home/sdcc-builder/build/sdcc-build/orig/sdcc/src/pic14/gen.c:2820:genGoto *{*
                      04997 ;; >>> /home/sdcc-builder/build/sdcc-build/orig/sdcc/src/pic14/gen.c:2822:genGoto
                      04998 ;; ***  popGetLabel  key=8, label offset 39
                      04999         .line   69; "gpio.c"    break;
0030   2???           05000         GOTO    _00147_DS_
                      05001 ;;; /home/sdcc-builder/build/sdcc-build/orig/sdcc/src/pic14/gen.c:2358:resultRemat *{*
                      05002 ;;; /home/sdcc-builder/build/sdcc-build/orig/sdcc/src/pic14/gen.c:2802:genLabel *{*
                      05003 ;; ***  genLabel  2805
                      05004 ;;; /home/sdcc-builder/build/sdcc-build/orig/sdcc/src/pic14/gen.c:2358:resultRemat *{*
                      05005 ;;; /home/sdcc-builder/build/sdcc-build/orig/sdcc/src/pic14/gen.c:7192:genAssign *{*
                      05006 ;; ***  genAssign  7193
                      05007 ;;      708 register type nRegs=1
                      05008 ;; ***  aopForSym 324
                      05009 ;;      336 sym->rname = _TRISD, size = 1
                      05010 ;;      line = 7202 result AOP_DIR=_TRISD, size=1, left -=-, size=0, right AOP_REG=r0x1050, size=1
                      05011 ;; ***  genAssign  7286
                      05012 ;;; /home/sdcc-builder/build/sdcc-build/orig/sdcc/src/pic14/gen.c:1357:mov2w_op *{*
                      05013 ;; ***  mov2w  1395  offset=0
                      05014 ;; >>> /home/sdcc-builder/build/sdcc-build/orig/sdcc/src/pic14/gen.c:1400:mov2w
                      05015 ;;      1126 rIdx = r0x1050 
0031                  05016 _00143_DS_:
                      05017         .line   71; "gpio.c"    SetRegister(TRISD,direction) ;
0031   0??? 0???      05018         BANKSEL r0x1019
0033   08??           05019         MOVF    r0x1019,W
                      05020 ;; >>> /home/sdcc-builder/build/sdcc-build/orig/sdcc/src/pic14/gen.c:7313:genAssign
                      05021 ;;      1027
                      05022 ;;      1045  _TRISD   offset=0
0034   0??? 0???      05023         BANKSEL _TRISD
0036   00??           05024         MOVWF   _TRISD
                      05025 ;;; /home/sdcc-builder/build/sdcc-build/orig/sdcc/src/pic14/gen.c:2358:resultRemat *{*
                      05026 ;;; /home/sdcc-builder/build/sdcc-build/orig/sdcc/src/pic14/gen.c:2820:genGoto *{*
                      05027 ;; >>> /home/sdcc-builder/build/sdcc-build/orig/sdcc/src/pic14/gen.c:2822:genGoto
                      05028 ;; ***  popGetLabel  key=8, label offset 39
                      05029         .line   72; "gpio.c"    break;
0037   2???           05030         GOTO    _00147_DS_
                      05031 ;;; /home/sdcc-builder/build/sdcc-build/orig/sdcc/src/pic14/gen.c:2358:resultRemat *{*
                      05032 ;;; /home/sdcc-builder/build/sdcc-build/orig/sdcc/src/pic14/gen.c:2802:genLabel *{*
                      05033 ;; ***  genLabel  2805
                      05034 ;;; /home/sdcc-builder/build/sdcc-build/orig/sdcc/src/pic14/gen.c:2358:resultRemat *{*
                      05035 ;;; /home/sdcc-builder/build/sdcc-build/orig/sdcc/src/pic14/gen.c:7192:genAssign *{*
                      05036 ;; ***  genAssign  7193
                      05037 ;;      708 register type nRegs=1
gpasm-1.5.0 #1285 (Sep 12 2016) obj\Debug\gpi   8-8-2021  22:26:03          PAGE 97


LOC    OBJECT CODE    LINE  SOURCE TEXT
  VALUE

                      05038 ;; ***  aopForSym 324
                      05039 ;;      336 sym->rname = _TRISE, size = 1
                      05040 ;;      line = 7202 result AOP_DIR=_TRISE, size=1, left -=-, size=0, right AOP_REG=r0x1050, size=1
                      05041 ;; ***  genAssign  7286
                      05042 ;;; /home/sdcc-builder/build/sdcc-build/orig/sdcc/src/pic14/gen.c:1357:mov2w_op *{*
                      05043 ;; ***  mov2w  1395  offset=0
                      05044 ;; >>> /home/sdcc-builder/build/sdcc-build/orig/sdcc/src/pic14/gen.c:1400:mov2w
                      05045 ;;      1126 rIdx = r0x1050 
0038                  05046 _00144_DS_:
                      05047         .line   74; "gpio.c"    SetRegister(TRISE,direction) ;
0038   0??? 0???      05048         BANKSEL r0x1019
003A   08??           05049         MOVF    r0x1019,W
                      05050 ;; >>> /home/sdcc-builder/build/sdcc-build/orig/sdcc/src/pic14/gen.c:7313:genAssign
                      05051 ;;      1027
                      05052 ;;      1045  _TRISE   offset=0
003B   0??? 0???      05053         BANKSEL _TRISE
003D   00??           05054         MOVWF   _TRISE
                      05055 ;;; /home/sdcc-builder/build/sdcc-build/orig/sdcc/src/pic14/gen.c:2358:resultRemat *{*
                      05056 ;;; /home/sdcc-builder/build/sdcc-build/orig/sdcc/src/pic14/gen.c:2802:genLabel *{*
                      05057 ;; ***  genLabel  2805
                      05058 ;;; /home/sdcc-builder/build/sdcc-build/orig/sdcc/src/pic14/gen.c:2358:resultRemat *{*
                      05059 ;;; /home/sdcc-builder/build/sdcc-build/orig/sdcc/src/pic14/gen.c:2570:genEndFunction *{*
                      05060 ;; ***  genEndFunction  2572
003E                  05061 _00147_DS_:
                      05062         .line   80; "gpio.c"    }
003E   0008           05063         RETURN  
                      05064 ; exit point of _GPIO_SetPortDirection
                      05065 ;;; /home/sdcc-builder/build/sdcc-build/orig/sdcc/src/pic14/gen.c:7710:genpic14Code *{*
                      05066 
                      05067 ;***
                      05068 ;  pBlock Stats: dbName = C
                      05069 ;***
                      05070 ;has an exit
                      05071 ;3 compiler assigned registers:
                      05072 ;   r0x101A
                      05073 ;   STK00
                      05074 ;   r0x101B
                      05075 ;; Starting pCode block
                      05076 ;;; /home/sdcc-builder/build/sdcc-build/orig/sdcc/src/pic14/gen.c:2358:resultRemat *{*
                      05077 ;;; /home/sdcc-builder/build/sdcc-build/orig/sdcc/src/pic14/gen.c:2802:genLabel *{*
                      05078 ;; ***  genLabel  2805
                      05079 ;;; /home/sdcc-builder/build/sdcc-build/orig/sdcc/src/pic14/gen.c:2358:resultRemat *{*
                      05080 ;;; /home/sdcc-builder/build/sdcc-build/orig/sdcc/src/pic14/gen.c:2382:genFunction *{*
                      05081 ;; ***  genFunction  2384 curr label offset=16previous max_key=0 
                      05082 S_gpio__GPIO_SetPortData        code
0000                  05083 _GPIO_SetPortData:
                      05084 ; 2 exit points
                      05085 ;;; /home/sdcc-builder/build/sdcc-build/orig/sdcc/src/pic14/gen.c:2358:resultRemat *{*
                      05086 ;;; /home/sdcc-builder/build/sdcc-build/orig/sdcc/src/pic14/gen.c:7642:genReceive *{*
                      05087 ;; ***  genReceive  7643
                      05088 ;;      708 register type nRegs=1
                      05089 ;;; /home/sdcc-builder/build/sdcc-build/orig/sdcc/src/pic14/gen.c:1929:assignResultValue *{*
                      05090 ;; ***  assignResultValue  1931
gpasm-1.5.0 #1285 (Sep 12 2016) obj\Debug\gpi   8-8-2021  22:26:03          PAGE 98


LOC    OBJECT CODE    LINE  SOURCE TEXT
  VALUE

                      05091 ;;      line = 1933 result -=-, size=0, left AOP_REG=r0x104C, size=1, right -=-, size=0
                      05092 ;; >>> /home/sdcc-builder/build/sdcc-build/orig/sdcc/src/pic14/gen.c:1407:movwf
                      05093 ;;      1126 rIdx = r0x104C 
                      05094         .line   33; "gpio.c"    void GPIO_SetPortData(tPORT port,U8 data)
0000   0??? 0???      05095         BANKSEL r0x101A
0002   00??           05096         MOVWF   r0x101A
                      05097 ;;; /home/sdcc-builder/build/sdcc-build/orig/sdcc/src/pic14/gen.c:2358:resultRemat *{*
                      05098 ;;; /home/sdcc-builder/build/sdcc-build/orig/sdcc/src/pic14/gen.c:7642:genReceive *{*
                      05099 ;; ***  genReceive  7643
                      05100 ;;      708 register type nRegs=1
                      05101 ;;; /home/sdcc-builder/build/sdcc-build/orig/sdcc/src/pic14/gen.c:1929:assignResultValue *{*
                      05102 ;; ***  assignResultValue  1931
                      05103 ;;      line = 1933 result -=-, size=0, left AOP_REG=r0x104D, size=1, right -=-, size=0
                      05104 ;; >>> /home/sdcc-builder/build/sdcc-build/orig/sdcc/src/pic14/gen.c:1437:get_returnvalue
                      05105 ;; ***  popRegFromIdx,1059  , rIdx=0x7f
0003   08??           05106         MOVF    STK00,W
                      05107 ;; >>> /home/sdcc-builder/build/sdcc-build/orig/sdcc/src/pic14/gen.c:1407:movwf
                      05108 ;;      1126 rIdx = r0x104D 
0004   00??           05109         MOVWF   r0x101B
                      05110 ;;; /home/sdcc-builder/build/sdcc-build/orig/sdcc/src/pic14/gen.c:2358:resultRemat *{*
                      05111 ;;; /home/sdcc-builder/build/sdcc-build/orig/sdcc/src/pic14/gen.c:3616:genCmpGt *{*
                      05112 ;; ***  genCmpGt  3617
                      05113 ;;      708 register type nRegs=1
                      05114 ;;; /home/sdcc-builder/build/sdcc-build/orig/sdcc/src/pic14/gen.c:3354:genCmp *{*
                      05115 ;;swapping arguments (AOP_TYPEs 1/2)
                      05116 ;;unsigned compare: left >= lit(0x5=5), size=1
                      05117 ;; >>> /home/sdcc-builder/build/sdcc-build/orig/sdcc/src/pic14/gen.c:3325:pic14_mov2w_regOrLit
                      05118         .line   35; "gpio.c"    switch(port)
0005   3005           05119         MOVLW   0x05
                      05120 ;; >>> /home/sdcc-builder/build/sdcc-build/orig/sdcc/src/pic14/gen.c:3492:genCmp
                      05121 ;;      1126 rIdx = r0x104C 
0006   02??           05122         SUBWF   r0x101A,W
                      05123 ;;; /home/sdcc-builder/build/sdcc-build/orig/sdcc/src/pic14/gen.c:3297:genSkipc *{*
                      05124 ;; >>> /home/sdcc-builder/build/sdcc-build/orig/sdcc/src/pic14/gen.c:3302:genSkipc
0007   1803           05125         BTFSC   STATUS,0
                      05126 ;; >>> /home/sdcc-builder/build/sdcc-build/orig/sdcc/src/pic14/gen.c:3306:genSkipc
                      05127 ;; ***  popGetLabel  key=8, label offset 20
0008   2???           05128         GOTO    _00128_DS_
                      05129 ;;genSkipc:3307: created from rifx:0000000000BC9340
                      05130 ;;; /home/sdcc-builder/build/sdcc-build/orig/sdcc/src/pic14/gen.c:2358:resultRemat *{*
                      05131 ;;; /home/sdcc-builder/build/sdcc-build/orig/sdcc/src/pic14/gen.c:2358:resultRemat *{*
                      05132 ;;; /home/sdcc-builder/build/sdcc-build/orig/sdcc/src/pic14/gen.c:7337:genJumpTab *{*
                      05133 ;; ***  genJumpTab  7338
                      05134 ;;      708 register type nRegs=1
                      05135 ;; >>> /home/sdcc-builder/build/sdcc-build/orig/sdcc/src/pic14/gen.c:7353:genJumpTab
                      05136 ;; ***  popGetLabel  key=15, label offset 20
0009   30??           05137         MOVLW   HIGH(_00135_DS_)
                      05138 ;; >>> /home/sdcc-builder/build/sdcc-build/orig/sdcc/src/pic14/gen.c:7354:genJumpTab
000A   1283 1303      05139         BANKSEL PCLATH
000C   008A           05140         MOVWF   PCLATH
                      05141 ;; >>> /home/sdcc-builder/build/sdcc-build/orig/sdcc/src/pic14/gen.c:7355:genJumpTab
                      05142 ;; ***  popGetLabel  key=15, label offset 20
000D   30??           05143         MOVLW   _00135_DS_
gpasm-1.5.0 #1285 (Sep 12 2016) obj\Debug\gpi   8-8-2021  22:26:03          PAGE 99


LOC    OBJECT CODE    LINE  SOURCE TEXT
  VALUE

                      05144 ;; >>> /home/sdcc-builder/build/sdcc-build/orig/sdcc/src/pic14/gen.c:7356:genJumpTab
                      05145 ;;      1126 rIdx = r0x104C 
000E   0??? 0???      05146         BANKSEL r0x101A
0010   07??           05147         ADDWF   r0x101A,W
                      05148 ;; >>> /home/sdcc-builder/build/sdcc-build/orig/sdcc/src/pic14/gen.c:7357:genJumpTab
0011   1C03           05149         BTFSS   STATUS,0
0012   2???           05150         GOTO    _00008_DS_
                      05151 ;; >>> /home/sdcc-builder/build/sdcc-build/orig/sdcc/src/pic14/gen.c:7358:genJumpTab
0013   1283 1303      05152         BANKSEL PCLATH
0015   0A8A           05153         INCF    PCLATH,F
                      05154 ;; >>> /home/sdcc-builder/build/sdcc-build/orig/sdcc/src/pic14/gen.c:7359:genJumpTab
0016                  05155 _00008_DS_:
0016   0082           05156         MOVWF   PCL
                      05157 ;; >>> /home/sdcc-builder/build/sdcc-build/orig/sdcc/src/pic14/gen.c:7368:genJumpTab
                      05158 ;; ***  popGetLabel  key=1, label offset 20
0017                  05159 _00135_DS_:
0017   2???           05160         GOTO    _00121_DS_
                      05161 ;; >>> /home/sdcc-builder/build/sdcc-build/orig/sdcc/src/pic14/gen.c:7368:genJumpTab
                      05162 ;; ***  popGetLabel  key=2, label offset 20
0018   2???           05163         GOTO    _00122_DS_
                      05164 ;; >>> /home/sdcc-builder/build/sdcc-build/orig/sdcc/src/pic14/gen.c:7368:genJumpTab
                      05165 ;; ***  popGetLabel  key=3, label offset 20
0019   2???           05166         GOTO    _00123_DS_
                      05167 ;; >>> /home/sdcc-builder/build/sdcc-build/orig/sdcc/src/pic14/gen.c:7368:genJumpTab
                      05168 ;; ***  popGetLabel  key=4, label offset 20
001A   2???           05169         GOTO    _00124_DS_
                      05170 ;; >>> /home/sdcc-builder/build/sdcc-build/orig/sdcc/src/pic14/gen.c:7368:genJumpTab
                      05171 ;; ***  popGetLabel  key=5, label offset 20
001B   2???           05172         GOTO    _00125_DS_
                      05173 ;;; /home/sdcc-builder/build/sdcc-build/orig/sdcc/src/pic14/gen.c:2358:resultRemat *{*
                      05174 ;;; /home/sdcc-builder/build/sdcc-build/orig/sdcc/src/pic14/gen.c:2802:genLabel *{*
                      05175 ;; ***  genLabel  2805
                      05176 ;;; /home/sdcc-builder/build/sdcc-build/orig/sdcc/src/pic14/gen.c:2358:resultRemat *{*
                      05177 ;;; /home/sdcc-builder/build/sdcc-build/orig/sdcc/src/pic14/gen.c:7192:genAssign *{*
                      05178 ;; ***  genAssign  7193
                      05179 ;;      708 register type nRegs=1
                      05180 ;; ***  aopForSym 324
                      05181 ;;      336 sym->rname = _PORTA, size = 1
                      05182 ;;      line = 7202 result AOP_DIR=_PORTA, size=1, left -=-, size=0, right AOP_REG=r0x104D, size=1
                      05183 ;; ***  genAssign  7286
                      05184 ;;; /home/sdcc-builder/build/sdcc-build/orig/sdcc/src/pic14/gen.c:1357:mov2w_op *{*
                      05185 ;; ***  mov2w  1395  offset=0
                      05186 ;; >>> /home/sdcc-builder/build/sdcc-build/orig/sdcc/src/pic14/gen.c:1400:mov2w
                      05187 ;;      1126 rIdx = r0x104D 
001C                  05188 _00121_DS_:
                      05189         .line   38; "gpio.c"    SetRegister(PORTA,data) ;
001C   0??? 0???      05190         BANKSEL r0x101B
001E   08??           05191         MOVF    r0x101B,W
                      05192 ;; >>> /home/sdcc-builder/build/sdcc-build/orig/sdcc/src/pic14/gen.c:7313:genAssign
                      05193 ;;      1027
                      05194 ;;      1041  _PORTA   offset=0 - had to alloc by reg name
001F   0??? 0???      05195         BANKSEL _PORTA
0021   00??           05196         MOVWF   _PORTA
gpasm-1.5.0 #1285 (Sep 12 2016) obj\Debug\gpi   8-8-2021  22:26:03          PAGE 100


LOC    OBJECT CODE    LINE  SOURCE TEXT
  VALUE

                      05197 ;;; /home/sdcc-builder/build/sdcc-build/orig/sdcc/src/pic14/gen.c:2358:resultRemat *{*
                      05198 ;;; /home/sdcc-builder/build/sdcc-build/orig/sdcc/src/pic14/gen.c:2820:genGoto *{*
                      05199 ;; >>> /home/sdcc-builder/build/sdcc-build/orig/sdcc/src/pic14/gen.c:2822:genGoto
                      05200 ;; ***  popGetLabel  key=8, label offset 20
                      05201         .line   39; "gpio.c"    break;
0022   2???           05202         GOTO    _00128_DS_
                      05203 ;;; /home/sdcc-builder/build/sdcc-build/orig/sdcc/src/pic14/gen.c:2358:resultRemat *{*
                      05204 ;;; /home/sdcc-builder/build/sdcc-build/orig/sdcc/src/pic14/gen.c:2802:genLabel *{*
                      05205 ;; ***  genLabel  2805
                      05206 ;;; /home/sdcc-builder/build/sdcc-build/orig/sdcc/src/pic14/gen.c:2358:resultRemat *{*
                      05207 ;;; /home/sdcc-builder/build/sdcc-build/orig/sdcc/src/pic14/gen.c:7192:genAssign *{*
                      05208 ;; ***  genAssign  7193
                      05209 ;;      708 register type nRegs=1
                      05210 ;; ***  aopForSym 324
                      05211 ;;      336 sym->rname = _PORTB, size = 1
                      05212 ;;      line = 7202 result AOP_DIR=_PORTB, size=1, left -=-, size=0, right AOP_REG=r0x104D, size=1
                      05213 ;; ***  genAssign  7286
                      05214 ;;; /home/sdcc-builder/build/sdcc-build/orig/sdcc/src/pic14/gen.c:1357:mov2w_op *{*
                      05215 ;; ***  mov2w  1395  offset=0
                      05216 ;; >>> /home/sdcc-builder/build/sdcc-build/orig/sdcc/src/pic14/gen.c:1400:mov2w
                      05217 ;;      1126 rIdx = r0x104D 
0023                  05218 _00122_DS_:
                      05219         .line   41; "gpio.c"    SetRegister(PORTB,data) ;
0023   0??? 0???      05220         BANKSEL r0x101B
0025   08??           05221         MOVF    r0x101B,W
                      05222 ;; >>> /home/sdcc-builder/build/sdcc-build/orig/sdcc/src/pic14/gen.c:7313:genAssign
                      05223 ;;      1027
                      05224 ;;      1045  _PORTB   offset=0
0026   0??? 0???      05225         BANKSEL _PORTB
0028   00??           05226         MOVWF   _PORTB
                      05227 ;;; /home/sdcc-builder/build/sdcc-build/orig/sdcc/src/pic14/gen.c:2358:resultRemat *{*
                      05228 ;;; /home/sdcc-builder/build/sdcc-build/orig/sdcc/src/pic14/gen.c:2820:genGoto *{*
                      05229 ;; >>> /home/sdcc-builder/build/sdcc-build/orig/sdcc/src/pic14/gen.c:2822:genGoto
                      05230 ;; ***  popGetLabel  key=8, label offset 20
                      05231         .line   42; "gpio.c"    break;
0029   2???           05232         GOTO    _00128_DS_
                      05233 ;;; /home/sdcc-builder/build/sdcc-build/orig/sdcc/src/pic14/gen.c:2358:resultRemat *{*
                      05234 ;;; /home/sdcc-builder/build/sdcc-build/orig/sdcc/src/pic14/gen.c:2802:genLabel *{*
                      05235 ;; ***  genLabel  2805
                      05236 ;;; /home/sdcc-builder/build/sdcc-build/orig/sdcc/src/pic14/gen.c:2358:resultRemat *{*
                      05237 ;;; /home/sdcc-builder/build/sdcc-build/orig/sdcc/src/pic14/gen.c:7192:genAssign *{*
                      05238 ;; ***  genAssign  7193
                      05239 ;;      708 register type nRegs=1
                      05240 ;; ***  aopForSym 324
                      05241 ;;      336 sym->rname = _PORTC, size = 1
                      05242 ;;      line = 7202 result AOP_DIR=_PORTC, size=1, left -=-, size=0, right AOP_REG=r0x104D, size=1
                      05243 ;; ***  genAssign  7286
                      05244 ;;; /home/sdcc-builder/build/sdcc-build/orig/sdcc/src/pic14/gen.c:1357:mov2w_op *{*
                      05245 ;; ***  mov2w  1395  offset=0
                      05246 ;; >>> /home/sdcc-builder/build/sdcc-build/orig/sdcc/src/pic14/gen.c:1400:mov2w
                      05247 ;;      1126 rIdx = r0x104D 
002A                  05248 _00123_DS_:
                      05249         .line   44; "gpio.c"    SetRegister(PORTC,data) ;
gpasm-1.5.0 #1285 (Sep 12 2016) obj\Debug\gpi   8-8-2021  22:26:03          PAGE 101


LOC    OBJECT CODE    LINE  SOURCE TEXT
  VALUE

002A   0??? 0???      05250         BANKSEL r0x101B
002C   08??           05251         MOVF    r0x101B,W
                      05252 ;; >>> /home/sdcc-builder/build/sdcc-build/orig/sdcc/src/pic14/gen.c:7313:genAssign
                      05253 ;;      1027
                      05254 ;;      1045  _PORTC   offset=0
002D   0??? 0???      05255         BANKSEL _PORTC
002F   00??           05256         MOVWF   _PORTC
                      05257 ;;; /home/sdcc-builder/build/sdcc-build/orig/sdcc/src/pic14/gen.c:2358:resultRemat *{*
                      05258 ;;; /home/sdcc-builder/build/sdcc-build/orig/sdcc/src/pic14/gen.c:2820:genGoto *{*
                      05259 ;; >>> /home/sdcc-builder/build/sdcc-build/orig/sdcc/src/pic14/gen.c:2822:genGoto
                      05260 ;; ***  popGetLabel  key=8, label offset 20
                      05261         .line   45; "gpio.c"    break;
0030   2???           05262         GOTO    _00128_DS_
                      05263 ;;; /home/sdcc-builder/build/sdcc-build/orig/sdcc/src/pic14/gen.c:2358:resultRemat *{*
                      05264 ;;; /home/sdcc-builder/build/sdcc-build/orig/sdcc/src/pic14/gen.c:2802:genLabel *{*
                      05265 ;; ***  genLabel  2805
                      05266 ;;; /home/sdcc-builder/build/sdcc-build/orig/sdcc/src/pic14/gen.c:2358:resultRemat *{*
                      05267 ;;; /home/sdcc-builder/build/sdcc-build/orig/sdcc/src/pic14/gen.c:7192:genAssign *{*
                      05268 ;; ***  genAssign  7193
                      05269 ;;      708 register type nRegs=1
                      05270 ;; ***  aopForSym 324
                      05271 ;;      336 sym->rname = _PORTD, size = 1
                      05272 ;;      line = 7202 result AOP_DIR=_PORTD, size=1, left -=-, size=0, right AOP_REG=r0x104D, size=1
                      05273 ;; ***  genAssign  7286
                      05274 ;;; /home/sdcc-builder/build/sdcc-build/orig/sdcc/src/pic14/gen.c:1357:mov2w_op *{*
                      05275 ;; ***  mov2w  1395  offset=0
                      05276 ;; >>> /home/sdcc-builder/build/sdcc-build/orig/sdcc/src/pic14/gen.c:1400:mov2w
                      05277 ;;      1126 rIdx = r0x104D 
0031                  05278 _00124_DS_:
                      05279         .line   47; "gpio.c"    SetRegister(PORTD,data) ;
0031   0??? 0???      05280         BANKSEL r0x101B
0033   08??           05281         MOVF    r0x101B,W
                      05282 ;; >>> /home/sdcc-builder/build/sdcc-build/orig/sdcc/src/pic14/gen.c:7313:genAssign
                      05283 ;;      1027
                      05284 ;;      1045  _PORTD   offset=0
0034   0??? 0???      05285         BANKSEL _PORTD
0036   00??           05286         MOVWF   _PORTD
                      05287 ;;; /home/sdcc-builder/build/sdcc-build/orig/sdcc/src/pic14/gen.c:2358:resultRemat *{*
                      05288 ;;; /home/sdcc-builder/build/sdcc-build/orig/sdcc/src/pic14/gen.c:2820:genGoto *{*
                      05289 ;; >>> /home/sdcc-builder/build/sdcc-build/orig/sdcc/src/pic14/gen.c:2822:genGoto
                      05290 ;; ***  popGetLabel  key=8, label offset 20
                      05291         .line   48; "gpio.c"    break;
0037   2???           05292         GOTO    _00128_DS_
                      05293 ;;; /home/sdcc-builder/build/sdcc-build/orig/sdcc/src/pic14/gen.c:2358:resultRemat *{*
                      05294 ;;; /home/sdcc-builder/build/sdcc-build/orig/sdcc/src/pic14/gen.c:2802:genLabel *{*
                      05295 ;; ***  genLabel  2805
                      05296 ;;; /home/sdcc-builder/build/sdcc-build/orig/sdcc/src/pic14/gen.c:2358:resultRemat *{*
                      05297 ;;; /home/sdcc-builder/build/sdcc-build/orig/sdcc/src/pic14/gen.c:7192:genAssign *{*
                      05298 ;; ***  genAssign  7193
                      05299 ;;      708 register type nRegs=1
                      05300 ;; ***  aopForSym 324
                      05301 ;;      336 sym->rname = _PORTE, size = 1
                      05302 ;;      line = 7202 result AOP_DIR=_PORTE, size=1, left -=-, size=0, right AOP_REG=r0x104D, size=1
gpasm-1.5.0 #1285 (Sep 12 2016) obj\Debug\gpi   8-8-2021  22:26:03          PAGE 102


LOC    OBJECT CODE    LINE  SOURCE TEXT
  VALUE

                      05303 ;; ***  genAssign  7286
                      05304 ;;; /home/sdcc-builder/build/sdcc-build/orig/sdcc/src/pic14/gen.c:1357:mov2w_op *{*
                      05305 ;; ***  mov2w  1395  offset=0
                      05306 ;; >>> /home/sdcc-builder/build/sdcc-build/orig/sdcc/src/pic14/gen.c:1400:mov2w
                      05307 ;;      1126 rIdx = r0x104D 
0038                  05308 _00125_DS_:
                      05309         .line   50; "gpio.c"    SetRegister(PORTE,data) ;
0038   0??? 0???      05310         BANKSEL r0x101B
003A   08??           05311         MOVF    r0x101B,W
                      05312 ;; >>> /home/sdcc-builder/build/sdcc-build/orig/sdcc/src/pic14/gen.c:7313:genAssign
                      05313 ;;      1027
                      05314 ;;      1045  _PORTE   offset=0
003B   0??? 0???      05315         BANKSEL _PORTE
003D   00??           05316         MOVWF   _PORTE
                      05317 ;;; /home/sdcc-builder/build/sdcc-build/orig/sdcc/src/pic14/gen.c:2358:resultRemat *{*
                      05318 ;;; /home/sdcc-builder/build/sdcc-build/orig/sdcc/src/pic14/gen.c:2802:genLabel *{*
                      05319 ;; ***  genLabel  2805
                      05320 ;;; /home/sdcc-builder/build/sdcc-build/orig/sdcc/src/pic14/gen.c:2358:resultRemat *{*
                      05321 ;;; /home/sdcc-builder/build/sdcc-build/orig/sdcc/src/pic14/gen.c:2570:genEndFunction *{*
                      05322 ;; ***  genEndFunction  2572
003E                  05323 _00128_DS_:
                      05324         .line   56; "gpio.c"    }
003E   0008           05325         RETURN  
                      05326 ; exit point of _GPIO_SetPortData
                      05327 ;;; /home/sdcc-builder/build/sdcc-build/orig/sdcc/src/pic14/gen.c:7710:genpic14Code *{*
                      05328 
                      05329 ;***
                      05330 ;  pBlock Stats: dbName = C
                      05331 ;***
                      05332 ;has an exit
                      05333 ;; Starting pCode block
                      05334 ;;; /home/sdcc-builder/build/sdcc-build/orig/sdcc/src/pic14/gen.c:2358:resultRemat *{*
                      05335 ;;; /home/sdcc-builder/build/sdcc-build/orig/sdcc/src/pic14/gen.c:2802:genLabel *{*
                      05336 ;; ***  genLabel  2805
                      05337 ;;; /home/sdcc-builder/build/sdcc-build/orig/sdcc/src/pic14/gen.c:2358:resultRemat *{*
                      05338 ;;; /home/sdcc-builder/build/sdcc-build/orig/sdcc/src/pic14/gen.c:2382:genFunction *{*
                      05339 ;; ***  genFunction  2384 curr label offset=12previous max_key=0 
                      05340 S_gpio__GPIO_UpdatePin  code
0000                  05341 _GPIO_UpdatePin:
                      05342 ; 2 exit points
                      05343 ;;; /home/sdcc-builder/build/sdcc-build/orig/sdcc/src/pic14/gen.c:2358:resultRemat *{*
                      05344 ;;; /home/sdcc-builder/build/sdcc-build/orig/sdcc/src/pic14/gen.c:2802:genLabel *{*
                      05345 ;; ***  genLabel  2805
                      05346 ;;; /home/sdcc-builder/build/sdcc-build/orig/sdcc/src/pic14/gen.c:2358:resultRemat *{*
                      05347 ;;; /home/sdcc-builder/build/sdcc-build/orig/sdcc/src/pic14/gen.c:2570:genEndFunction *{*
                      05348 ;; ***  genEndFunction  2572
                      05349         .line   32; "gpio.c"    }
0000   0008           05350         RETURN  
                      05351 ; exit point of _GPIO_UpdatePin
                      05352 ;;; /home/sdcc-builder/build/sdcc-build/orig/sdcc/src/pic14/gen.c:7710:genpic14Code *{*
                      05353 
                      05354 ;***
                      05355 ;  pBlock Stats: dbName = C
gpasm-1.5.0 #1285 (Sep 12 2016) obj\Debug\gpi   8-8-2021  22:26:03          PAGE 103


LOC    OBJECT CODE    LINE  SOURCE TEXT
  VALUE

                      05356 ;***
                      05357 ;has an exit
                      05358 ;; Starting pCode block
                      05359 ;;; /home/sdcc-builder/build/sdcc-build/orig/sdcc/src/pic14/gen.c:2358:resultRemat *{*
                      05360 ;;; /home/sdcc-builder/build/sdcc-build/orig/sdcc/src/pic14/gen.c:2802:genLabel *{*
                      05361 ;; ***  genLabel  2805
                      05362 ;;; /home/sdcc-builder/build/sdcc-build/orig/sdcc/src/pic14/gen.c:2358:resultRemat *{*
                      05363 ;;; /home/sdcc-builder/build/sdcc-build/orig/sdcc/src/pic14/gen.c:2382:genFunction *{*
                      05364 ;; ***  genFunction  2384 curr label offset=8previous max_key=0 
                      05365 S_gpio__GPIO_UpdatePort code
0000                  05366 _GPIO_UpdatePort:
                      05367 ; 2 exit points
                      05368 ;;; /home/sdcc-builder/build/sdcc-build/orig/sdcc/src/pic14/gen.c:2358:resultRemat *{*
                      05369 ;;; /home/sdcc-builder/build/sdcc-build/orig/sdcc/src/pic14/gen.c:2802:genLabel *{*
                      05370 ;; ***  genLabel  2805
                      05371 ;;; /home/sdcc-builder/build/sdcc-build/orig/sdcc/src/pic14/gen.c:2358:resultRemat *{*
                      05372 ;;; /home/sdcc-builder/build/sdcc-build/orig/sdcc/src/pic14/gen.c:2570:genEndFunction *{*
                      05373 ;; ***  genEndFunction  2572
                      05374         .line   28; "gpio.c"    }
0000   0008           05375         RETURN  
                      05376 ; exit point of _GPIO_UpdatePort
                      05377 ;;; /home/sdcc-builder/build/sdcc-build/orig/sdcc/src/pic14/gen.c:7710:genpic14Code *{*
                      05378 
                      05379 ;***
                      05380 ;  pBlock Stats: dbName = C
                      05381 ;***
                      05382 ;has an exit
                      05383 ;functions called:
                      05384 ;   _GPIO_SetPinDirection
                      05385 ;   _GPIO_SetPinState
                      05386 ;   _GPIO_SetPinDirection
                      05387 ;   _GPIO_SetPinState
                      05388 ;7 compiler assigned registers:
                      05389 ;   r0x101C
                      05390 ;   STK00
                      05391 ;   r0x101D
                      05392 ;   STK01
                      05393 ;   r0x101E
                      05394 ;   STK02
                      05395 ;   r0x101F
                      05396 ;; Starting pCode block
                      05397 ;;; /home/sdcc-builder/build/sdcc-build/orig/sdcc/src/pic14/gen.c:2358:resultRemat *{*
                      05398 ;;; /home/sdcc-builder/build/sdcc-build/orig/sdcc/src/pic14/gen.c:2802:genLabel *{*
                      05399 ;; ***  genLabel  2805
                      05400 ;;; /home/sdcc-builder/build/sdcc-build/orig/sdcc/src/pic14/gen.c:2358:resultRemat *{*
                      05401 ;;; /home/sdcc-builder/build/sdcc-build/orig/sdcc/src/pic14/gen.c:2382:genFunction *{*
                      05402 ;; ***  genFunction  2384 curr label offset=4previous max_key=0 
                      05403 S_gpio__GPIO_InitPin    code
0000                  05404 _GPIO_InitPin:
                      05405 ; 2 exit points
                      05406 ;;; /home/sdcc-builder/build/sdcc-build/orig/sdcc/src/pic14/gen.c:2358:resultRemat *{*
                      05407 ;;; /home/sdcc-builder/build/sdcc-build/orig/sdcc/src/pic14/gen.c:7642:genReceive *{*
                      05408 ;; ***  genReceive  7643
gpasm-1.5.0 #1285 (Sep 12 2016) obj\Debug\gpi   8-8-2021  22:26:03          PAGE 104


LOC    OBJECT CODE    LINE  SOURCE TEXT
  VALUE

                      05409 ;;      708 register type nRegs=1
                      05410 ;;; /home/sdcc-builder/build/sdcc-build/orig/sdcc/src/pic14/gen.c:1929:assignResultValue *{*
                      05411 ;; ***  assignResultValue  1931
                      05412 ;;      line = 1933 result -=-, size=0, left AOP_REG=r0x1048, size=1, right -=-, size=0
                      05413 ;; >>> /home/sdcc-builder/build/sdcc-build/orig/sdcc/src/pic14/gen.c:1407:movwf
                      05414 ;;      1126 rIdx = r0x1048 
                      05415         .line   17; "gpio.c"    void GPIO_InitPin(tPORT port , tPIN pin ,tPIN_DIRECTION direction ,tSTAT
                            E init_state)
0000   0??? 0???      05416         BANKSEL r0x101C
0002   00??           05417         MOVWF   r0x101C
                      05418 ;;; /home/sdcc-builder/build/sdcc-build/orig/sdcc/src/pic14/gen.c:2358:resultRemat *{*
                      05419 ;;; /home/sdcc-builder/build/sdcc-build/orig/sdcc/src/pic14/gen.c:7642:genReceive *{*
                      05420 ;; ***  genReceive  7643
                      05421 ;;      708 register type nRegs=1
                      05422 ;;; /home/sdcc-builder/build/sdcc-build/orig/sdcc/src/pic14/gen.c:1929:assignResultValue *{*
                      05423 ;; ***  assignResultValue  1931
                      05424 ;;      line = 1933 result -=-, size=0, left AOP_REG=r0x1049, size=1, right -=-, size=0
                      05425 ;; >>> /home/sdcc-builder/build/sdcc-build/orig/sdcc/src/pic14/gen.c:1437:get_returnvalue
                      05426 ;; ***  popRegFromIdx,1059  , rIdx=0x7f
0003   08??           05427         MOVF    STK00,W
                      05428 ;; >>> /home/sdcc-builder/build/sdcc-build/orig/sdcc/src/pic14/gen.c:1407:movwf
                      05429 ;;      1126 rIdx = r0x1049 
0004   00??           05430         MOVWF   r0x101D
                      05431 ;;; /home/sdcc-builder/build/sdcc-build/orig/sdcc/src/pic14/gen.c:2358:resultRemat *{*
                      05432 ;;; /home/sdcc-builder/build/sdcc-build/orig/sdcc/src/pic14/gen.c:7642:genReceive *{*
                      05433 ;; ***  genReceive  7643
                      05434 ;;      708 register type nRegs=1
                      05435 ;;; /home/sdcc-builder/build/sdcc-build/orig/sdcc/src/pic14/gen.c:1929:assignResultValue *{*
                      05436 ;; ***  assignResultValue  1931
                      05437 ;;      line = 1933 result -=-, size=0, left AOP_REG=r0x104A, size=1, right -=-, size=0
                      05438 ;; >>> /home/sdcc-builder/build/sdcc-build/orig/sdcc/src/pic14/gen.c:1437:get_returnvalue
                      05439 ;; ***  popRegFromIdx,1059  , rIdx=0x7e
0005   08??           05440         MOVF    STK01,W
                      05441 ;; >>> /home/sdcc-builder/build/sdcc-build/orig/sdcc/src/pic14/gen.c:1407:movwf
                      05442 ;;      1126 rIdx = r0x104A 
0006   00??           05443         MOVWF   r0x101E
                      05444 ;;; /home/sdcc-builder/build/sdcc-build/orig/sdcc/src/pic14/gen.c:2358:resultRemat *{*
                      05445 ;;; /home/sdcc-builder/build/sdcc-build/orig/sdcc/src/pic14/gen.c:7642:genReceive *{*
                      05446 ;; ***  genReceive  7643
                      05447 ;;      708 register type nRegs=1
                      05448 ;;; /home/sdcc-builder/build/sdcc-build/orig/sdcc/src/pic14/gen.c:1929:assignResultValue *{*
                      05449 ;; ***  assignResultValue  1931
                      05450 ;;      line = 1933 result -=-, size=0, left AOP_REG=r0x104B, size=1, right -=-, size=0
                      05451 ;; >>> /home/sdcc-builder/build/sdcc-build/orig/sdcc/src/pic14/gen.c:1437:get_returnvalue
                      05452 ;; ***  popRegFromIdx,1059  , rIdx=0x7d
0007   08??           05453         MOVF    STK02,W
                      05454 ;; >>> /home/sdcc-builder/build/sdcc-build/orig/sdcc/src/pic14/gen.c:1407:movwf
                      05455 ;;      1126 rIdx = r0x104B 
0008   00??           05456         MOVWF   r0x101F
                      05457 ;;; /home/sdcc-builder/build/sdcc-build/orig/sdcc/src/pic14/gen.c:2358:resultRemat *{*
                      05458 ;;; /home/sdcc-builder/build/sdcc-build/orig/sdcc/src/pic14/gen.c:2358:resultRemat *{*
                      05459 ;;; /home/sdcc-builder/build/sdcc-build/orig/sdcc/src/pic14/gen.c:2358:resultRemat *{*
                      05460 ;;; /home/sdcc-builder/build/sdcc-build/orig/sdcc/src/pic14/gen.c:2358:resultRemat *{*
gpasm-1.5.0 #1285 (Sep 12 2016) obj\Debug\gpi   8-8-2021  22:26:03          PAGE 105


LOC    OBJECT CODE    LINE  SOURCE TEXT
  VALUE

                      05461 ;;; /home/sdcc-builder/build/sdcc-build/orig/sdcc/src/pic14/gen.c:2108:genCall *{*
                      05462 ;; ***  genCall  2110
                      05463 ;;      708 register type nRegs=1
                      05464 ;;      708 register type nRegs=1
                      05465 ;;      708 register type nRegs=1
                      05466 ;;      708 register type nRegs=1
                      05467 ;;      2158 left AOP_REG
                      05468 ;;; /home/sdcc-builder/build/sdcc-build/orig/sdcc/src/pic14/gen.c:1357:mov2w_op *{*
                      05469 ;; ***  mov2w  1395  offset=0
                      05470 ;; >>> /home/sdcc-builder/build/sdcc-build/orig/sdcc/src/pic14/gen.c:1400:mov2w
                      05471 ;;      1126 rIdx = r0x104A 
                      05472         .line   20; "gpio.c"    GPIO_SetPinDirection(port,pin ,direction) ;
0009   08??           05473         MOVF    r0x101E,W
                      05474 ;;      708 register type nRegs=1
                      05475 ;;      2158 left AOP_REG
                      05476 ;; >>> /home/sdcc-builder/build/sdcc-build/orig/sdcc/src/pic14/gen.c:2166:genCall
                      05477 ;; ***  popRegFromIdx,1059  , rIdx=0x7e
000A   00??           05478         MOVWF   STK01
                      05479 ;;; /home/sdcc-builder/build/sdcc-build/orig/sdcc/src/pic14/gen.c:1357:mov2w_op *{*
                      05480 ;; ***  mov2w  1395  offset=0
                      05481 ;; >>> /home/sdcc-builder/build/sdcc-build/orig/sdcc/src/pic14/gen.c:1400:mov2w
                      05482 ;;      1126 rIdx = r0x1049 
000B   08??           05483         MOVF    r0x101D,W
                      05484 ;;      708 register type nRegs=1
                      05485 ;;      2158 left AOP_REG
                      05486 ;; >>> /home/sdcc-builder/build/sdcc-build/orig/sdcc/src/pic14/gen.c:2166:genCall
                      05487 ;; ***  popRegFromIdx,1059  , rIdx=0x7f
000C   00??           05488         MOVWF   STK00
                      05489 ;;; /home/sdcc-builder/build/sdcc-build/orig/sdcc/src/pic14/gen.c:1357:mov2w_op *{*
                      05490 ;; ***  mov2w  1395  offset=0
                      05491 ;; >>> /home/sdcc-builder/build/sdcc-build/orig/sdcc/src/pic14/gen.c:1400:mov2w
                      05492 ;;      1126 rIdx = r0x1048 
000D   08??           05493         MOVF    r0x101C,W
                      05494 ;; >>> /home/sdcc-builder/build/sdcc-build/orig/sdcc/src/pic14/gen.c:2207:genCall
000E   0??? 0???      05495         PAGESEL _GPIO_SetPinDirection
                      05496 ;; >>> /home/sdcc-builder/build/sdcc-build/orig/sdcc/src/pic14/gen.c:2215:genCall
0010   2???           05497         CALL    _GPIO_SetPinDirection
                      05498 ;; >>> /home/sdcc-builder/build/sdcc-build/orig/sdcc/src/pic14/gen.c:2223:genCall
0011   0??? 0???      05499         PAGESEL $
                      05500 ;;; /home/sdcc-builder/build/sdcc-build/orig/sdcc/src/pic14/gen.c:2358:resultRemat *{*
                      05501 ;;; /home/sdcc-builder/build/sdcc-build/orig/sdcc/src/pic14/gen.c:2358:resultRemat *{*
                      05502 ;;; /home/sdcc-builder/build/sdcc-build/orig/sdcc/src/pic14/gen.c:2358:resultRemat *{*
                      05503 ;;; /home/sdcc-builder/build/sdcc-build/orig/sdcc/src/pic14/gen.c:2358:resultRemat *{*
                      05504 ;;; /home/sdcc-builder/build/sdcc-build/orig/sdcc/src/pic14/gen.c:2108:genCall *{*
                      05505 ;; ***  genCall  2110
                      05506 ;;      708 register type nRegs=1
                      05507 ;;      708 register type nRegs=1
                      05508 ;;      708 register type nRegs=1
                      05509 ;;      708 register type nRegs=1
                      05510 ;;      2158 left AOP_REG
                      05511 ;;; /home/sdcc-builder/build/sdcc-build/orig/sdcc/src/pic14/gen.c:1357:mov2w_op *{*
                      05512 ;; ***  mov2w  1395  offset=0
                      05513 ;; >>> /home/sdcc-builder/build/sdcc-build/orig/sdcc/src/pic14/gen.c:1400:mov2w
gpasm-1.5.0 #1285 (Sep 12 2016) obj\Debug\gpi   8-8-2021  22:26:03          PAGE 106


LOC    OBJECT CODE    LINE  SOURCE TEXT
  VALUE

                      05514 ;;      1126 rIdx = r0x104B 
                      05515         .line   22; "gpio.c"    GPIO_SetPinState(port ,pin ,init_state) ;
0013   0??? 0???      05516         BANKSEL r0x101F
0015   08??           05517         MOVF    r0x101F,W
                      05518 ;;      708 register type nRegs=1
                      05519 ;;      2158 left AOP_REG
                      05520 ;; >>> /home/sdcc-builder/build/sdcc-build/orig/sdcc/src/pic14/gen.c:2166:genCall
                      05521 ;; ***  popRegFromIdx,1059  , rIdx=0x7e
0016   00??           05522         MOVWF   STK01
                      05523 ;;; /home/sdcc-builder/build/sdcc-build/orig/sdcc/src/pic14/gen.c:1357:mov2w_op *{*
                      05524 ;; ***  mov2w  1395  offset=0
                      05525 ;; >>> /home/sdcc-builder/build/sdcc-build/orig/sdcc/src/pic14/gen.c:1400:mov2w
                      05526 ;;      1126 rIdx = r0x1049 
0017   08??           05527         MOVF    r0x101D,W
                      05528 ;;      708 register type nRegs=1
                      05529 ;;      2158 left AOP_REG
                      05530 ;; >>> /home/sdcc-builder/build/sdcc-build/orig/sdcc/src/pic14/gen.c:2166:genCall
                      05531 ;; ***  popRegFromIdx,1059  , rIdx=0x7f
0018   00??           05532         MOVWF   STK00
                      05533 ;;; /home/sdcc-builder/build/sdcc-build/orig/sdcc/src/pic14/gen.c:1357:mov2w_op *{*
                      05534 ;; ***  mov2w  1395  offset=0
                      05535 ;; >>> /home/sdcc-builder/build/sdcc-build/orig/sdcc/src/pic14/gen.c:1400:mov2w
                      05536 ;;      1126 rIdx = r0x1048 
0019   08??           05537         MOVF    r0x101C,W
                      05538 ;; >>> /home/sdcc-builder/build/sdcc-build/orig/sdcc/src/pic14/gen.c:2207:genCall
001A   0??? 0???      05539         PAGESEL _GPIO_SetPinState
                      05540 ;; >>> /home/sdcc-builder/build/sdcc-build/orig/sdcc/src/pic14/gen.c:2215:genCall
001C   2???           05541         CALL    _GPIO_SetPinState
                      05542 ;; >>> /home/sdcc-builder/build/sdcc-build/orig/sdcc/src/pic14/gen.c:2223:genCall
001D   0??? 0???      05543         PAGESEL $
                      05544 ;;; /home/sdcc-builder/build/sdcc-build/orig/sdcc/src/pic14/gen.c:2358:resultRemat *{*
                      05545 ;;; /home/sdcc-builder/build/sdcc-build/orig/sdcc/src/pic14/gen.c:2802:genLabel *{*
                      05546 ;; ***  genLabel  2805
                      05547 ;;; /home/sdcc-builder/build/sdcc-build/orig/sdcc/src/pic14/gen.c:2358:resultRemat *{*
                      05548 ;;; /home/sdcc-builder/build/sdcc-build/orig/sdcc/src/pic14/gen.c:2570:genEndFunction *{*
                      05549 ;; ***  genEndFunction  2572
                      05550         .line   23; "gpio.c"    }
001F   0008           05551         RETURN  
                      05552 ; exit point of _GPIO_InitPin
                      05553 ;;; /home/sdcc-builder/build/sdcc-build/orig/sdcc/src/pic14/gen.c:7710:genpic14Code *{*
                      05554 
                      05555 ;***
                      05556 ;  pBlock Stats: dbName = C
                      05557 ;***
                      05558 ;has an exit
                      05559 ;functions called:
                      05560 ;   _GPIO_SetPortDirection
                      05561 ;   _GPIO_SetPortData
                      05562 ;   _GPIO_SetPortDirection
                      05563 ;   _GPIO_SetPortData
                      05564 ;5 compiler assigned registers:
                      05565 ;   r0x1020
                      05566 ;   STK00
gpasm-1.5.0 #1285 (Sep 12 2016) obj\Debug\gpi   8-8-2021  22:26:03          PAGE 107


LOC    OBJECT CODE    LINE  SOURCE TEXT
  VALUE

                      05567 ;   r0x1021
                      05568 ;   STK01
                      05569 ;   r0x1022
                      05570 ;; Starting pCode block
                      05571 ;;; /home/sdcc-builder/build/sdcc-build/orig/sdcc/src/pic14/gen.c:2358:resultRemat *{*
                      05572 ;;; /home/sdcc-builder/build/sdcc-build/orig/sdcc/src/pic14/gen.c:2802:genLabel *{*
                      05573 ;; ***  genLabel  2805
                      05574 ;;; /home/sdcc-builder/build/sdcc-build/orig/sdcc/src/pic14/gen.c:2358:resultRemat *{*
                      05575 ;;; /home/sdcc-builder/build/sdcc-build/orig/sdcc/src/pic14/gen.c:2382:genFunction *{*
                      05576 ;; ***  genFunction  2384 curr label offset=0previous max_key=0 
                      05577 S_gpio__GPIO_InitPort   code
0000                  05578 _GPIO_InitPort:
                      05579 ; 2 exit points
                      05580 ;;; /home/sdcc-builder/build/sdcc-build/orig/sdcc/src/pic14/gen.c:2358:resultRemat *{*
                      05581 ;;; /home/sdcc-builder/build/sdcc-build/orig/sdcc/src/pic14/gen.c:7642:genReceive *{*
                      05582 ;; ***  genReceive  7643
                      05583 ;;      708 register type nRegs=1
                      05584 ;;; /home/sdcc-builder/build/sdcc-build/orig/sdcc/src/pic14/gen.c:1929:assignResultValue *{*
                      05585 ;; ***  assignResultValue  1931
                      05586 ;;      line = 1933 result -=-, size=0, left AOP_REG=r0x1045, size=1, right -=-, size=0
                      05587 ;; >>> /home/sdcc-builder/build/sdcc-build/orig/sdcc/src/pic14/gen.c:1407:movwf
                      05588 ;;      1126 rIdx = r0x1045 
                      05589         .line   10; "gpio.c"    void GPIO_InitPort(tPORT port ,tPORT_DIRECTION direction ,tSTATE init_da
                            ta)
0000   0??? 0???      05590         BANKSEL r0x1020
0002   00??           05591         MOVWF   r0x1020
                      05592 ;;; /home/sdcc-builder/build/sdcc-build/orig/sdcc/src/pic14/gen.c:2358:resultRemat *{*
                      05593 ;;; /home/sdcc-builder/build/sdcc-build/orig/sdcc/src/pic14/gen.c:7642:genReceive *{*
                      05594 ;; ***  genReceive  7643
                      05595 ;;      708 register type nRegs=1
                      05596 ;;; /home/sdcc-builder/build/sdcc-build/orig/sdcc/src/pic14/gen.c:1929:assignResultValue *{*
                      05597 ;; ***  assignResultValue  1931
                      05598 ;;      line = 1933 result -=-, size=0, left AOP_REG=r0x1046, size=1, right -=-, size=0
                      05599 ;; >>> /home/sdcc-builder/build/sdcc-build/orig/sdcc/src/pic14/gen.c:1437:get_returnvalue
                      05600 ;; ***  popRegFromIdx,1059  , rIdx=0x7f
0003   08??           05601         MOVF    STK00,W
                      05602 ;; >>> /home/sdcc-builder/build/sdcc-build/orig/sdcc/src/pic14/gen.c:1407:movwf
                      05603 ;;      1126 rIdx = r0x1046 
0004   00??           05604         MOVWF   r0x1021
                      05605 ;;; /home/sdcc-builder/build/sdcc-build/orig/sdcc/src/pic14/gen.c:2358:resultRemat *{*
                      05606 ;;; /home/sdcc-builder/build/sdcc-build/orig/sdcc/src/pic14/gen.c:7642:genReceive *{*
                      05607 ;; ***  genReceive  7643
                      05608 ;;      708 register type nRegs=1
                      05609 ;;; /home/sdcc-builder/build/sdcc-build/orig/sdcc/src/pic14/gen.c:1929:assignResultValue *{*
                      05610 ;; ***  assignResultValue  1931
                      05611 ;;      line = 1933 result -=-, size=0, left AOP_REG=r0x1047, size=1, right -=-, size=0
                      05612 ;; >>> /home/sdcc-builder/build/sdcc-build/orig/sdcc/src/pic14/gen.c:1437:get_returnvalue
                      05613 ;; ***  popRegFromIdx,1059  , rIdx=0x7e
0005   08??           05614         MOVF    STK01,W
                      05615 ;; >>> /home/sdcc-builder/build/sdcc-build/orig/sdcc/src/pic14/gen.c:1407:movwf
                      05616 ;;      1126 rIdx = r0x1047 
0006   00??           05617         MOVWF   r0x1022
                      05618 ;;; /home/sdcc-builder/build/sdcc-build/orig/sdcc/src/pic14/gen.c:2358:resultRemat *{*
gpasm-1.5.0 #1285 (Sep 12 2016) obj\Debug\gpi   8-8-2021  22:26:03          PAGE 108


LOC    OBJECT CODE    LINE  SOURCE TEXT
  VALUE

                      05619 ;;; /home/sdcc-builder/build/sdcc-build/orig/sdcc/src/pic14/gen.c:2358:resultRemat *{*
                      05620 ;;; /home/sdcc-builder/build/sdcc-build/orig/sdcc/src/pic14/gen.c:2358:resultRemat *{*
                      05621 ;;; /home/sdcc-builder/build/sdcc-build/orig/sdcc/src/pic14/gen.c:2108:genCall *{*
                      05622 ;; ***  genCall  2110
                      05623 ;;      708 register type nRegs=1
                      05624 ;;      708 register type nRegs=1
                      05625 ;;      708 register type nRegs=1
                      05626 ;;      2158 left AOP_REG
                      05627 ;;; /home/sdcc-builder/build/sdcc-build/orig/sdcc/src/pic14/gen.c:1357:mov2w_op *{*
                      05628 ;; ***  mov2w  1395  offset=0
                      05629 ;; >>> /home/sdcc-builder/build/sdcc-build/orig/sdcc/src/pic14/gen.c:1400:mov2w
                      05630 ;;      1126 rIdx = r0x1046 
                      05631         .line   13; "gpio.c"    GPIO_SetPortDirection(port,direction) ;
0007   08??           05632         MOVF    r0x1021,W
                      05633 ;;      708 register type nRegs=1
                      05634 ;;      2158 left AOP_REG
                      05635 ;; >>> /home/sdcc-builder/build/sdcc-build/orig/sdcc/src/pic14/gen.c:2166:genCall
                      05636 ;; ***  popRegFromIdx,1059  , rIdx=0x7f
0008   00??           05637         MOVWF   STK00
                      05638 ;;; /home/sdcc-builder/build/sdcc-build/orig/sdcc/src/pic14/gen.c:1357:mov2w_op *{*
                      05639 ;; ***  mov2w  1395  offset=0
                      05640 ;; >>> /home/sdcc-builder/build/sdcc-build/orig/sdcc/src/pic14/gen.c:1400:mov2w
                      05641 ;;      1126 rIdx = r0x1045 
0009   08??           05642         MOVF    r0x1020,W
                      05643 ;; >>> /home/sdcc-builder/build/sdcc-build/orig/sdcc/src/pic14/gen.c:2207:genCall
000A   0??? 0???      05644         PAGESEL _GPIO_SetPortDirection
                      05645 ;; >>> /home/sdcc-builder/build/sdcc-build/orig/sdcc/src/pic14/gen.c:2215:genCall
000C   2???           05646         CALL    _GPIO_SetPortDirection
                      05647 ;; >>> /home/sdcc-builder/build/sdcc-build/orig/sdcc/src/pic14/gen.c:2223:genCall
000D   0??? 0???      05648         PAGESEL $
                      05649 ;;; /home/sdcc-builder/build/sdcc-build/orig/sdcc/src/pic14/gen.c:2358:resultRemat *{*
                      05650 ;;; /home/sdcc-builder/build/sdcc-build/orig/sdcc/src/pic14/gen.c:2358:resultRemat *{*
                      05651 ;;; /home/sdcc-builder/build/sdcc-build/orig/sdcc/src/pic14/gen.c:2358:resultRemat *{*
                      05652 ;;; /home/sdcc-builder/build/sdcc-build/orig/sdcc/src/pic14/gen.c:2108:genCall *{*
                      05653 ;; ***  genCall  2110
                      05654 ;;      708 register type nRegs=1
                      05655 ;;      708 register type nRegs=1
                      05656 ;;      708 register type nRegs=1
                      05657 ;;      2158 left AOP_REG
                      05658 ;;; /home/sdcc-builder/build/sdcc-build/orig/sdcc/src/pic14/gen.c:1357:mov2w_op *{*
                      05659 ;; ***  mov2w  1395  offset=0
                      05660 ;; >>> /home/sdcc-builder/build/sdcc-build/orig/sdcc/src/pic14/gen.c:1400:mov2w
                      05661 ;;      1126 rIdx = r0x1047 
                      05662         .line   15; "gpio.c"    GPIO_SetPortData(port,init_data) ;
000F   0??? 0???      05663         BANKSEL r0x1022
0011   08??           05664         MOVF    r0x1022,W
                      05665 ;;      708 register type nRegs=1
                      05666 ;;      2158 left AOP_REG
                      05667 ;; >>> /home/sdcc-builder/build/sdcc-build/orig/sdcc/src/pic14/gen.c:2166:genCall
                      05668 ;; ***  popRegFromIdx,1059  , rIdx=0x7f
0012   00??           05669         MOVWF   STK00
                      05670 ;;; /home/sdcc-builder/build/sdcc-build/orig/sdcc/src/pic14/gen.c:1357:mov2w_op *{*
                      05671 ;; ***  mov2w  1395  offset=0
gpasm-1.5.0 #1285 (Sep 12 2016) obj\Debug\gpi   8-8-2021  22:26:03          PAGE 109


LOC    OBJECT CODE    LINE  SOURCE TEXT
  VALUE

                      05672 ;; >>> /home/sdcc-builder/build/sdcc-build/orig/sdcc/src/pic14/gen.c:1400:mov2w
                      05673 ;;      1126 rIdx = r0x1045 
0013   08??           05674         MOVF    r0x1020,W
                      05675 ;; >>> /home/sdcc-builder/build/sdcc-build/orig/sdcc/src/pic14/gen.c:2207:genCall
0014   0??? 0???      05676         PAGESEL _GPIO_SetPortData
                      05677 ;; >>> /home/sdcc-builder/build/sdcc-build/orig/sdcc/src/pic14/gen.c:2215:genCall
0016   2???           05678         CALL    _GPIO_SetPortData
                      05679 ;; >>> /home/sdcc-builder/build/sdcc-build/orig/sdcc/src/pic14/gen.c:2223:genCall
0017   0??? 0???      05680         PAGESEL $
                      05681 ;;; /home/sdcc-builder/build/sdcc-build/orig/sdcc/src/pic14/gen.c:2358:resultRemat *{*
                      05682 ;;; /home/sdcc-builder/build/sdcc-build/orig/sdcc/src/pic14/gen.c:2802:genLabel *{*
                      05683 ;; ***  genLabel  2805
                      05684 ;;; /home/sdcc-builder/build/sdcc-build/orig/sdcc/src/pic14/gen.c:2358:resultRemat *{*
                      05685 ;;; /home/sdcc-builder/build/sdcc-build/orig/sdcc/src/pic14/gen.c:2570:genEndFunction *{*
                      05686 ;; ***  genEndFunction  2572
                      05687         .line   16; "gpio.c"    }
0019   0008           05688         RETURN  
                      05689 ; exit point of _GPIO_InitPort
                      05690 ;;; /home/sdcc-builder/build/sdcc-build/orig/sdcc/src/pic14/gen.c:7710:genpic14Code *{*
                      05691 
                      05692 
                      05693 ;       code size estimation:
                      05694 ;        1044+  238 =  1282 instructions ( 3040 byte)
                      05695 
                      05696         end
gpasm-1.5.0 #1285 (Sep 12 2016) obj\Debug\gpi   8-8-2021  22:26:03          PAGE 110


SYMBOL TABLE
  LABEL                              TYPE        VALUE         VALUE          VALUE
                                                 (hex)         (dec)          (text)

ACKDT                             CONSTANT      00000005              5
ACKEN                             CONSTANT      00000004              4
ACKSTAT                           CONSTANT      00000006              6
ADCON0                            CONSTANT      0000001F             31
ADCON1                            CONSTANT      0000009F            159
ADCS0                             CONSTANT      00000006              6
ADCS1                             CONSTANT      00000007              7
ADCS2                             CONSTANT      00000006              6
ADDEN                             CONSTANT      00000003              3
ADFM                              CONSTANT      00000007              7
ADIE                              CONSTANT      00000006              6
ADIF                              CONSTANT      00000006              6
ADON                              CONSTANT      00000000              0
ADRESH                            CONSTANT      0000001E             30
ADRESL                            CONSTANT      0000009E            158
BCLIE                             CONSTANT      00000003              3
BCLIF                             CONSTANT      00000003              3
BF                                CONSTANT      00000000              0
BRGH                              CONSTANT      00000002              2
C                                 CONSTANT      00000000              0
C1INV                             CONSTANT      00000004              4
C1OUT                             CONSTANT      00000006              6
C2INV                             CONSTANT      00000005              5
C2OUT                             CONSTANT      00000007              7
CCP1CON                           CONSTANT      00000017             23
CCP1IE                            CONSTANT      00000002              2
CCP1IF                            CONSTANT      00000002              2
CCP1M0                            CONSTANT      00000000              0
CCP1M1                            CONSTANT      00000001              1
CCP1M2                            CONSTANT      00000002              2
CCP1M3                            CONSTANT      00000003              3
CCP1X                             CONSTANT      00000005              5
CCP1Y                             CONSTANT      00000004              4
CCP2CON                           CONSTANT      0000001D             29
CCP2IE                            CONSTANT      00000000              0
CCP2IF                            CONSTANT      00000000              0
CCP2M0                            CONSTANT      00000000              0
CCP2M1                            CONSTANT      00000001              1
CCP2M2                            CONSTANT      00000002              2
CCP2M3                            CONSTANT      00000003              3
CCP2X                             CONSTANT      00000005              5
CCP2Y                             CONSTANT      00000004              4
CCPR1                             CONSTANT      00000015             21
CCPR1H                            CONSTANT      00000016             22
CCPR1L                            CONSTANT      00000015             21
CCPR2                             CONSTANT      0000001B             27
CCPR2H                            CONSTANT      0000001C             28
CCPR2L                            CONSTANT      0000001B             27
CHS0                              CONSTANT      00000003              3
CHS1                              CONSTANT      00000004              4
CHS2                              CONSTANT      00000005              5
CIS                               CONSTANT      00000003              3
gpasm-1.5.0 #1285 (Sep 12 2016) obj\Debug\gpi   8-8-2021  22:26:03          PAGE 111


SYMBOL TABLE
  LABEL                              TYPE        VALUE         VALUE          VALUE
                                                 (hex)         (dec)          (text)

CKE                               CONSTANT      00000006              6
CKP                               CONSTANT      00000004              4
CM0                               CONSTANT      00000000              0
CM1                               CONSTANT      00000001              1
CM2                               CONSTANT      00000002              2
CMCON                             CONSTANT      0000009C            156
CMIE                              CONSTANT      00000006              6
CMIF                              CONSTANT      00000006              6
CREN                              CONSTANT      00000004              4
CSRC                              CONSTANT      00000007              7
CVR0                              CONSTANT      00000000              0
CVR1                              CONSTANT      00000001              1
CVR2                              CONSTANT      00000002              2
CVR3                              CONSTANT      00000003              3
CVRCON                            CONSTANT      0000009D            157
CVREN                             CONSTANT      00000007              7
CVROE                             CONSTANT      00000006              6
CVRR                              CONSTANT      00000005              5
D                                 CONSTANT      00000005              5
DATA_ADDRESS                      CONSTANT      00000005              5
DC                                CONSTANT      00000001              1
D_A                               CONSTANT      00000005              5
D_NOT_A                           CONSTANT      00000005              5
EEADR                             CONSTANT      0000010D            269
EEADRH                            CONSTANT      0000010F            271
EECON1                            CONSTANT      0000018C            396
EECON2                            CONSTANT      0000018D            397
EEDATA                            CONSTANT      0000010C            268
EEDATH                            CONSTANT      0000010E            270
EEIE                              CONSTANT      00000004              4
EEIF                              CONSTANT      00000004              4
EEPGD                             CONSTANT      00000007              7
F                                 CONSTANT      00000001              1
FERR                              CONSTANT      00000002              2
FSR                               CONSTANT      00000004              4
GCEN                              CONSTANT      00000007              7
GIE                               CONSTANT      00000007              7
GO                                CONSTANT      00000002              2
GO_DONE                           CONSTANT      00000002              2
GO_NOT_DONE                       CONSTANT      00000002              2
I2C_DATA                          CONSTANT      00000005              5
I2C_READ                          CONSTANT      00000002              2
I2C_START                         CONSTANT      00000003              3
I2C_STOP                          CONSTANT      00000004              4
IBF                               CONSTANT      00000007              7
IBOV                              CONSTANT      00000005              5
INDF                              CONSTANT      00000000              0
INTCON                            CONSTANT      0000000B             11
INTE                              CONSTANT      00000004              4
INTEDG                            CONSTANT      00000006              6
INTF                              CONSTANT      00000001              1
IRP                               CONSTANT      00000007              7
gpasm-1.5.0 #1285 (Sep 12 2016) obj\Debug\gpi   8-8-2021  22:26:03          PAGE 112


SYMBOL TABLE
  LABEL                              TYPE        VALUE         VALUE          VALUE
                                                 (hex)         (dec)          (text)

NOT_A                             CONSTANT      00000005              5
NOT_ADDRESS                       CONSTANT      00000005              5
NOT_BO                            CONSTANT      00000000              0
NOT_BOR                           CONSTANT      00000000              0
NOT_DONE                          CONSTANT      00000002              2
NOT_PD                            CONSTANT      00000003              3
NOT_POR                           CONSTANT      00000001              1
NOT_RBPU                          CONSTANT      00000007              7
NOT_RC8                           CONSTANT      00000006              6
NOT_T1SYNC                        CONSTANT      00000002              2
NOT_TO                            CONSTANT      00000004              4
NOT_TX8                           CONSTANT      00000006              6
NOT_W                             CONSTANT      00000002              2
NOT_WRITE                         CONSTANT      00000002              2
OBF                               CONSTANT      00000006              6
OERR                              CONSTANT      00000001              1
OPTION_REG                        CONSTANT      00000081            129
P                                 CONSTANT      00000004              4
PCFG0                             CONSTANT      00000000              0
PCFG1                             CONSTANT      00000001              1
PCFG2                             CONSTANT      00000002              2
PCFG3                             CONSTANT      00000003              3
PCL                               CONSTANT      00000002              2
PCLATH                            CONSTANT      0000000A             10
PCON                              CONSTANT      0000008E            142
PEIE                              CONSTANT      00000006              6
PEN                               CONSTANT      00000002              2
PIE1                              CONSTANT      0000008C            140
PIE2                              CONSTANT      0000008D            141
PIR1                              CONSTANT      0000000C             12
PIR2                              CONSTANT      0000000D             13
PORTA                             CONSTANT      00000005              5
PORTB                             CONSTANT      00000006              6
PORTC                             CONSTANT      00000007              7
PORTD                             CONSTANT      00000008              8
PORTE                             CONSTANT      00000009              9
PR2                               CONSTANT      00000092            146
PS0                               CONSTANT      00000000              0
PS1                               CONSTANT      00000001              1
PS2                               CONSTANT      00000002              2
PSA                               CONSTANT      00000003              3
PSAVE                             EXTERNAL      00000000              0
PSPIE                             CONSTANT      00000007              7
PSPIF                             CONSTANT      00000007              7
PSPMODE                           CONSTANT      00000004              4
R                                 CONSTANT      00000002              2
RA0                               CONSTANT      00000000              0
RA1                               CONSTANT      00000001              1
RA2                               CONSTANT      00000002              2
RA3                               CONSTANT      00000003              3
RA4                               CONSTANT      00000004              4
RA5                               CONSTANT      00000005              5
gpasm-1.5.0 #1285 (Sep 12 2016) obj\Debug\gpi   8-8-2021  22:26:03          PAGE 113


SYMBOL TABLE
  LABEL                              TYPE        VALUE         VALUE          VALUE
                                                 (hex)         (dec)          (text)

RB0                               CONSTANT      00000000              0
RB1                               CONSTANT      00000001              1
RB2                               CONSTANT      00000002              2
RB3                               CONSTANT      00000003              3
RB4                               CONSTANT      00000004              4
RB5                               CONSTANT      00000005              5
RB6                               CONSTANT      00000006              6
RB7                               CONSTANT      00000007              7
RBIE                              CONSTANT      00000003              3
RBIF                              CONSTANT      00000000              0
RC0                               CONSTANT      00000000              0
RC1                               CONSTANT      00000001              1
RC2                               CONSTANT      00000002              2
RC3                               CONSTANT      00000003              3
RC4                               CONSTANT      00000004              4
RC5                               CONSTANT      00000005              5
RC6                               CONSTANT      00000006              6
RC7                               CONSTANT      00000007              7
RC8_9                             CONSTANT      00000006              6
RC9                               CONSTANT      00000006              6
RCD8                              CONSTANT      00000000              0
RCEN                              CONSTANT      00000003              3
RCIE                              CONSTANT      00000005              5
RCIF                              CONSTANT      00000005              5
RCREG                             CONSTANT      0000001A             26
RCSTA                             CONSTANT      00000018             24
RD                                CONSTANT      00000000              0
RD0                               CONSTANT      00000000              0
RD1                               CONSTANT      00000001              1
RD2                               CONSTANT      00000002              2
RD3                               CONSTANT      00000003              3
RD4                               CONSTANT      00000004              4
RD5                               CONSTANT      00000005              5
RD6                               CONSTANT      00000006              6
RD7                               CONSTANT      00000007              7
RE0                               CONSTANT      00000000              0
RE1                               CONSTANT      00000001              1
RE2                               CONSTANT      00000002              2
READ_WRITE                        CONSTANT      00000002              2
RP0                               CONSTANT      00000005              5
RP1                               CONSTANT      00000006              6
RSEN                              CONSTANT      00000001              1
RX9                               CONSTANT      00000006              6
RX9D                              CONSTANT      00000000              0
R_NOT_W                           CONSTANT      00000002              2
R_W                               CONSTANT      00000002              2
S                                 CONSTANT      00000003              3
SEN                               CONSTANT      00000000              0
SMP                               CONSTANT      00000007              7
SPBRG                             CONSTANT      00000099            153
SPEN                              CONSTANT      00000007              7
SREN                              CONSTANT      00000005              5
gpasm-1.5.0 #1285 (Sep 12 2016) obj\Debug\gpi   8-8-2021  22:26:03          PAGE 114


SYMBOL TABLE
  LABEL                              TYPE        VALUE         VALUE          VALUE
                                                 (hex)         (dec)          (text)

SSAVE                             EXTERNAL      00000000              0
SSPADD                            CONSTANT      00000093            147
SSPBUF                            CONSTANT      00000013             19
SSPCON                            CONSTANT      00000014             20
SSPCON2                           CONSTANT      00000091            145
SSPEN                             CONSTANT      00000005              5
SSPIE                             CONSTANT      00000003              3
SSPIF                             CONSTANT      00000003              3
SSPM0                             CONSTANT      00000000              0
SSPM1                             CONSTANT      00000001              1
SSPM2                             CONSTANT      00000002              2
SSPM3                             CONSTANT      00000003              3
SSPOV                             CONSTANT      00000006              6
SSPSTAT                           CONSTANT      00000094            148
STATUS                            CONSTANT      00000003              3
STK00                             EXTERNAL      00000000              0
STK01                             EXTERNAL      00000000              0
STK02                             EXTERNAL      00000000              0
STK03                             EXTERNAL      00000000              0
STK04                             EXTERNAL      00000000              0
STK05                             EXTERNAL      00000000              0
STK06                             EXTERNAL      00000000              0
STK07                             EXTERNAL      00000000              0
STK08                             EXTERNAL      00000000              0
STK09                             EXTERNAL      00000000              0
STK10                             EXTERNAL      00000000              0
STK11                             EXTERNAL      00000000              0
STK12                             EXTERNAL      00000000              0
SYNC                              CONSTANT      00000004              4
T0CS                              CONSTANT      00000005              5
T0IE                              CONSTANT      00000005              5
T0IF                              CONSTANT      00000002              2
T0SE                              CONSTANT      00000004              4
T1CKPS0                           CONSTANT      00000004              4
T1CKPS1                           CONSTANT      00000005              5
T1CON                             CONSTANT      00000010             16
T1INSYNC                          CONSTANT      00000002              2
T1OSCEN                           CONSTANT      00000003              3
T1SYNC                            CONSTANT      00000002              2
T2CKPS0                           CONSTANT      00000000              0
T2CKPS1                           CONSTANT      00000001              1
T2CON                             CONSTANT      00000012             18
TMR0                              CONSTANT      00000001              1
TMR0IE                            CONSTANT      00000005              5
TMR0IF                            CONSTANT      00000002              2
TMR1                              CONSTANT      0000000E             14
TMR1CS                            CONSTANT      00000001              1
TMR1H                             CONSTANT      0000000F             15
TMR1IE                            CONSTANT      00000000              0
TMR1IF                            CONSTANT      00000000              0
TMR1L                             CONSTANT      0000000E             14
TMR1ON                            CONSTANT      00000000              0
gpasm-1.5.0 #1285 (Sep 12 2016) obj\Debug\gpi   8-8-2021  22:26:03          PAGE 115


SYMBOL TABLE
  LABEL                              TYPE        VALUE         VALUE          VALUE
                                                 (hex)         (dec)          (text)

TMR2                              CONSTANT      00000011             17
TMR2IE                            CONSTANT      00000001              1
TMR2IF                            CONSTANT      00000001              1
TMR2ON                            CONSTANT      00000002              2
TOUTPS0                           CONSTANT      00000003              3
TOUTPS1                           CONSTANT      00000004              4
TOUTPS2                           CONSTANT      00000005              5
TOUTPS3                           CONSTANT      00000006              6
TRISA                             CONSTANT      00000085            133
TRISA0                            CONSTANT      00000000              0
TRISA1                            CONSTANT      00000001              1
TRISA2                            CONSTANT      00000002              2
TRISA3                            CONSTANT      00000003              3
TRISA4                            CONSTANT      00000004              4
TRISA5                            CONSTANT      00000005              5
TRISB                             CONSTANT      00000086            134
TRISB0                            CONSTANT      00000000              0
TRISB1                            CONSTANT      00000001              1
TRISB2                            CONSTANT      00000002              2
TRISB3                            CONSTANT      00000003              3
TRISB4                            CONSTANT      00000004              4
TRISB5                            CONSTANT      00000005              5
TRISB6                            CONSTANT      00000006              6
TRISB7                            CONSTANT      00000007              7
TRISC                             CONSTANT      00000087            135
TRISC0                            CONSTANT      00000000              0
TRISC1                            CONSTANT      00000001              1
TRISC2                            CONSTANT      00000002              2
TRISC3                            CONSTANT      00000003              3
TRISC4                            CONSTANT      00000004              4
TRISC5                            CONSTANT      00000005              5
TRISC6                            CONSTANT      00000006              6
TRISC7                            CONSTANT      00000007              7
TRISD                             CONSTANT      00000088            136
TRISD0                            CONSTANT      00000000              0
TRISD1                            CONSTANT      00000001              1
TRISD2                            CONSTANT      00000002              2
TRISD3                            CONSTANT      00000003              3
TRISD4                            CONSTANT      00000004              4
TRISD5                            CONSTANT      00000005              5
TRISD6                            CONSTANT      00000006              6
TRISD7                            CONSTANT      00000007              7
TRISE                             CONSTANT      00000089            137
TRISE0                            CONSTANT      00000000              0
TRISE1                            CONSTANT      00000001              1
TRISE2                            CONSTANT      00000002              2
TRMT                              CONSTANT      00000001              1
TX8_9                             CONSTANT      00000006              6
TX9                               CONSTANT      00000006              6
TX9D                              CONSTANT      00000000              0
TXD8                              CONSTANT      00000000              0
TXEN                              CONSTANT      00000005              5
gpasm-1.5.0 #1285 (Sep 12 2016) obj\Debug\gpi   8-8-2021  22:26:03          PAGE 116


SYMBOL TABLE
  LABEL                              TYPE        VALUE         VALUE          VALUE
                                                 (hex)         (dec)          (text)

TXIE                              CONSTANT      00000004              4
TXIF                              CONSTANT      00000004              4
TXREG                             CONSTANT      00000019             25
TXSTA                             CONSTANT      00000098            152
UA                                CONSTANT      00000001              1
W                                 CONSTANT      00000000              0
WCOL                              CONSTANT      00000007              7
WR                                CONSTANT      00000001              1
WREN                              CONSTANT      00000002              2
WRERR                             CONSTANT      00000003              3
WSAVE                             EXTERNAL      00000000              0
Z                                 CONSTANT      00000002              2
_00001_DS_                        ADDRESS       00000017             23
_00002_DS_                        ADDRESS       00000017             23
_00003_DS_                        ADDRESS       00000015             21
_00004_DS_                        ADDRESS       00000015             21
_00005_DS_                        ADDRESS       00000018             24
_00006_DS_                        ADDRESS       00000018             24
_00007_DS_                        ADDRESS       00000016             22
_00008_DS_                        ADDRESS       00000016             22
_00121_DS_                        ADDRESS       0000001C             28
_00122_DS_                        ADDRESS       00000023             35
_00123_DS_                        ADDRESS       0000002A             42
_00124_DS_                        ADDRESS       00000031             49
_00125_DS_                        ADDRESS       00000038             56
_00128_DS_                        ADDRESS       0000003E             62
_00135_DS_                        ADDRESS       00000017             23
_00140_DS_                        ADDRESS       0000001C             28
_00141_DS_                        ADDRESS       00000023             35
_00142_DS_                        ADDRESS       0000002A             42
_00143_DS_                        ADDRESS       00000031             49
_00144_DS_                        ADDRESS       00000038             56
_00147_DS_                        ADDRESS       0000003E             62
_00154_DS_                        ADDRESS       00000017             23
_00159_DS_                        ADDRESS       0000001E             30
_00160_DS_                        ADDRESS       00000057             87
_00161_DS_                        ADDRESS       00000090            144
_00162_DS_                        ADDRESS       000000C9            201
_00163_DS_                        ADDRESS       00000102            258
_00166_DS_                        ADDRESS       0000013A            314
_00173_DS_                        ADDRESS       00000019             25
_00174_DS_                        ADDRESS       00000029             41
_00175_DS_                        ADDRESS       00000039             57
_00177_DS_                        ADDRESS       00000030             48
_00178_DS_                        ADDRESS       00000049             73
_00179_DS_                        ADDRESS       0000004F             79
_00180_DS_                        ADDRESS       00000062             98
_00181_DS_                        ADDRESS       00000072            114
_00183_DS_                        ADDRESS       00000069            105
_00184_DS_                        ADDRESS       00000082            130
_00185_DS_                        ADDRESS       00000088            136
_00186_DS_                        ADDRESS       0000009B            155
gpasm-1.5.0 #1285 (Sep 12 2016) obj\Debug\gpi   8-8-2021  22:26:03          PAGE 117


SYMBOL TABLE
  LABEL                              TYPE        VALUE         VALUE          VALUE
                                                 (hex)         (dec)          (text)

_00187_DS_                        ADDRESS       000000AB            171
_00189_DS_                        ADDRESS       000000A2            162
_00190_DS_                        ADDRESS       000000BB            187
_00191_DS_                        ADDRESS       000000C1            193
_00192_DS_                        ADDRESS       000000D4            212
_00193_DS_                        ADDRESS       000000E4            228
_00195_DS_                        ADDRESS       000000DB            219
_00196_DS_                        ADDRESS       000000F4            244
_00197_DS_                        ADDRESS       000000FA            250
_00198_DS_                        ADDRESS       0000010D            269
_00199_DS_                        ADDRESS       0000011D            285
_00201_DS_                        ADDRESS       00000114            276
_00202_DS_                        ADDRESS       0000012D            301
_00203_DS_                        ADDRESS       00000133            307
_00208_DS_                        ADDRESS       0000001E             30
_00209_DS_                        ADDRESS       00000057             87
_00210_DS_                        ADDRESS       00000090            144
_00211_DS_                        ADDRESS       000000C9            201
_00212_DS_                        ADDRESS       00000102            258
_00215_DS_                        ADDRESS       0000013A            314
_00222_DS_                        ADDRESS       00000019             25
_00223_DS_                        ADDRESS       00000029             41
_00224_DS_                        ADDRESS       00000039             57
_00226_DS_                        ADDRESS       00000030             48
_00227_DS_                        ADDRESS       00000049             73
_00228_DS_                        ADDRESS       0000004F             79
_00229_DS_                        ADDRESS       00000062             98
_00230_DS_                        ADDRESS       00000072            114
_00232_DS_                        ADDRESS       00000069            105
_00233_DS_                        ADDRESS       00000082            130
_00234_DS_                        ADDRESS       00000088            136
_00235_DS_                        ADDRESS       0000009B            155
_00236_DS_                        ADDRESS       000000AB            171
_00238_DS_                        ADDRESS       000000A2            162
_00239_DS_                        ADDRESS       000000BB            187
_00240_DS_                        ADDRESS       000000C1            193
_00241_DS_                        ADDRESS       000000D4            212
_00242_DS_                        ADDRESS       000000E4            228
_00244_DS_                        ADDRESS       000000DB            219
_00245_DS_                        ADDRESS       000000F4            244
_00246_DS_                        ADDRESS       000000FA            250
_00247_DS_                        ADDRESS       0000010D            269
_00248_DS_                        ADDRESS       0000011D            285
_00250_DS_                        ADDRESS       00000114            276
_00251_DS_                        ADDRESS       0000012D            301
_00252_DS_                        ADDRESS       00000133            307
_00257_DS_                        ADDRESS       0000001B             27
_00258_DS_                        ADDRESS       00000022             34
_00259_DS_                        ADDRESS       00000029             41
_00260_DS_                        ADDRESS       00000030             48
_00261_DS_                        ADDRESS       00000037             55
_00263_DS_                        ADDRESS       0000003D             61
gpasm-1.5.0 #1285 (Sep 12 2016) obj\Debug\gpi   8-8-2021  22:26:03          PAGE 118


SYMBOL TABLE
  LABEL                              TYPE        VALUE         VALUE          VALUE
                                                 (hex)         (dec)          (text)

_00271_DS_                        ADDRESS       00000016             22
_00276_DS_                        ADDRESS       0000001B             27
_00277_DS_                        ADDRESS       00000022             34
_00278_DS_                        ADDRESS       00000029             41
_00279_DS_                        ADDRESS       00000030             48
_00280_DS_                        ADDRESS       00000037             55
_00282_DS_                        ADDRESS       0000003D             61
_00290_DS_                        ADDRESS       00000016             22
_00295_DS_                        ADDRESS       0000001D             29
_00296_DS_                        ADDRESS       00000050             80
_00297_DS_                        ADDRESS       00000083            131
_00298_DS_                        ADDRESS       000000B6            182
_00299_DS_                        ADDRESS       000000E9            233
_00301_DS_                        ADDRESS       0000011B            283
_00309_DS_                        ADDRESS       00000018             24
_00310_DS_                        ADDRESS       00000027             39
_00311_DS_                        ADDRESS       0000002E             46
_00312_DS_                        ADDRESS       00000041             65
_00313_DS_                        ADDRESS       0000004B             75
_00314_DS_                        ADDRESS       0000005A             90
_00315_DS_                        ADDRESS       00000061             97
_00316_DS_                        ADDRESS       00000074            116
_00317_DS_                        ADDRESS       0000007E            126
_00318_DS_                        ADDRESS       0000008D            141
_00319_DS_                        ADDRESS       00000094            148
_00320_DS_                        ADDRESS       000000A7            167
_00321_DS_                        ADDRESS       000000B1            177
_00322_DS_                        ADDRESS       000000C0            192
_00323_DS_                        ADDRESS       000000C7            199
_00324_DS_                        ADDRESS       000000DA            218
_00325_DS_                        ADDRESS       000000E4            228
_00326_DS_                        ADDRESS       000000F3            243
_00327_DS_                        ADDRESS       000000FA            250
_00328_DS_                        ADDRESS       0000010D            269
_00329_DS_                        ADDRESS       00000117            279
_00334_DS_                        ADDRESS       0000001D             29
_00335_DS_                        ADDRESS       00000050             80
_00336_DS_                        ADDRESS       00000083            131
_00337_DS_                        ADDRESS       000000B6            182
_00338_DS_                        ADDRESS       000000E9            233
_00340_DS_                        ADDRESS       0000011B            283
_00348_DS_                        ADDRESS       00000018             24
_00349_DS_                        ADDRESS       00000027             39
_00350_DS_                        ADDRESS       0000002E             46
_00351_DS_                        ADDRESS       00000041             65
_00352_DS_                        ADDRESS       0000004B             75
_00353_DS_                        ADDRESS       0000005A             90
_00354_DS_                        ADDRESS       00000061             97
_00355_DS_                        ADDRESS       00000074            116
_00356_DS_                        ADDRESS       0000007E            126
_00357_DS_                        ADDRESS       0000008D            141
_00358_DS_                        ADDRESS       00000094            148
gpasm-1.5.0 #1285 (Sep 12 2016) obj\Debug\gpi   8-8-2021  22:26:03          PAGE 119


SYMBOL TABLE
  LABEL                              TYPE        VALUE         VALUE          VALUE
                                                 (hex)         (dec)          (text)

_00359_DS_                        ADDRESS       000000A7            167
_00360_DS_                        ADDRESS       000000B1            177
_00361_DS_                        ADDRESS       000000C0            192
_00362_DS_                        ADDRESS       000000C7            199
_00363_DS_                        ADDRESS       000000DA            218
_00364_DS_                        ADDRESS       000000E4            228
_00365_DS_                        ADDRESS       000000F3            243
_00366_DS_                        ADDRESS       000000FA            250
_00367_DS_                        ADDRESS       0000010D            269
_00368_DS_                        ADDRESS       00000117            279
_BODEN_OFF                        CONSTANT      00003FBF          16319
_BODEN_ON                         CONSTANT      00003FFF          16383
_BOREN_OFF                        CONSTANT      00003FBF          16319
_BOREN_ON                         CONSTANT      00003FFF          16383
_CONFIG                           CONSTANT      00002007           8199
_CPD_OFF                          CONSTANT      00003FFF          16383
_CPD_ON                           CONSTANT      00003EFF          16127
_CP_ALL                           CONSTANT      00001FFF           8191
_CP_OFF                           CONSTANT      00003FFF          16383
_CP_ON                            CONSTANT      00001FFF           8191
_DEBUG_OFF                        CONSTANT      00003FFF          16383
_DEBUG_ON                         CONSTANT      000037FF          14335
_DEVID1                           CONSTANT      00002006           8198
_FOSC_EXTRC                       CONSTANT      00003FFF          16383
_FOSC_HS                          CONSTANT      00003FFE          16382
_FOSC_LP                          CONSTANT      00003FFC          16380
_FOSC_XT                          CONSTANT      00003FFD          16381
_GPIO_GetPinDirection             GLOBAL        00000000              0
_GPIO_GetPinState                 GLOBAL        00000000              0
_GPIO_GetPortData                 GLOBAL        00000000              0
_GPIO_GetPortDirection            GLOBAL        00000000              0
_GPIO_InitPin                     GLOBAL        00000000              0
_GPIO_InitPort                    GLOBAL        00000000              0
_GPIO_SetPinDirection             GLOBAL        00000000              0
_GPIO_SetPinState                 GLOBAL        00000000              0
_GPIO_SetPortData                 GLOBAL        00000000              0
_GPIO_SetPortDirection            GLOBAL        00000000              0
_GPIO_UpdatePin                   GLOBAL        00000000              0
_GPIO_UpdatePort                  GLOBAL        00000000              0
_HS_OSC                           CONSTANT      00003FFE          16382
_IDLOC0                           CONSTANT      00002000           8192
_IDLOC1                           CONSTANT      00002001           8193
_IDLOC2                           CONSTANT      00002002           8194
_IDLOC3                           CONSTANT      00002003           8195
_LP_OSC                           CONSTANT      00003FFC          16380
_LVP_OFF                          CONSTANT      00003F7F          16255
_LVP_ON                           CONSTANT      00003FFF          16383
_PORTA                            EXTERNAL      00000000              0
_PORTB                            EXTERNAL      00000000              0
_PORTC                            EXTERNAL      00000000              0
_PORTD                            EXTERNAL      00000000              0
_PORTE                            EXTERNAL      00000000              0
gpasm-1.5.0 #1285 (Sep 12 2016) obj\Debug\gpi   8-8-2021  22:26:03          PAGE 120


SYMBOL TABLE
  LABEL                              TYPE        VALUE         VALUE          VALUE
                                                 (hex)         (dec)          (text)

_PWRTE_OFF                        CONSTANT      00003FFF          16383
_PWRTE_ON                         CONSTANT      00003FF7          16375
_RC_OSC                           CONSTANT      00003FFF          16383
_S_gpio__GPIO_InitPin_0011        ADDRESS       00000011             17
_S_gpio__GPIO_InitPin_001D        ADDRESS       0000001D             29
_S_gpio__GPIO_InitPort_000D       ADDRESS       0000000D             13
_S_gpio__GPIO_InitPort_0017       ADDRESS       00000017             23
_TRISA                            EXTERNAL      00000000              0
_TRISB                            EXTERNAL      00000000              0
_TRISC                            EXTERNAL      00000000              0
_TRISD                            EXTERNAL      00000000              0
_TRISE                            EXTERNAL      00000000              0
_WDTE_OFF                         CONSTANT      00003FFB          16379
_WDTE_ON                          CONSTANT      00003FFF          16383
_WDT_OFF                          CONSTANT      00003FFB          16379
_WDT_ON                           CONSTANT      00003FFF          16383
_WRT_1FOURTH                      CONSTANT      00003BFF          15359
_WRT_256                          CONSTANT      00003DFF          15871
_WRT_HALF                         CONSTANT      000039FF          14847
_WRT_OFF                          CONSTANT      00003FFF          16383
_XT_OSC                           CONSTANT      00003FFD          16381
__14_BIT                          CONSTANT      00000001              1
__16F877A                         CONSTANT      00000001              1
__ACTIVE_BANK_ADDR                VARIABLE      FFFFFFFF             -1
__ACTIVE_PAGE_ADDR                VARIABLE      FFFFFFFF             -1
__ASSUMED_BANK_ADDR               VARIABLE      FFFFFFFF             -1
__BANK_0                          CONSTANT      00000000              0
__BANK_1                          CONSTANT      00000080            128
__BANK_2                          CONSTANT      00000100            256
__BANK_3                          CONSTANT      00000180            384
__BANK_BITS                       CONSTANT      00000180            384
__BANK_FIRST                      CONSTANT      00000000              0
__BANK_INV                        CONSTANT      FFFFFFFF             -1
__BANK_LAST                       CONSTANT      00000180            384
__BANK_MASK                       CONSTANT      0000007F            127
__BANK_SHIFT                      CONSTANT      00000007              7
__BANK_SIZE                       CONSTANT      00000080            128
__CODE_END                        CONSTANT      00001FFF           8191
__CODE_START                      CONSTANT      00000000              0
__COMMON_RAM_END                  CONSTANT      0000007F            127
__COMMON_RAM_START                CONSTANT      00000070            112
__CONFIG_END                      CONSTANT      00002007           8199
__CONFIG_START                    CONSTANT      00002007           8199
__EEPROM_END                      CONSTANT      000021FF           8703
__EEPROM_START                    CONSTANT      00002100           8448
__GPUTILS_SVN_VERSION             CONSTANT      00000505           1285
__GPUTILS_VERSION_MAJOR           CONSTANT      00000001              1
__GPUTILS_VERSION_MICRO           CONSTANT      00000000              0
__GPUTILS_VERSION_MINOR           CONSTANT      00000005              5
__IDLOCS_END                      CONSTANT      00002003           8195
__IDLOCS_START                    CONSTANT      00002000           8192
__NUM_BANKS                       CONSTANT      00000004              4
gpasm-1.5.0 #1285 (Sep 12 2016) obj\Debug\gpi   8-8-2021  22:26:03          PAGE 121


SYMBOL TABLE
  LABEL                              TYPE        VALUE         VALUE          VALUE
                                                 (hex)         (dec)          (text)

__NUM_PAGES                       CONSTANT      00000004              4
__PAGE_0                          CONSTANT      00000000              0
__PAGE_1                          CONSTANT      00000800           2048
__PAGE_2                          CONSTANT      00001000           4096
__PAGE_3                          CONSTANT      00001800           6144
__PAGE_BITS                       CONSTANT      00001800           6144
__PAGE_FIRST                      CONSTANT      00000000              0
__PAGE_INV                        CONSTANT      FFFFFFFF             -1
__PAGE_LAST                       CONSTANT      00001800           6144
__PAGE_MASK                       CONSTANT      000007FF           2047
__PAGE_SHIFT                      CONSTANT      0000000B             11
__PAGE_SIZE                       CONSTANT      00000800           2048
__VECTOR_INT                      CONSTANT      00000004              4
__VECTOR_RESET                    CONSTANT      00000000              0
__WHILE_LOOP_COUNT_MAX            CONSTANT      000000FF            255
r0x100A                           STATIC        0000001B             27
r0x100B                           STATIC        0000001C             28
r0x100C                           STATIC        00000015             21
r0x100D                           STATIC        00000016             22
r0x100E                           STATIC        00000013             19
r0x100F                           STATIC        00000014             20
r0x101A                           STATIC        00000007              7
r0x101B                           STATIC        00000008              8
r0x101C                           STATIC        00000003              3
r0x101D                           STATIC        00000004              4
r0x101E                           STATIC        00000005              5
r0x101F                           STATIC        00000006              6
r0x1000                           STATIC        0000001D             29
r0x1001                           STATIC        0000001E             30
r0x1002                           STATIC        0000001F             31
r0x1003                           STATIC        00000020             32
r0x1004                           STATIC        00000021             33
r0x1005                           STATIC        00000022             34
r0x1006                           STATIC        00000017             23
r0x1007                           STATIC        00000018             24
r0x1008                           STATIC        00000019             25
r0x1009                           STATIC        0000001A             26
r0x1010                           STATIC        0000000F             15
r0x1011                           STATIC        00000010             16
r0x1012                           STATIC        00000011             17
r0x1013                           STATIC        00000012             18
r0x1014                           STATIC        0000000B             11
r0x1015                           STATIC        0000000C             12
r0x1016                           STATIC        0000000D             13
r0x1017                           STATIC        0000000E             14
r0x1018                           STATIC        00000009              9
r0x1019                           STATIC        0000000A             10
r0x1020                           STATIC        00000000              0
r0x1021                           STATIC        00000001              1
r0x1022                           STATIC        00000002              2

Errors   :     0
gpasm-1.5.0 #1285 (Sep 12 2016) obj\Debug\gpi   8-8-2021  22:26:03          PAGE 122




Warnings :     0 reported,     0 suppressed
Messages :     0 reported,     0 suppressed

