gpasm-1.5.0 #1285 (Sep 12 2016) obj\Debug\ssd   8-8-2021  22:26:04          PAGE  1


LOC    OBJECT CODE    LINE  SOURCE TEXT
  VALUE

                      00001 ;--------------------------------------------------------
                      00002 ; File Created by SDCC : free open source ANSI-C Compiler
                      00003 ; Version 4.1.0 #12072 (MINGW64)
                      00004 ;--------------------------------------------------------
                      00005 ; PIC port for the 14-bit core
                      00006 ;--------------------------------------------------------
                      00007         .file   "ssd.c"
                      00008         list    p=16f877a
                      00009         radix dec
                      00010         include "p16f877a.inc"
                      00001         LIST
                      00002 
                      00003 ;==========================================================================
                      00004 ; Build date : Oct 21 2015
                      00005 ;  MPASM PIC16F877A processor include
                      00006 ; 
                      00007 ;  (c) Copyright 1999-2015 Microchip Technology, All rights reserved
                      00008 ;==========================================================================
                      00009 
                      00567         LIST
                      00011 ;--------------------------------------------------------
                      00012 ; external declarations
                      00013 ;--------------------------------------------------------
  0000                00014         extern  __muluchar
  0000                00015         extern  _GPIO_GetPinState
  0000                00016         extern  _GPIO_SetPinDirection
  0000                00017         extern  _GPIO_SetPinState
  0000                00018         extern  _GPIO_SetPortDirection
  0000                00019         extern  _GPIO_SetPortData
  0000                00020         extern  _UTILITES_DelayMS
  0000                00021         extern  _SSD_SetState
  0000                00022         extern  _SSD_SetSymbol
                      00023 
  0000                00024         extern PSAVE
  0000                00025         extern SSAVE
  0000                00026         extern WSAVE
  0000                00027         extern STK12
  0000                00028         extern STK11
  0000                00029         extern STK10
  0000                00030         extern STK09
  0000                00031         extern STK08
  0000                00032         extern STK07
  0000                00033         extern STK06
  0000                00034         extern STK05
  0000                00035         extern STK04
  0000                00036         extern STK03
  0000                00037         extern STK02
  0000                00038         extern STK01
  0000                00039         extern STK00
                      00040 ;--------------------------------------------------------
                      00041 ; global declarations
                      00042 ;--------------------------------------------------------
  0000                00043         global  _SSD_SetStateData
gpasm-1.5.0 #1285 (Sep 12 2016) obj\Debug\ssd   8-8-2021  22:26:04          PAGE  2


LOC    OBJECT CODE    LINE  SOURCE TEXT
  VALUE

  0000                00044         global  _SSD_SetSymbolData
  0000                00045         global  _ssd_info
  0000                00046         global  _SSD_Init
  0000                00047         global  _SSD_Update
  0000                00048         global  _SSD_GetSymbol
  0000                00049         global  _SSD_GetState
                      00050 
                      00051 ;--------------------------------------------------------
                      00052 ; global definitions
                      00053 ;--------------------------------------------------------
                      00054 UD_ssd_0        udata
                      00055 ; G_ssd_info_0_0 == .
0000                  00056 _ssd_info       res     8
                      00057 
                      00058 ;--------------------------------------------------------
                      00059 ; absolute symbol definitions
                      00060 ;--------------------------------------------------------
                      00061 ;--------------------------------------------------------
                      00062 ; compiler-defined variables
                      00063 ;--------------------------------------------------------
                      00064 UDL_ssd_0       udata
0000                  00065 r0x1029 res     1
0001                  00066 r0x102A res     1
0002                  00067 r0x102B res     1
0003                  00068 r0x1023 res     1
0004                  00069 r0x1024 res     1
0005                  00070 r0x1025 res     1
0006                  00071 r0x1026 res     1
0007                  00072 r0x1027 res     1
0008                  00073 r0x1020 res     1
0009                  00074 r0x1021 res     1
000A                  00075 r0x101E res     1
000B                  00076 r0x101F res     1
000C                  00077 r0x101B res     1
000D                  00078 r0x101C res     1
000E                  00079 r0x101D res     1
000F                  00080 r0x1018 res     1
0010                  00081 r0x1019 res     1
0011                  00082 r0x101A res     1
0012                  00083 r0x1017 res     1
0013                  00084 r0x1013 res     1
0014                  00085 r0x1015 res     1
0015                  00086 r0x1014 res     1
0016                  00087 r0x1016 res     1
                      00088 ;--------------------------------------------------------
                      00089 ; initialized data
                      00090 ;--------------------------------------------------------
                      00091 
                      00092 IDD_ssd_0       idata
                      00093 ; Fssd_ssd_data_0_0 == .
0000                  00094 _ssd_data
0000   3F             00095         db      0x3f    ; 63
0001   06             00096         db      0x06    ; 6
gpasm-1.5.0 #1285 (Sep 12 2016) obj\Debug\ssd   8-8-2021  22:26:04          PAGE  3


LOC    OBJECT CODE    LINE  SOURCE TEXT
  VALUE

0002   5B             00097         db      0x5b    ; 91
0003   4F             00098         db      0x4f    ; 79    'O'
0004   66             00099         db      0x66    ; 102   'f'
0005   6D             00100         db      0x6d    ; 109   'm'
0006   7D             00101         db      0x7d    ; 125
0007   07             00102         db      0x07    ; 7
0008   7F             00103         db      0x7f    ; 127
0009   6F             00104         db      0x6f    ; 111   'o'
000A   00             00105         db      0x00    ; 0
                      00106 
                      00107 ;--------------------------------------------------------
                      00108 ; initialized absolute data
                      00109 ;--------------------------------------------------------
                      00110 ;--------------------------------------------------------
                      00111 ; overlayable items in internal ram 
                      00112 ;--------------------------------------------------------
                      00113 ;       udata_ovr
                      00114 ;--------------------------------------------------------
                      00115 ; code
                      00116 ;--------------------------------------------------------
                      00117 code_ssd        code
                      00118 ;***
                      00119 ;  pBlock Stats: dbName = C
                      00120 ;***
                      00121 ;has an exit
                      00122 ;functions called:
                      00123 ;   __muluchar
                      00124 ;   _GPIO_SetPortData
                      00125 ;   _GPIO_SetPinState
                      00126 ;   _GPIO_SetPinState
                      00127 ;   _GPIO_SetPinState
                      00128 ;   _GPIO_SetPinState
                      00129 ;   __muluchar
                      00130 ;   _GPIO_SetPortData
                      00131 ;   _GPIO_SetPinState
                      00132 ;   _GPIO_SetPinState
                      00133 ;   _GPIO_SetPinState
                      00134 ;   _GPIO_SetPinState
                      00135 ;6 compiler assigned registers:
                      00136 ;   r0x1013
                      00137 ;   STK00
                      00138 ;   r0x1014
                      00139 ;   r0x1015
                      00140 ;   r0x1016
                      00141 ;   STK01
                      00142 ;; Starting pCode block
                      00143 ;;; /home/sdcc-builder/build/sdcc-build/orig/sdcc/src/pic14/gen.c:2358:resultRemat *{*
                      00144 ;;; /home/sdcc-builder/build/sdcc-build/orig/sdcc/src/pic14/gen.c:2802:genLabel *{*
                      00145 ;; ***  genLabel  2805
                      00146 ;;; /home/sdcc-builder/build/sdcc-build/orig/sdcc/src/pic14/gen.c:2358:resultRemat *{*
                      00147 ;;; /home/sdcc-builder/build/sdcc-build/orig/sdcc/src/pic14/gen.c:2382:genFunction *{*
                      00148 ;; ***  genFunction  2384 curr label offset=64previous max_key=0 
                      00149 S_ssd__SSD_SetHardWare  code
gpasm-1.5.0 #1285 (Sep 12 2016) obj\Debug\ssd   8-8-2021  22:26:04          PAGE  4


LOC    OBJECT CODE    LINE  SOURCE TEXT
  VALUE

0000                  00150 _SSD_SetHardWare:
                      00151 ; 2 exit points
                      00152 ;;; /home/sdcc-builder/build/sdcc-build/orig/sdcc/src/pic14/gen.c:2358:resultRemat *{*
                      00153 ;;; /home/sdcc-builder/build/sdcc-build/orig/sdcc/src/pic14/gen.c:7642:genReceive *{*
                      00154 ;; ***  genReceive  7643
                      00155 ;;      708 register type nRegs=1
                      00156 ;;; /home/sdcc-builder/build/sdcc-build/orig/sdcc/src/pic14/gen.c:1929:assignResultValue *{*
                      00157 ;; ***  assignResultValue  1931
                      00158 ;;      line = 1933 result -=-, size=0, left AOP_REG=r0x105B, size=1, right -=-, size=0
                      00159 ;; >>> /home/sdcc-builder/build/sdcc-build/orig/sdcc/src/pic14/gen.c:1407:movwf
                      00160 ;;      1126 rIdx = r0x105B 
                      00161         .line   123; "ssd.c"    void static SSD_SetHardWare(tSSD ssd )
0000   0??? 0???      00162         BANKSEL r0x1013
0002   00??           00163         MOVWF   r0x1013
                      00164 ;;; /home/sdcc-builder/build/sdcc-build/orig/sdcc/src/pic14/gen.c:2358:resultRemat *{*
                      00165 ;;; /home/sdcc-builder/build/sdcc-build/orig/sdcc/src/pic14/gen.c:2358:resultRemat *{*
                      00166 ;;; /home/sdcc-builder/build/sdcc-build/orig/sdcc/src/pic14/gen.c:2358:resultRemat *{*
                      00167 ;;; /home/sdcc-builder/build/sdcc-build/orig/sdcc/src/pic14/gen.c:2358:resultRemat *{*
                      00168 ;;; /home/sdcc-builder/build/sdcc-build/orig/sdcc/src/pic14/gen.c:2358:resultRemat *{*
                      00169 ;;; /home/sdcc-builder/build/sdcc-build/orig/sdcc/src/pic14/gen.c:2108:genCall *{*
                      00170 ;; ***  genCall  2110
                      00171 ;;      708 register type nRegs=1
                      00172 ;;      2158 left AOP_LIT
                      00173 ;;; /home/sdcc-builder/build/sdcc-build/orig/sdcc/src/pic14/gen.c:1357:mov2w_op *{*
                      00174 ;; >>> /home/sdcc-builder/build/sdcc-build/orig/sdcc/src/pic14/gen.c:1375:mov2w_op
                      00175         .line   132; "ssd.c"    GPIO_SetPortData(PORT_D,ssd_data[ssd_info[ssd].ssd_symbol]) ;
0003   3002           00176         MOVLW   0x02
                      00177 ;;      708 register type nRegs=1
                      00178 ;;      2158 left AOP_REG
                      00179 ;; >>> /home/sdcc-builder/build/sdcc-build/orig/sdcc/src/pic14/gen.c:2166:genCall
                      00180 ;; ***  popRegFromIdx,1059  , rIdx=0x7f
0004   00??           00181         MOVWF   STK00
                      00182 ;;; /home/sdcc-builder/build/sdcc-build/orig/sdcc/src/pic14/gen.c:1357:mov2w_op *{*
                      00183 ;; ***  mov2w  1395  offset=0
                      00184 ;; >>> /home/sdcc-builder/build/sdcc-build/orig/sdcc/src/pic14/gen.c:1400:mov2w
                      00185 ;;      1126 rIdx = r0x105B 
0005   08??           00186         MOVF    r0x1013,W
                      00187 ;; >>> /home/sdcc-builder/build/sdcc-build/orig/sdcc/src/pic14/gen.c:2207:genCall
0006   0??? 0???      00188         PAGESEL __muluchar
                      00189 ;; >>> /home/sdcc-builder/build/sdcc-build/orig/sdcc/src/pic14/gen.c:2215:genCall
0008   2???           00190         CALL    __muluchar
                      00191 ;; >>> /home/sdcc-builder/build/sdcc-build/orig/sdcc/src/pic14/gen.c:2223:genCall
0009   0??? 0???      00192         PAGESEL $
                      00193 ;;      708 register type nRegs=2
                      00194 ;;; /home/sdcc-builder/build/sdcc-build/orig/sdcc/src/pic14/gen.c:1929:assignResultValue *{*
                      00195 ;; ***  assignResultValue  1931
                      00196 ;;      line = 1933 result -=-, size=0, left AOP_REG=r0x105C, size=2, right -=-, size=0
                      00197 ;; >>> /home/sdcc-builder/build/sdcc-build/orig/sdcc/src/pic14/gen.c:1407:movwf
                      00198 ;;      1126 rIdx = r0x105D 
000B   0??? 0???      00199         BANKSEL r0x1014
000D   00??           00200         MOVWF   r0x1014
                      00201 ;; >>> /home/sdcc-builder/build/sdcc-build/orig/sdcc/src/pic14/gen.c:1437:get_returnvalue
                      00202 ;; ***  popRegFromIdx,1059  , rIdx=0x7f
gpasm-1.5.0 #1285 (Sep 12 2016) obj\Debug\ssd   8-8-2021  22:26:04          PAGE  5


LOC    OBJECT CODE    LINE  SOURCE TEXT
  VALUE

000E   08??           00203         MOVF    STK00,W
                      00204 ;; >>> /home/sdcc-builder/build/sdcc-build/orig/sdcc/src/pic14/gen.c:1407:movwf
                      00205 ;;      1126 rIdx = r0x105C 
000F   00??           00206         MOVWF   r0x1015
0010   3E??           00207         ADDLW   (_ssd_info + 0)
                      00208 ;; >>> /home/sdcc-builder/build/sdcc-build/orig/sdcc/src/pic14/genarith.c:833:genPlus
                      00209 ;;      1126 rIdx = r0x105C 
0011   00??           00210         MOVWF   r0x1015
                      00211 ;; >>> /home/sdcc-builder/build/sdcc-build/orig/sdcc/src/pic14/genarith.c:849:genPlus
                      00212 ;;      1126 rIdx = r0x105D 
0012   08??           00213         MOVF    r0x1014,W
                      00214 ;; >>> /home/sdcc-builder/build/sdcc-build/orig/sdcc/src/pic14/genarith.c:850:genPlus
0013   1803           00215         BTFSC   STATUS,0
                      00216 ;; >>> /home/sdcc-builder/build/sdcc-build/orig/sdcc/src/pic14/genarith.c:851:genPlus
                      00217 ;;      1126 rIdx = r0x105D 
0014   0F??           00218         INCFSZ  r0x1014,W
                      00219 ;; >>> /home/sdcc-builder/build/sdcc-build/orig/sdcc/src/pic14/genarith.c:852:genPlus
0015   3E??           00220         ADDLW   high (_ssd_info + 0)
                      00221 ;; >>> /home/sdcc-builder/build/sdcc-build/orig/sdcc/src/pic14/genarith.c:853:genPlus
                      00222 ;;      1126 rIdx = r0x105D 
0016   00??           00223         MOVWF   r0x1014
                      00224 ;;; /home/sdcc-builder/build/sdcc-build/orig/sdcc/src/pic14/gen.c:2358:resultRemat *{*
                      00225 ;;; /home/sdcc-builder/build/sdcc-build/orig/sdcc/src/pic14/gen.c:6399:genPointerGet *{*
                      00226 ;; ***  genPointerGet  6400
                      00227 ;;; /home/sdcc-builder/build/sdcc-build/orig/sdcc/src/pic14/gen.c:6285:genNearPointerGet *{*
                      00228 ;; ***  genNearPointerGet  6286
                      00229 ;;      708 register type nRegs=2
                      00230 ;; ***  genNearPointerGet  6302
                      00231 ;;      708 register type nRegs=1
                      00232 ;;; /home/sdcc-builder/build/sdcc-build/orig/sdcc/src/pic14/gen.c:1357:mov2w_op *{*
                      00233 ;; ***  mov2w  1395  offset=0
                      00234 ;; >>> /home/sdcc-builder/build/sdcc-build/orig/sdcc/src/pic14/gen.c:1400:mov2w
                      00235 ;;      1126 rIdx = r0x105C 
0017   08??           00236         MOVF    r0x1015,W
                      00237 ;; >>> /home/sdcc-builder/build/sdcc-build/orig/sdcc/src/pic14/gen.c:5851:setup_fsr
0018   1283 1303      00238         BANKSEL FSR
001A   0084           00239         MOVWF   FSR
                      00240 ;;; /home/sdcc-builder/build/sdcc-build/orig/sdcc/src/pic14/gen.c:5802:SetIrp *{*
                      00241 ;; >>> /home/sdcc-builder/build/sdcc-build/orig/sdcc/src/pic14/gen.c:5829:SetIrp
001B   1383           00242         BCF     STATUS,7
                      00243 ;; >>> /home/sdcc-builder/build/sdcc-build/orig/sdcc/src/pic14/gen.c:5832:SetIrp
001C   0??? 0???      00244         BANKSEL r0x1014
001E   18??           00245         BTFSC   r0x1014,0
                      00246 ;; >>> /home/sdcc-builder/build/sdcc-build/orig/sdcc/src/pic14/gen.c:5833:SetIrp
001F   1783           00247         BSF     STATUS,7
                      00248 ;; >>> /home/sdcc-builder/build/sdcc-build/orig/sdcc/src/pic14/gen.c:6060:emitPtrGet
0020   1283 1303      00249         BANKSEL INDF
0022   0800           00250         MOVF    INDF,W
                      00251 ;; >>> /home/sdcc-builder/build/sdcc-build/orig/sdcc/src/pic14/gen.c:1407:movwf
                      00252 ;;      1126 rIdx = r0x105E 
0023   0??? 0???      00253         BANKSEL r0x1016
0025   00??           00254         MOVWF   r0x1016
0026   3E??           00255         ADDLW   (_ssd_data + 0)
gpasm-1.5.0 #1285 (Sep 12 2016) obj\Debug\ssd   8-8-2021  22:26:04          PAGE  6


LOC    OBJECT CODE    LINE  SOURCE TEXT
  VALUE

                      00256 ;; >>> /home/sdcc-builder/build/sdcc-build/orig/sdcc/src/pic14/genarith.c:833:genPlus
                      00257 ;;      1126 rIdx = r0x105C 
0027   00??           00258         MOVWF   r0x1015
                      00259 ;;; /home/sdcc-builder/build/sdcc-build/orig/sdcc/src/pic14/gen.c:1357:mov2w_op *{*
                      00260 ;; >>> /home/sdcc-builder/build/sdcc-build/orig/sdcc/src/pic14/gen.c:1375:mov2w_op
0028   30??           00261         MOVLW   high (_ssd_data + 0)
                      00262 ;; >>> /home/sdcc-builder/build/sdcc-build/orig/sdcc/src/pic14/genarith.c:1006:genPlus
0029   1803           00263         BTFSC   STATUS,0
                      00264 ;; >>> /home/sdcc-builder/build/sdcc-build/orig/sdcc/src/pic14/genarith.c:1007:genPlus
002A   3E01           00265         ADDLW   0x01
                      00266 ;; >>> /home/sdcc-builder/build/sdcc-build/orig/sdcc/src/pic14/genarith.c:1008:genPlus
                      00267 ;;      1126 rIdx = r0x105D 
002B   00??           00268         MOVWF   r0x1014
                      00269 ;;; /home/sdcc-builder/build/sdcc-build/orig/sdcc/src/pic14/gen.c:2358:resultRemat *{*
                      00270 ;;; /home/sdcc-builder/build/sdcc-build/orig/sdcc/src/pic14/gen.c:6399:genPointerGet *{*
                      00271 ;; ***  genPointerGet  6400
                      00272 ;;; /home/sdcc-builder/build/sdcc-build/orig/sdcc/src/pic14/gen.c:6285:genNearPointerGet *{*
                      00273 ;; ***  genNearPointerGet  6286
                      00274 ;;      708 register type nRegs=2
                      00275 ;; ***  genNearPointerGet  6302
                      00276 ;;      708 register type nRegs=1
                      00277 ;;; /home/sdcc-builder/build/sdcc-build/orig/sdcc/src/pic14/gen.c:1357:mov2w_op *{*
                      00278 ;; ***  mov2w  1395  offset=0
                      00279 ;; >>> /home/sdcc-builder/build/sdcc-build/orig/sdcc/src/pic14/gen.c:1400:mov2w
                      00280 ;;      1126 rIdx = r0x105C 
002C   08??           00281         MOVF    r0x1015,W
                      00282 ;; >>> /home/sdcc-builder/build/sdcc-build/orig/sdcc/src/pic14/gen.c:5851:setup_fsr
002D   1283 1303      00283         BANKSEL FSR
002F   0084           00284         MOVWF   FSR
                      00285 ;;; /home/sdcc-builder/build/sdcc-build/orig/sdcc/src/pic14/gen.c:5802:SetIrp *{*
                      00286 ;; >>> /home/sdcc-builder/build/sdcc-build/orig/sdcc/src/pic14/gen.c:5829:SetIrp
0030   1383           00287         BCF     STATUS,7
                      00288 ;; >>> /home/sdcc-builder/build/sdcc-build/orig/sdcc/src/pic14/gen.c:5832:SetIrp
0031   0??? 0???      00289         BANKSEL r0x1014
0033   18??           00290         BTFSC   r0x1014,0
                      00291 ;; >>> /home/sdcc-builder/build/sdcc-build/orig/sdcc/src/pic14/gen.c:5833:SetIrp
0034   1783           00292         BSF     STATUS,7
                      00293 ;; >>> /home/sdcc-builder/build/sdcc-build/orig/sdcc/src/pic14/gen.c:6060:emitPtrGet
0035   1283 1303      00294         BANKSEL INDF
0037   0800           00295         MOVF    INDF,W
                      00296 ;; >>> /home/sdcc-builder/build/sdcc-build/orig/sdcc/src/pic14/gen.c:1407:movwf
                      00297 ;;      1126 rIdx = r0x105E 
0038   0??? 0???      00298         BANKSEL r0x1016
003A   00??           00299         MOVWF   r0x1016
003B   00??           00300         MOVWF   STK00
                      00301 ;;; /home/sdcc-builder/build/sdcc-build/orig/sdcc/src/pic14/gen.c:1357:mov2w_op *{*
                      00302 ;; >>> /home/sdcc-builder/build/sdcc-build/orig/sdcc/src/pic14/gen.c:1375:mov2w_op
003C   3003           00303         MOVLW   0x03
                      00304 ;; >>> /home/sdcc-builder/build/sdcc-build/orig/sdcc/src/pic14/gen.c:2207:genCall
003D   0??? 0???      00305         PAGESEL _GPIO_SetPortData
                      00306 ;; >>> /home/sdcc-builder/build/sdcc-build/orig/sdcc/src/pic14/gen.c:2215:genCall
003F   2???           00307         CALL    _GPIO_SetPortData
                      00308 ;; >>> /home/sdcc-builder/build/sdcc-build/orig/sdcc/src/pic14/gen.c:2223:genCall
gpasm-1.5.0 #1285 (Sep 12 2016) obj\Debug\ssd   8-8-2021  22:26:04          PAGE  7


LOC    OBJECT CODE    LINE  SOURCE TEXT
  VALUE

0040   0??? 0???      00309         PAGESEL $
                      00310 ;;; /home/sdcc-builder/build/sdcc-build/orig/sdcc/src/pic14/gen.c:2358:resultRemat *{*
                      00311 ;;; /home/sdcc-builder/build/sdcc-build/orig/sdcc/src/pic14/gen.c:3616:genCmpGt *{*
                      00312 ;; ***  genCmpGt  3617
                      00313 ;;      708 register type nRegs=1
                      00314 ;;; /home/sdcc-builder/build/sdcc-build/orig/sdcc/src/pic14/gen.c:3354:genCmp *{*
                      00315 ;;swapping arguments (AOP_TYPEs 1/2)
                      00316 ;;unsigned compare: left >= lit(0x4=4), size=1
                      00317 ;; >>> /home/sdcc-builder/build/sdcc-build/orig/sdcc/src/pic14/gen.c:3325:pic14_mov2w_regOrLit
                      00318         .line   134; "ssd.c"    switch(ssd)
0042   3004           00319         MOVLW   0x04
                      00320 ;; >>> /home/sdcc-builder/build/sdcc-build/orig/sdcc/src/pic14/gen.c:3492:genCmp
                      00321 ;;      1126 rIdx = r0x105B 
0043   0??? 0???      00322         BANKSEL r0x1013
0045   02??           00323         SUBWF   r0x1013,W
                      00324 ;;; /home/sdcc-builder/build/sdcc-build/orig/sdcc/src/pic14/gen.c:3297:genSkipc *{*
                      00325 ;; >>> /home/sdcc-builder/build/sdcc-build/orig/sdcc/src/pic14/gen.c:3302:genSkipc
0046   1803           00326         BTFSC   STATUS,0
                      00327 ;; >>> /home/sdcc-builder/build/sdcc-build/orig/sdcc/src/pic14/gen.c:3306:genSkipc
                      00328 ;; ***  popGetLabel  key=6, label offset 68
0047   2???           00329         GOTO    _00174_DS_
                      00330 ;;genSkipc:3307: created from rifx:0000000000BC9340
                      00331 ;;; /home/sdcc-builder/build/sdcc-build/orig/sdcc/src/pic14/gen.c:2358:resultRemat *{*
                      00332 ;;; /home/sdcc-builder/build/sdcc-build/orig/sdcc/src/pic14/gen.c:2358:resultRemat *{*
                      00333 ;;; /home/sdcc-builder/build/sdcc-build/orig/sdcc/src/pic14/gen.c:7337:genJumpTab *{*
                      00334 ;; ***  genJumpTab  7338
                      00335 ;;      708 register type nRegs=1
                      00336 ;; >>> /home/sdcc-builder/build/sdcc-build/orig/sdcc/src/pic14/gen.c:7353:genJumpTab
                      00337 ;; ***  popGetLabel  key=13, label offset 68
0048   30??           00338         MOVLW   HIGH(_00181_DS_)
                      00339 ;; >>> /home/sdcc-builder/build/sdcc-build/orig/sdcc/src/pic14/gen.c:7354:genJumpTab
0049   1283 1303      00340         BANKSEL PCLATH
004B   008A           00341         MOVWF   PCLATH
                      00342 ;; >>> /home/sdcc-builder/build/sdcc-build/orig/sdcc/src/pic14/gen.c:7355:genJumpTab
                      00343 ;; ***  popGetLabel  key=13, label offset 68
004C   30??           00344         MOVLW   _00181_DS_
                      00345 ;; >>> /home/sdcc-builder/build/sdcc-build/orig/sdcc/src/pic14/gen.c:7356:genJumpTab
                      00346 ;;      1126 rIdx = r0x105B 
004D   0??? 0???      00347         BANKSEL r0x1013
004F   07??           00348         ADDWF   r0x1013,W
                      00349 ;; >>> /home/sdcc-builder/build/sdcc-build/orig/sdcc/src/pic14/gen.c:7357:genJumpTab
0050   1C03           00350         BTFSS   STATUS,0
0051   2???           00351         GOTO    _00001_DS_
                      00352 ;; >>> /home/sdcc-builder/build/sdcc-build/orig/sdcc/src/pic14/gen.c:7358:genJumpTab
0052   1283 1303      00353         BANKSEL PCLATH
0054   0A8A           00354         INCF    PCLATH,F
                      00355 ;; >>> /home/sdcc-builder/build/sdcc-build/orig/sdcc/src/pic14/gen.c:7359:genJumpTab
0055                  00356 _00001_DS_:
0055   0082           00357         MOVWF   PCL
                      00358 ;; >>> /home/sdcc-builder/build/sdcc-build/orig/sdcc/src/pic14/gen.c:7368:genJumpTab
                      00359 ;; ***  popGetLabel  key=1, label offset 68
0056                  00360 _00181_DS_:
0056   2???           00361         GOTO    _00169_DS_
gpasm-1.5.0 #1285 (Sep 12 2016) obj\Debug\ssd   8-8-2021  22:26:04          PAGE  8


LOC    OBJECT CODE    LINE  SOURCE TEXT
  VALUE

                      00362 ;; >>> /home/sdcc-builder/build/sdcc-build/orig/sdcc/src/pic14/gen.c:7368:genJumpTab
                      00363 ;; ***  popGetLabel  key=2, label offset 68
0057   2???           00364         GOTO    _00170_DS_
                      00365 ;; >>> /home/sdcc-builder/build/sdcc-build/orig/sdcc/src/pic14/gen.c:7368:genJumpTab
                      00366 ;; ***  popGetLabel  key=3, label offset 68
0058   2???           00367         GOTO    _00171_DS_
                      00368 ;; >>> /home/sdcc-builder/build/sdcc-build/orig/sdcc/src/pic14/gen.c:7368:genJumpTab
                      00369 ;; ***  popGetLabel  key=4, label offset 68
0059   2???           00370         GOTO    _00172_DS_
                      00371 ;;; /home/sdcc-builder/build/sdcc-build/orig/sdcc/src/pic14/gen.c:2358:resultRemat *{*
                      00372 ;;; /home/sdcc-builder/build/sdcc-build/orig/sdcc/src/pic14/gen.c:2802:genLabel *{*
                      00373 ;; ***  genLabel  2805
                      00374 ;;; /home/sdcc-builder/build/sdcc-build/orig/sdcc/src/pic14/gen.c:2358:resultRemat *{*
                      00375 ;;; /home/sdcc-builder/build/sdcc-build/orig/sdcc/src/pic14/gen.c:2358:resultRemat *{*
                      00376 ;;; /home/sdcc-builder/build/sdcc-build/orig/sdcc/src/pic14/gen.c:2358:resultRemat *{*
                      00377 ;;; /home/sdcc-builder/build/sdcc-build/orig/sdcc/src/pic14/gen.c:2358:resultRemat *{*
                      00378 ;;; /home/sdcc-builder/build/sdcc-build/orig/sdcc/src/pic14/gen.c:2108:genCall *{*
                      00379 ;; ***  genCall  2110
                      00380 ;;      2158 left AOP_LIT
                      00381 ;;; /home/sdcc-builder/build/sdcc-build/orig/sdcc/src/pic14/gen.c:1357:mov2w_op *{*
                      00382 ;; >>> /home/sdcc-builder/build/sdcc-build/orig/sdcc/src/pic14/gen.c:1375:mov2w_op
005A                  00383 _00169_DS_:
                      00384         .line   137; "ssd.c"    GPIO_SetPinState(PORT_B,PIN_4, SSD_ON) ;
005A   3001           00385         MOVLW   0x01
                      00386 ;;      2158 left AOP_LIT
                      00387 ;; >>> /home/sdcc-builder/build/sdcc-build/orig/sdcc/src/pic14/gen.c:2166:genCall
                      00388 ;; ***  popRegFromIdx,1059  , rIdx=0x7e
005B   00??           00389         MOVWF   STK01
                      00390 ;;; /home/sdcc-builder/build/sdcc-build/orig/sdcc/src/pic14/gen.c:1357:mov2w_op *{*
                      00391 ;; >>> /home/sdcc-builder/build/sdcc-build/orig/sdcc/src/pic14/gen.c:1375:mov2w_op
005C   3004           00392         MOVLW   0x04
                      00393 ;;      2158 left AOP_LIT
                      00394 ;; >>> /home/sdcc-builder/build/sdcc-build/orig/sdcc/src/pic14/gen.c:2166:genCall
                      00395 ;; ***  popRegFromIdx,1059  , rIdx=0x7f
005D   00??           00396         MOVWF   STK00
                      00397 ;;; /home/sdcc-builder/build/sdcc-build/orig/sdcc/src/pic14/gen.c:1357:mov2w_op *{*
                      00398 ;; >>> /home/sdcc-builder/build/sdcc-build/orig/sdcc/src/pic14/gen.c:1375:mov2w_op
005E   3001           00399         MOVLW   0x01
                      00400 ;; >>> /home/sdcc-builder/build/sdcc-build/orig/sdcc/src/pic14/gen.c:2207:genCall
005F   0??? 0???      00401         PAGESEL _GPIO_SetPinState
                      00402 ;; >>> /home/sdcc-builder/build/sdcc-build/orig/sdcc/src/pic14/gen.c:2215:genCall
0061   2???           00403         CALL    _GPIO_SetPinState
                      00404 ;; >>> /home/sdcc-builder/build/sdcc-build/orig/sdcc/src/pic14/gen.c:2223:genCall
0062   0??? 0???      00405         PAGESEL $
                      00406 ;;; /home/sdcc-builder/build/sdcc-build/orig/sdcc/src/pic14/gen.c:2358:resultRemat *{*
                      00407 ;;; /home/sdcc-builder/build/sdcc-build/orig/sdcc/src/pic14/gen.c:2820:genGoto *{*
                      00408 ;; >>> /home/sdcc-builder/build/sdcc-build/orig/sdcc/src/pic14/gen.c:2822:genGoto
                      00409 ;; ***  popGetLabel  key=6, label offset 68
                      00410         .line   138; "ssd.c"    break ;
0064   2???           00411         GOTO    _00174_DS_
                      00412 ;;; /home/sdcc-builder/build/sdcc-build/orig/sdcc/src/pic14/gen.c:2358:resultRemat *{*
                      00413 ;;; /home/sdcc-builder/build/sdcc-build/orig/sdcc/src/pic14/gen.c:2802:genLabel *{*
                      00414 ;; ***  genLabel  2805
gpasm-1.5.0 #1285 (Sep 12 2016) obj\Debug\ssd   8-8-2021  22:26:04          PAGE  9


LOC    OBJECT CODE    LINE  SOURCE TEXT
  VALUE

                      00415 ;;; /home/sdcc-builder/build/sdcc-build/orig/sdcc/src/pic14/gen.c:2358:resultRemat *{*
                      00416 ;;; /home/sdcc-builder/build/sdcc-build/orig/sdcc/src/pic14/gen.c:2358:resultRemat *{*
                      00417 ;;; /home/sdcc-builder/build/sdcc-build/orig/sdcc/src/pic14/gen.c:2358:resultRemat *{*
                      00418 ;;; /home/sdcc-builder/build/sdcc-build/orig/sdcc/src/pic14/gen.c:2358:resultRemat *{*
                      00419 ;;; /home/sdcc-builder/build/sdcc-build/orig/sdcc/src/pic14/gen.c:2108:genCall *{*
                      00420 ;; ***  genCall  2110
                      00421 ;;      2158 left AOP_LIT
                      00422 ;;; /home/sdcc-builder/build/sdcc-build/orig/sdcc/src/pic14/gen.c:1357:mov2w_op *{*
                      00423 ;; >>> /home/sdcc-builder/build/sdcc-build/orig/sdcc/src/pic14/gen.c:1375:mov2w_op
0065                  00424 _00170_DS_:
                      00425         .line   140; "ssd.c"    GPIO_SetPinState(PORT_B,PIN_5, SSD_ON) ;
0065   3001           00426         MOVLW   0x01
                      00427 ;;      2158 left AOP_LIT
                      00428 ;; >>> /home/sdcc-builder/build/sdcc-build/orig/sdcc/src/pic14/gen.c:2166:genCall
                      00429 ;; ***  popRegFromIdx,1059  , rIdx=0x7e
0066   00??           00430         MOVWF   STK01
                      00431 ;;; /home/sdcc-builder/build/sdcc-build/orig/sdcc/src/pic14/gen.c:1357:mov2w_op *{*
                      00432 ;; >>> /home/sdcc-builder/build/sdcc-build/orig/sdcc/src/pic14/gen.c:1375:mov2w_op
0067   3005           00433         MOVLW   0x05
                      00434 ;;      2158 left AOP_LIT
                      00435 ;; >>> /home/sdcc-builder/build/sdcc-build/orig/sdcc/src/pic14/gen.c:2166:genCall
                      00436 ;; ***  popRegFromIdx,1059  , rIdx=0x7f
0068   00??           00437         MOVWF   STK00
                      00438 ;;; /home/sdcc-builder/build/sdcc-build/orig/sdcc/src/pic14/gen.c:1357:mov2w_op *{*
                      00439 ;; >>> /home/sdcc-builder/build/sdcc-build/orig/sdcc/src/pic14/gen.c:1375:mov2w_op
0069   3001           00440         MOVLW   0x01
                      00441 ;; >>> /home/sdcc-builder/build/sdcc-build/orig/sdcc/src/pic14/gen.c:2207:genCall
006A   0??? 0???      00442         PAGESEL _GPIO_SetPinState
                      00443 ;; >>> /home/sdcc-builder/build/sdcc-build/orig/sdcc/src/pic14/gen.c:2215:genCall
006C   2???           00444         CALL    _GPIO_SetPinState
                      00445 ;; >>> /home/sdcc-builder/build/sdcc-build/orig/sdcc/src/pic14/gen.c:2223:genCall
006D   0??? 0???      00446         PAGESEL $
                      00447 ;;; /home/sdcc-builder/build/sdcc-build/orig/sdcc/src/pic14/gen.c:2358:resultRemat *{*
                      00448 ;;; /home/sdcc-builder/build/sdcc-build/orig/sdcc/src/pic14/gen.c:2820:genGoto *{*
                      00449 ;; >>> /home/sdcc-builder/build/sdcc-build/orig/sdcc/src/pic14/gen.c:2822:genGoto
                      00450 ;; ***  popGetLabel  key=6, label offset 68
                      00451         .line   141; "ssd.c"    break ;
006F   2???           00452         GOTO    _00174_DS_
                      00453 ;;; /home/sdcc-builder/build/sdcc-build/orig/sdcc/src/pic14/gen.c:2358:resultRemat *{*
                      00454 ;;; /home/sdcc-builder/build/sdcc-build/orig/sdcc/src/pic14/gen.c:2802:genLabel *{*
                      00455 ;; ***  genLabel  2805
                      00456 ;;; /home/sdcc-builder/build/sdcc-build/orig/sdcc/src/pic14/gen.c:2358:resultRemat *{*
                      00457 ;;; /home/sdcc-builder/build/sdcc-build/orig/sdcc/src/pic14/gen.c:2358:resultRemat *{*
                      00458 ;;; /home/sdcc-builder/build/sdcc-build/orig/sdcc/src/pic14/gen.c:2358:resultRemat *{*
                      00459 ;;; /home/sdcc-builder/build/sdcc-build/orig/sdcc/src/pic14/gen.c:2358:resultRemat *{*
                      00460 ;;; /home/sdcc-builder/build/sdcc-build/orig/sdcc/src/pic14/gen.c:2108:genCall *{*
                      00461 ;; ***  genCall  2110
                      00462 ;;      2158 left AOP_LIT
                      00463 ;;; /home/sdcc-builder/build/sdcc-build/orig/sdcc/src/pic14/gen.c:1357:mov2w_op *{*
                      00464 ;; >>> /home/sdcc-builder/build/sdcc-build/orig/sdcc/src/pic14/gen.c:1375:mov2w_op
0070                  00465 _00171_DS_:
                      00466         .line   143; "ssd.c"    GPIO_SetPinState(PORT_B,PIN_6, SSD_ON) ;
0070   3001           00467         MOVLW   0x01
gpasm-1.5.0 #1285 (Sep 12 2016) obj\Debug\ssd   8-8-2021  22:26:04          PAGE 10


LOC    OBJECT CODE    LINE  SOURCE TEXT
  VALUE

                      00468 ;;      2158 left AOP_LIT
                      00469 ;; >>> /home/sdcc-builder/build/sdcc-build/orig/sdcc/src/pic14/gen.c:2166:genCall
                      00470 ;; ***  popRegFromIdx,1059  , rIdx=0x7e
0071   00??           00471         MOVWF   STK01
                      00472 ;;; /home/sdcc-builder/build/sdcc-build/orig/sdcc/src/pic14/gen.c:1357:mov2w_op *{*
                      00473 ;; >>> /home/sdcc-builder/build/sdcc-build/orig/sdcc/src/pic14/gen.c:1375:mov2w_op
0072   3006           00474         MOVLW   0x06
                      00475 ;;      2158 left AOP_LIT
                      00476 ;; >>> /home/sdcc-builder/build/sdcc-build/orig/sdcc/src/pic14/gen.c:2166:genCall
                      00477 ;; ***  popRegFromIdx,1059  , rIdx=0x7f
0073   00??           00478         MOVWF   STK00
                      00479 ;;; /home/sdcc-builder/build/sdcc-build/orig/sdcc/src/pic14/gen.c:1357:mov2w_op *{*
                      00480 ;; >>> /home/sdcc-builder/build/sdcc-build/orig/sdcc/src/pic14/gen.c:1375:mov2w_op
0074   3001           00481         MOVLW   0x01
                      00482 ;; >>> /home/sdcc-builder/build/sdcc-build/orig/sdcc/src/pic14/gen.c:2207:genCall
0075   0??? 0???      00483         PAGESEL _GPIO_SetPinState
                      00484 ;; >>> /home/sdcc-builder/build/sdcc-build/orig/sdcc/src/pic14/gen.c:2215:genCall
0077   2???           00485         CALL    _GPIO_SetPinState
                      00486 ;; >>> /home/sdcc-builder/build/sdcc-build/orig/sdcc/src/pic14/gen.c:2223:genCall
0078   0??? 0???      00487         PAGESEL $
                      00488 ;;; /home/sdcc-builder/build/sdcc-build/orig/sdcc/src/pic14/gen.c:2358:resultRemat *{*
                      00489 ;;; /home/sdcc-builder/build/sdcc-build/orig/sdcc/src/pic14/gen.c:2820:genGoto *{*
                      00490 ;; >>> /home/sdcc-builder/build/sdcc-build/orig/sdcc/src/pic14/gen.c:2822:genGoto
                      00491 ;; ***  popGetLabel  key=6, label offset 68
                      00492         .line   144; "ssd.c"    break ;
007A   2???           00493         GOTO    _00174_DS_
                      00494 ;;; /home/sdcc-builder/build/sdcc-build/orig/sdcc/src/pic14/gen.c:2358:resultRemat *{*
                      00495 ;;; /home/sdcc-builder/build/sdcc-build/orig/sdcc/src/pic14/gen.c:2802:genLabel *{*
                      00496 ;; ***  genLabel  2805
                      00497 ;;; /home/sdcc-builder/build/sdcc-build/orig/sdcc/src/pic14/gen.c:2358:resultRemat *{*
                      00498 ;;; /home/sdcc-builder/build/sdcc-build/orig/sdcc/src/pic14/gen.c:2358:resultRemat *{*
                      00499 ;;; /home/sdcc-builder/build/sdcc-build/orig/sdcc/src/pic14/gen.c:2358:resultRemat *{*
                      00500 ;;; /home/sdcc-builder/build/sdcc-build/orig/sdcc/src/pic14/gen.c:2358:resultRemat *{*
                      00501 ;;; /home/sdcc-builder/build/sdcc-build/orig/sdcc/src/pic14/gen.c:2108:genCall *{*
                      00502 ;; ***  genCall  2110
                      00503 ;;      2158 left AOP_LIT
                      00504 ;;; /home/sdcc-builder/build/sdcc-build/orig/sdcc/src/pic14/gen.c:1357:mov2w_op *{*
                      00505 ;; >>> /home/sdcc-builder/build/sdcc-build/orig/sdcc/src/pic14/gen.c:1375:mov2w_op
007B                  00506 _00172_DS_:
                      00507         .line   146; "ssd.c"    GPIO_SetPinState(PORT_B,PIN_7, SSD_ON) ;
007B   3001           00508         MOVLW   0x01
                      00509 ;;      2158 left AOP_LIT
                      00510 ;; >>> /home/sdcc-builder/build/sdcc-build/orig/sdcc/src/pic14/gen.c:2166:genCall
                      00511 ;; ***  popRegFromIdx,1059  , rIdx=0x7e
007C   00??           00512         MOVWF   STK01
                      00513 ;;; /home/sdcc-builder/build/sdcc-build/orig/sdcc/src/pic14/gen.c:1357:mov2w_op *{*
                      00514 ;; >>> /home/sdcc-builder/build/sdcc-build/orig/sdcc/src/pic14/gen.c:1375:mov2w_op
007D   3007           00515         MOVLW   0x07
                      00516 ;;      2158 left AOP_LIT
                      00517 ;; >>> /home/sdcc-builder/build/sdcc-build/orig/sdcc/src/pic14/gen.c:2166:genCall
                      00518 ;; ***  popRegFromIdx,1059  , rIdx=0x7f
007E   00??           00519         MOVWF   STK00
                      00520 ;;; /home/sdcc-builder/build/sdcc-build/orig/sdcc/src/pic14/gen.c:1357:mov2w_op *{*
gpasm-1.5.0 #1285 (Sep 12 2016) obj\Debug\ssd   8-8-2021  22:26:04          PAGE 11


LOC    OBJECT CODE    LINE  SOURCE TEXT
  VALUE

                      00521 ;; >>> /home/sdcc-builder/build/sdcc-build/orig/sdcc/src/pic14/gen.c:1375:mov2w_op
007F   3001           00522         MOVLW   0x01
                      00523 ;; >>> /home/sdcc-builder/build/sdcc-build/orig/sdcc/src/pic14/gen.c:2207:genCall
0080   0??? 0???      00524         PAGESEL _GPIO_SetPinState
                      00525 ;; >>> /home/sdcc-builder/build/sdcc-build/orig/sdcc/src/pic14/gen.c:2215:genCall
0082   2???           00526         CALL    _GPIO_SetPinState
                      00527 ;; >>> /home/sdcc-builder/build/sdcc-build/orig/sdcc/src/pic14/gen.c:2223:genCall
0083   0??? 0???      00528         PAGESEL $
                      00529 ;;; /home/sdcc-builder/build/sdcc-build/orig/sdcc/src/pic14/gen.c:2358:resultRemat *{*
                      00530 ;;; /home/sdcc-builder/build/sdcc-build/orig/sdcc/src/pic14/gen.c:2802:genLabel *{*
                      00531 ;; ***  genLabel  2805
                      00532 ;;; /home/sdcc-builder/build/sdcc-build/orig/sdcc/src/pic14/gen.c:2358:resultRemat *{*
                      00533 ;;; /home/sdcc-builder/build/sdcc-build/orig/sdcc/src/pic14/gen.c:2570:genEndFunction *{*
                      00534 ;; ***  genEndFunction  2572
0085                  00535 _00174_DS_:
                      00536         .line   149; "ssd.c"    }
0085   0008           00537         RETURN  
                      00538 ; exit point of _SSD_SetHardWare
                      00539 
                      00540 ;***
                      00541 ;  pBlock Stats: dbName = C
                      00542 ;***
                      00543 ;has an exit
                      00544 ;functions called:
                      00545 ;   _GPIO_SetPinState
                      00546 ;   _GPIO_SetPinState
                      00547 ;   _GPIO_SetPinState
                      00548 ;   _GPIO_SetPinState
                      00549 ;   _GPIO_SetPinState
                      00550 ;   _GPIO_SetPinState
                      00551 ;   _GPIO_SetPinState
                      00552 ;   _GPIO_SetPinState
                      00553 ;2 compiler assigned registers:
                      00554 ;   STK01
                      00555 ;   STK00
                      00556 ;; Starting pCode block
                      00557 ;;; /home/sdcc-builder/build/sdcc-build/orig/sdcc/src/pic14/gen.c:2358:resultRemat *{*
                      00558 ;;; /home/sdcc-builder/build/sdcc-build/orig/sdcc/src/pic14/gen.c:2802:genLabel *{*
                      00559 ;; ***  genLabel  2805
                      00560 ;;; /home/sdcc-builder/build/sdcc-build/orig/sdcc/src/pic14/gen.c:2358:resultRemat *{*
                      00561 ;;; /home/sdcc-builder/build/sdcc-build/orig/sdcc/src/pic14/gen.c:2382:genFunction *{*
                      00562 ;; ***  genFunction  2384 curr label offset=47previous max_key=13 
                      00563 S_ssd__SSD_TurnAllOff   code
0000                  00564 _SSD_TurnAllOff:
                      00565 ; 2 exit points
                      00566 ;;; /home/sdcc-builder/build/sdcc-build/orig/sdcc/src/pic14/gen.c:2358:resultRemat *{*
                      00567 ;;; /home/sdcc-builder/build/sdcc-build/orig/sdcc/src/pic14/gen.c:2358:resultRemat *{*
                      00568 ;;; /home/sdcc-builder/build/sdcc-build/orig/sdcc/src/pic14/gen.c:2358:resultRemat *{*
                      00569 ;;; /home/sdcc-builder/build/sdcc-build/orig/sdcc/src/pic14/gen.c:2358:resultRemat *{*
                      00570 ;;; /home/sdcc-builder/build/sdcc-build/orig/sdcc/src/pic14/gen.c:2108:genCall *{*
                      00571 ;; ***  genCall  2110
                      00572 ;;      2158 left AOP_LIT
                      00573 ;;; /home/sdcc-builder/build/sdcc-build/orig/sdcc/src/pic14/gen.c:1357:mov2w_op *{*
gpasm-1.5.0 #1285 (Sep 12 2016) obj\Debug\ssd   8-8-2021  22:26:04          PAGE 12


LOC    OBJECT CODE    LINE  SOURCE TEXT
  VALUE

                      00574 ;; >>> /home/sdcc-builder/build/sdcc-build/orig/sdcc/src/pic14/gen.c:1375:mov2w_op
                      00575         .line   118; "ssd.c"    GPIO_SetPinState(PORT_B,PIN_4, SSD_OFF) ;
0000   3000           00576         MOVLW   0x00
                      00577 ;;      2158 left AOP_LIT
                      00578 ;; >>> /home/sdcc-builder/build/sdcc-build/orig/sdcc/src/pic14/gen.c:2166:genCall
                      00579 ;; ***  popRegFromIdx,1059  , rIdx=0x7e
0001   00??           00580         MOVWF   STK01
                      00581 ;;; /home/sdcc-builder/build/sdcc-build/orig/sdcc/src/pic14/gen.c:1357:mov2w_op *{*
                      00582 ;; >>> /home/sdcc-builder/build/sdcc-build/orig/sdcc/src/pic14/gen.c:1375:mov2w_op
0002   3004           00583         MOVLW   0x04
                      00584 ;;      2158 left AOP_LIT
                      00585 ;; >>> /home/sdcc-builder/build/sdcc-build/orig/sdcc/src/pic14/gen.c:2166:genCall
                      00586 ;; ***  popRegFromIdx,1059  , rIdx=0x7f
0003   00??           00587         MOVWF   STK00
                      00588 ;;; /home/sdcc-builder/build/sdcc-build/orig/sdcc/src/pic14/gen.c:1357:mov2w_op *{*
                      00589 ;; >>> /home/sdcc-builder/build/sdcc-build/orig/sdcc/src/pic14/gen.c:1375:mov2w_op
0004   3001           00590         MOVLW   0x01
                      00591 ;; >>> /home/sdcc-builder/build/sdcc-build/orig/sdcc/src/pic14/gen.c:2207:genCall
0005   0??? 0???      00592         PAGESEL _GPIO_SetPinState
                      00593 ;; >>> /home/sdcc-builder/build/sdcc-build/orig/sdcc/src/pic14/gen.c:2215:genCall
0007   2???           00594         CALL    _GPIO_SetPinState
                      00595 ;; >>> /home/sdcc-builder/build/sdcc-build/orig/sdcc/src/pic14/gen.c:2223:genCall
0008   0??? 0???      00596         PAGESEL $
                      00597 ;;; /home/sdcc-builder/build/sdcc-build/orig/sdcc/src/pic14/gen.c:2358:resultRemat *{*
                      00598 ;;; /home/sdcc-builder/build/sdcc-build/orig/sdcc/src/pic14/gen.c:2358:resultRemat *{*
                      00599 ;;; /home/sdcc-builder/build/sdcc-build/orig/sdcc/src/pic14/gen.c:2358:resultRemat *{*
                      00600 ;;; /home/sdcc-builder/build/sdcc-build/orig/sdcc/src/pic14/gen.c:2358:resultRemat *{*
                      00601 ;;; /home/sdcc-builder/build/sdcc-build/orig/sdcc/src/pic14/gen.c:2108:genCall *{*
                      00602 ;; ***  genCall  2110
                      00603 ;;      2158 left AOP_LIT
                      00604 ;;; /home/sdcc-builder/build/sdcc-build/orig/sdcc/src/pic14/gen.c:1357:mov2w_op *{*
                      00605 ;; >>> /home/sdcc-builder/build/sdcc-build/orig/sdcc/src/pic14/gen.c:1375:mov2w_op
                      00606         .line   119; "ssd.c"    GPIO_SetPinState(PORT_B,PIN_5, SSD_OFF) ;
000A   3000           00607         MOVLW   0x00
                      00608 ;;      2158 left AOP_LIT
                      00609 ;; >>> /home/sdcc-builder/build/sdcc-build/orig/sdcc/src/pic14/gen.c:2166:genCall
                      00610 ;; ***  popRegFromIdx,1059  , rIdx=0x7e
000B   00??           00611         MOVWF   STK01
                      00612 ;;; /home/sdcc-builder/build/sdcc-build/orig/sdcc/src/pic14/gen.c:1357:mov2w_op *{*
                      00613 ;; >>> /home/sdcc-builder/build/sdcc-build/orig/sdcc/src/pic14/gen.c:1375:mov2w_op
000C   3005           00614         MOVLW   0x05
                      00615 ;;      2158 left AOP_LIT
                      00616 ;; >>> /home/sdcc-builder/build/sdcc-build/orig/sdcc/src/pic14/gen.c:2166:genCall
                      00617 ;; ***  popRegFromIdx,1059  , rIdx=0x7f
000D   00??           00618         MOVWF   STK00
                      00619 ;;; /home/sdcc-builder/build/sdcc-build/orig/sdcc/src/pic14/gen.c:1357:mov2w_op *{*
                      00620 ;; >>> /home/sdcc-builder/build/sdcc-build/orig/sdcc/src/pic14/gen.c:1375:mov2w_op
000E   3001           00621         MOVLW   0x01
                      00622 ;; >>> /home/sdcc-builder/build/sdcc-build/orig/sdcc/src/pic14/gen.c:2207:genCall
000F   0??? 0???      00623         PAGESEL _GPIO_SetPinState
                      00624 ;; >>> /home/sdcc-builder/build/sdcc-build/orig/sdcc/src/pic14/gen.c:2215:genCall
0011   2???           00625         CALL    _GPIO_SetPinState
                      00626 ;; >>> /home/sdcc-builder/build/sdcc-build/orig/sdcc/src/pic14/gen.c:2223:genCall
gpasm-1.5.0 #1285 (Sep 12 2016) obj\Debug\ssd   8-8-2021  22:26:04          PAGE 13


LOC    OBJECT CODE    LINE  SOURCE TEXT
  VALUE

0012   0??? 0???      00627         PAGESEL $
                      00628 ;;; /home/sdcc-builder/build/sdcc-build/orig/sdcc/src/pic14/gen.c:2358:resultRemat *{*
                      00629 ;;; /home/sdcc-builder/build/sdcc-build/orig/sdcc/src/pic14/gen.c:2358:resultRemat *{*
                      00630 ;;; /home/sdcc-builder/build/sdcc-build/orig/sdcc/src/pic14/gen.c:2358:resultRemat *{*
                      00631 ;;; /home/sdcc-builder/build/sdcc-build/orig/sdcc/src/pic14/gen.c:2358:resultRemat *{*
                      00632 ;;; /home/sdcc-builder/build/sdcc-build/orig/sdcc/src/pic14/gen.c:2108:genCall *{*
                      00633 ;; ***  genCall  2110
                      00634 ;;      2158 left AOP_LIT
                      00635 ;;; /home/sdcc-builder/build/sdcc-build/orig/sdcc/src/pic14/gen.c:1357:mov2w_op *{*
                      00636 ;; >>> /home/sdcc-builder/build/sdcc-build/orig/sdcc/src/pic14/gen.c:1375:mov2w_op
                      00637         .line   120; "ssd.c"    GPIO_SetPinState(PORT_B,PIN_6, SSD_OFF) ;
0014   3000           00638         MOVLW   0x00
                      00639 ;;      2158 left AOP_LIT
                      00640 ;; >>> /home/sdcc-builder/build/sdcc-build/orig/sdcc/src/pic14/gen.c:2166:genCall
                      00641 ;; ***  popRegFromIdx,1059  , rIdx=0x7e
0015   00??           00642         MOVWF   STK01
                      00643 ;;; /home/sdcc-builder/build/sdcc-build/orig/sdcc/src/pic14/gen.c:1357:mov2w_op *{*
                      00644 ;; >>> /home/sdcc-builder/build/sdcc-build/orig/sdcc/src/pic14/gen.c:1375:mov2w_op
0016   3006           00645         MOVLW   0x06
                      00646 ;;      2158 left AOP_LIT
                      00647 ;; >>> /home/sdcc-builder/build/sdcc-build/orig/sdcc/src/pic14/gen.c:2166:genCall
                      00648 ;; ***  popRegFromIdx,1059  , rIdx=0x7f
0017   00??           00649         MOVWF   STK00
                      00650 ;;; /home/sdcc-builder/build/sdcc-build/orig/sdcc/src/pic14/gen.c:1357:mov2w_op *{*
                      00651 ;; >>> /home/sdcc-builder/build/sdcc-build/orig/sdcc/src/pic14/gen.c:1375:mov2w_op
0018   3001           00652         MOVLW   0x01
                      00653 ;; >>> /home/sdcc-builder/build/sdcc-build/orig/sdcc/src/pic14/gen.c:2207:genCall
0019   0??? 0???      00654         PAGESEL _GPIO_SetPinState
                      00655 ;; >>> /home/sdcc-builder/build/sdcc-build/orig/sdcc/src/pic14/gen.c:2215:genCall
001B   2???           00656         CALL    _GPIO_SetPinState
                      00657 ;; >>> /home/sdcc-builder/build/sdcc-build/orig/sdcc/src/pic14/gen.c:2223:genCall
001C   0??? 0???      00658         PAGESEL $
                      00659 ;;; /home/sdcc-builder/build/sdcc-build/orig/sdcc/src/pic14/gen.c:2358:resultRemat *{*
                      00660 ;;; /home/sdcc-builder/build/sdcc-build/orig/sdcc/src/pic14/gen.c:2358:resultRemat *{*
                      00661 ;;; /home/sdcc-builder/build/sdcc-build/orig/sdcc/src/pic14/gen.c:2358:resultRemat *{*
                      00662 ;;; /home/sdcc-builder/build/sdcc-build/orig/sdcc/src/pic14/gen.c:2358:resultRemat *{*
                      00663 ;;; /home/sdcc-builder/build/sdcc-build/orig/sdcc/src/pic14/gen.c:2108:genCall *{*
                      00664 ;; ***  genCall  2110
                      00665 ;;      2158 left AOP_LIT
                      00666 ;;; /home/sdcc-builder/build/sdcc-build/orig/sdcc/src/pic14/gen.c:1357:mov2w_op *{*
                      00667 ;; >>> /home/sdcc-builder/build/sdcc-build/orig/sdcc/src/pic14/gen.c:1375:mov2w_op
                      00668         .line   121; "ssd.c"    GPIO_SetPinState(PORT_B,PIN_7, SSD_OFF) ;
001E   3000           00669         MOVLW   0x00
                      00670 ;;      2158 left AOP_LIT
                      00671 ;; >>> /home/sdcc-builder/build/sdcc-build/orig/sdcc/src/pic14/gen.c:2166:genCall
                      00672 ;; ***  popRegFromIdx,1059  , rIdx=0x7e
001F   00??           00673         MOVWF   STK01
                      00674 ;;; /home/sdcc-builder/build/sdcc-build/orig/sdcc/src/pic14/gen.c:1357:mov2w_op *{*
                      00675 ;; >>> /home/sdcc-builder/build/sdcc-build/orig/sdcc/src/pic14/gen.c:1375:mov2w_op
0020   3007           00676         MOVLW   0x07
                      00677 ;;      2158 left AOP_LIT
                      00678 ;; >>> /home/sdcc-builder/build/sdcc-build/orig/sdcc/src/pic14/gen.c:2166:genCall
                      00679 ;; ***  popRegFromIdx,1059  , rIdx=0x7f
gpasm-1.5.0 #1285 (Sep 12 2016) obj\Debug\ssd   8-8-2021  22:26:04          PAGE 14


LOC    OBJECT CODE    LINE  SOURCE TEXT
  VALUE

0021   00??           00680         MOVWF   STK00
                      00681 ;;; /home/sdcc-builder/build/sdcc-build/orig/sdcc/src/pic14/gen.c:1357:mov2w_op *{*
                      00682 ;; >>> /home/sdcc-builder/build/sdcc-build/orig/sdcc/src/pic14/gen.c:1375:mov2w_op
0022   3001           00683         MOVLW   0x01
                      00684 ;; >>> /home/sdcc-builder/build/sdcc-build/orig/sdcc/src/pic14/gen.c:2207:genCall
0023   0??? 0???      00685         PAGESEL _GPIO_SetPinState
                      00686 ;; >>> /home/sdcc-builder/build/sdcc-build/orig/sdcc/src/pic14/gen.c:2215:genCall
0025   2???           00687         CALL    _GPIO_SetPinState
                      00688 ;; >>> /home/sdcc-builder/build/sdcc-build/orig/sdcc/src/pic14/gen.c:2223:genCall
0026   0??? 0???      00689         PAGESEL $
                      00690 ;;; /home/sdcc-builder/build/sdcc-build/orig/sdcc/src/pic14/gen.c:2358:resultRemat *{*
                      00691 ;;; /home/sdcc-builder/build/sdcc-build/orig/sdcc/src/pic14/gen.c:2802:genLabel *{*
                      00692 ;; ***  genLabel  2805
                      00693 ;;; /home/sdcc-builder/build/sdcc-build/orig/sdcc/src/pic14/gen.c:2358:resultRemat *{*
                      00694 ;;; /home/sdcc-builder/build/sdcc-build/orig/sdcc/src/pic14/gen.c:2570:genEndFunction *{*
                      00695 ;; ***  genEndFunction  2572
                      00696         .line   122; "ssd.c"    }
0028   0008           00697         RETURN  
                      00698 ; exit point of _SSD_TurnAllOff
                      00699 ;;; /home/sdcc-builder/build/sdcc-build/orig/sdcc/src/pic14/gen.c:7710:genpic14Code *{*
                      00700 
                      00701 ;***
                      00702 ;  pBlock Stats: dbName = C
                      00703 ;***
                      00704 ;has an exit
                      00705 ;functions called:
                      00706 ;   _GPIO_SetPortDirection
                      00707 ;   _GPIO_SetPinDirection
                      00708 ;   _GPIO_SetPinDirection
                      00709 ;   _GPIO_SetPinDirection
                      00710 ;   _GPIO_SetPinDirection
                      00711 ;   _GPIO_SetPortDirection
                      00712 ;   _GPIO_SetPinDirection
                      00713 ;   _GPIO_SetPinDirection
                      00714 ;   _GPIO_SetPinDirection
                      00715 ;   _GPIO_SetPinDirection
                      00716 ;3 compiler assigned registers:
                      00717 ;   r0x1017
                      00718 ;   STK00
                      00719 ;   STK01
                      00720 ;; Starting pCode block
                      00721 ;;; /home/sdcc-builder/build/sdcc-build/orig/sdcc/src/pic14/gen.c:2358:resultRemat *{*
                      00722 ;;; /home/sdcc-builder/build/sdcc-build/orig/sdcc/src/pic14/gen.c:2802:genLabel *{*
                      00723 ;; ***  genLabel  2805
                      00724 ;;; /home/sdcc-builder/build/sdcc-build/orig/sdcc/src/pic14/gen.c:2358:resultRemat *{*
                      00725 ;;; /home/sdcc-builder/build/sdcc-build/orig/sdcc/src/pic14/gen.c:2382:genFunction *{*
                      00726 ;; ***  genFunction  2384 curr label offset=43previous max_key=0 
                      00727 S_ssd__SSD_SetPinsAsOutput      code
0000                  00728 _SSD_SetPinsAsOutput:
                      00729 ; 2 exit points
                      00730 ;;; /home/sdcc-builder/build/sdcc-build/orig/sdcc/src/pic14/gen.c:2358:resultRemat *{*
                      00731 ;;; /home/sdcc-builder/build/sdcc-build/orig/sdcc/src/pic14/gen.c:7642:genReceive *{*
                      00732 ;; ***  genReceive  7643
gpasm-1.5.0 #1285 (Sep 12 2016) obj\Debug\ssd   8-8-2021  22:26:04          PAGE 15


LOC    OBJECT CODE    LINE  SOURCE TEXT
  VALUE

                      00733 ;;      708 register type nRegs=1
                      00734 ;;; /home/sdcc-builder/build/sdcc-build/orig/sdcc/src/pic14/gen.c:1929:assignResultValue *{*
                      00735 ;; ***  assignResultValue  1931
                      00736 ;;      line = 1933 result -=-, size=0, left AOP_REG=r0x105A, size=1, right -=-, size=0
                      00737 ;; >>> /home/sdcc-builder/build/sdcc-build/orig/sdcc/src/pic14/gen.c:1407:movwf
                      00738 ;;      1126 rIdx = r0x105A 
                      00739         .line   95; "ssd.c"     void static SSD_SetPinsAsOutput(tSSD ssd)
0000   0??? 0???      00740         BANKSEL r0x1017
0002   00??           00741         MOVWF   r0x1017
                      00742 ;;; /home/sdcc-builder/build/sdcc-build/orig/sdcc/src/pic14/gen.c:2358:resultRemat *{*
                      00743 ;;; /home/sdcc-builder/build/sdcc-build/orig/sdcc/src/pic14/gen.c:2358:resultRemat *{*
                      00744 ;;; /home/sdcc-builder/build/sdcc-build/orig/sdcc/src/pic14/gen.c:2358:resultRemat *{*
                      00745 ;;; /home/sdcc-builder/build/sdcc-build/orig/sdcc/src/pic14/gen.c:2108:genCall *{*
                      00746 ;; ***  genCall  2110
                      00747 ;;      2158 left AOP_LIT
                      00748 ;;; /home/sdcc-builder/build/sdcc-build/orig/sdcc/src/pic14/gen.c:1357:mov2w_op *{*
                      00749 ;; >>> /home/sdcc-builder/build/sdcc-build/orig/sdcc/src/pic14/gen.c:1375:mov2w_op
                      00750         .line   98; "ssd.c"     GPIO_SetPortDirection(PORT_D,PORT_OUTPUT) ;
0003   3000           00751         MOVLW   0x00
                      00752 ;;      2158 left AOP_LIT
                      00753 ;; >>> /home/sdcc-builder/build/sdcc-build/orig/sdcc/src/pic14/gen.c:2166:genCall
                      00754 ;; ***  popRegFromIdx,1059  , rIdx=0x7f
0004   00??           00755         MOVWF   STK00
                      00756 ;;; /home/sdcc-builder/build/sdcc-build/orig/sdcc/src/pic14/gen.c:1357:mov2w_op *{*
                      00757 ;; >>> /home/sdcc-builder/build/sdcc-build/orig/sdcc/src/pic14/gen.c:1375:mov2w_op
0005   3003           00758         MOVLW   0x03
                      00759 ;; >>> /home/sdcc-builder/build/sdcc-build/orig/sdcc/src/pic14/gen.c:2207:genCall
0006   0??? 0???      00760         PAGESEL _GPIO_SetPortDirection
                      00761 ;; >>> /home/sdcc-builder/build/sdcc-build/orig/sdcc/src/pic14/gen.c:2215:genCall
0008   2???           00762         CALL    _GPIO_SetPortDirection
                      00763 ;; >>> /home/sdcc-builder/build/sdcc-build/orig/sdcc/src/pic14/gen.c:2223:genCall
0009   0??? 0???      00764         PAGESEL $
                      00765 ;;; /home/sdcc-builder/build/sdcc-build/orig/sdcc/src/pic14/gen.c:2358:resultRemat *{*
                      00766 ;;; /home/sdcc-builder/build/sdcc-build/orig/sdcc/src/pic14/gen.c:3616:genCmpGt *{*
                      00767 ;; ***  genCmpGt  3617
                      00768 ;;      708 register type nRegs=1
                      00769 ;;; /home/sdcc-builder/build/sdcc-build/orig/sdcc/src/pic14/gen.c:3354:genCmp *{*
                      00770 ;;swapping arguments (AOP_TYPEs 1/2)
                      00771 ;;unsigned compare: left >= lit(0x4=4), size=1
                      00772 ;; >>> /home/sdcc-builder/build/sdcc-build/orig/sdcc/src/pic14/gen.c:3325:pic14_mov2w_regOrLit
                      00773         .line   100; "ssd.c"    switch(ssd)
000B   3004           00774         MOVLW   0x04
                      00775 ;; >>> /home/sdcc-builder/build/sdcc-build/orig/sdcc/src/pic14/gen.c:3492:genCmp
                      00776 ;;      1126 rIdx = r0x105A 
000C   0??? 0???      00777         BANKSEL r0x1017
000E   02??           00778         SUBWF   r0x1017,W
                      00779 ;;; /home/sdcc-builder/build/sdcc-build/orig/sdcc/src/pic14/gen.c:3297:genSkipc *{*
                      00780 ;; >>> /home/sdcc-builder/build/sdcc-build/orig/sdcc/src/pic14/gen.c:3302:genSkipc
000F   1803           00781         BTFSC   STATUS,0
                      00782 ;; >>> /home/sdcc-builder/build/sdcc-build/orig/sdcc/src/pic14/gen.c:3306:genSkipc
                      00783 ;; ***  popGetLabel  key=6, label offset 47
0010   2???           00784         GOTO    _00153_DS_
                      00785 ;;genSkipc:3307: created from rifx:0000000000BC9340
gpasm-1.5.0 #1285 (Sep 12 2016) obj\Debug\ssd   8-8-2021  22:26:04          PAGE 16


LOC    OBJECT CODE    LINE  SOURCE TEXT
  VALUE

                      00786 ;;; /home/sdcc-builder/build/sdcc-build/orig/sdcc/src/pic14/gen.c:2358:resultRemat *{*
                      00787 ;;; /home/sdcc-builder/build/sdcc-build/orig/sdcc/src/pic14/gen.c:2358:resultRemat *{*
                      00788 ;;; /home/sdcc-builder/build/sdcc-build/orig/sdcc/src/pic14/gen.c:7337:genJumpTab *{*
                      00789 ;; ***  genJumpTab  7338
                      00790 ;;      708 register type nRegs=1
                      00791 ;; >>> /home/sdcc-builder/build/sdcc-build/orig/sdcc/src/pic14/gen.c:7353:genJumpTab
                      00792 ;; ***  popGetLabel  key=13, label offset 47
0011   30??           00793         MOVLW   HIGH(_00160_DS_)
                      00794 ;; >>> /home/sdcc-builder/build/sdcc-build/orig/sdcc/src/pic14/gen.c:7354:genJumpTab
0012   1283 1303      00795         BANKSEL PCLATH
0014   008A           00796         MOVWF   PCLATH
                      00797 ;; >>> /home/sdcc-builder/build/sdcc-build/orig/sdcc/src/pic14/gen.c:7355:genJumpTab
                      00798 ;; ***  popGetLabel  key=13, label offset 47
0015   30??           00799         MOVLW   _00160_DS_
                      00800 ;; >>> /home/sdcc-builder/build/sdcc-build/orig/sdcc/src/pic14/gen.c:7356:genJumpTab
                      00801 ;;      1126 rIdx = r0x105A 
0016   0??? 0???      00802         BANKSEL r0x1017
0018   07??           00803         ADDWF   r0x1017,W
                      00804 ;; >>> /home/sdcc-builder/build/sdcc-build/orig/sdcc/src/pic14/gen.c:7357:genJumpTab
0019   1C03           00805         BTFSS   STATUS,0
001A   2???           00806         GOTO    _00002_DS_
                      00807 ;; >>> /home/sdcc-builder/build/sdcc-build/orig/sdcc/src/pic14/gen.c:7358:genJumpTab
001B   1283 1303      00808         BANKSEL PCLATH
001D   0A8A           00809         INCF    PCLATH,F
                      00810 ;; >>> /home/sdcc-builder/build/sdcc-build/orig/sdcc/src/pic14/gen.c:7359:genJumpTab
001E                  00811 _00002_DS_:
001E   0082           00812         MOVWF   PCL
                      00813 ;; >>> /home/sdcc-builder/build/sdcc-build/orig/sdcc/src/pic14/gen.c:7368:genJumpTab
                      00814 ;; ***  popGetLabel  key=1, label offset 47
001F                  00815 _00160_DS_:
001F   2???           00816         GOTO    _00148_DS_
                      00817 ;; >>> /home/sdcc-builder/build/sdcc-build/orig/sdcc/src/pic14/gen.c:7368:genJumpTab
                      00818 ;; ***  popGetLabel  key=2, label offset 47
0020   2???           00819         GOTO    _00149_DS_
                      00820 ;; >>> /home/sdcc-builder/build/sdcc-build/orig/sdcc/src/pic14/gen.c:7368:genJumpTab
                      00821 ;; ***  popGetLabel  key=3, label offset 47
0021   2???           00822         GOTO    _00150_DS_
                      00823 ;; >>> /home/sdcc-builder/build/sdcc-build/orig/sdcc/src/pic14/gen.c:7368:genJumpTab
                      00824 ;; ***  popGetLabel  key=4, label offset 47
0022   2???           00825         GOTO    _00151_DS_
                      00826 ;;; /home/sdcc-builder/build/sdcc-build/orig/sdcc/src/pic14/gen.c:2358:resultRemat *{*
                      00827 ;;; /home/sdcc-builder/build/sdcc-build/orig/sdcc/src/pic14/gen.c:2802:genLabel *{*
                      00828 ;; ***  genLabel  2805
                      00829 ;;; /home/sdcc-builder/build/sdcc-build/orig/sdcc/src/pic14/gen.c:2358:resultRemat *{*
                      00830 ;;; /home/sdcc-builder/build/sdcc-build/orig/sdcc/src/pic14/gen.c:2358:resultRemat *{*
                      00831 ;;; /home/sdcc-builder/build/sdcc-build/orig/sdcc/src/pic14/gen.c:2358:resultRemat *{*
                      00832 ;;; /home/sdcc-builder/build/sdcc-build/orig/sdcc/src/pic14/gen.c:2358:resultRemat *{*
                      00833 ;;; /home/sdcc-builder/build/sdcc-build/orig/sdcc/src/pic14/gen.c:2108:genCall *{*
                      00834 ;; ***  genCall  2110
                      00835 ;;      2158 left AOP_LIT
                      00836 ;;; /home/sdcc-builder/build/sdcc-build/orig/sdcc/src/pic14/gen.c:1357:mov2w_op *{*
                      00837 ;; >>> /home/sdcc-builder/build/sdcc-build/orig/sdcc/src/pic14/gen.c:1375:mov2w_op
0023                  00838 _00148_DS_:
gpasm-1.5.0 #1285 (Sep 12 2016) obj\Debug\ssd   8-8-2021  22:26:04          PAGE 17


LOC    OBJECT CODE    LINE  SOURCE TEXT
  VALUE

                      00839         .line   103; "ssd.c"    GPIO_SetPinDirection(PORT_B, PIN_4 ,PIN_OUTPUT) ;
0023   3000           00840         MOVLW   0x00
                      00841 ;;      2158 left AOP_LIT
                      00842 ;; >>> /home/sdcc-builder/build/sdcc-build/orig/sdcc/src/pic14/gen.c:2166:genCall
                      00843 ;; ***  popRegFromIdx,1059  , rIdx=0x7e
0024   00??           00844         MOVWF   STK01
                      00845 ;;; /home/sdcc-builder/build/sdcc-build/orig/sdcc/src/pic14/gen.c:1357:mov2w_op *{*
                      00846 ;; >>> /home/sdcc-builder/build/sdcc-build/orig/sdcc/src/pic14/gen.c:1375:mov2w_op
0025   3004           00847         MOVLW   0x04
                      00848 ;;      2158 left AOP_LIT
                      00849 ;; >>> /home/sdcc-builder/build/sdcc-build/orig/sdcc/src/pic14/gen.c:2166:genCall
                      00850 ;; ***  popRegFromIdx,1059  , rIdx=0x7f
0026   00??           00851         MOVWF   STK00
                      00852 ;;; /home/sdcc-builder/build/sdcc-build/orig/sdcc/src/pic14/gen.c:1357:mov2w_op *{*
                      00853 ;; >>> /home/sdcc-builder/build/sdcc-build/orig/sdcc/src/pic14/gen.c:1375:mov2w_op
0027   3001           00854         MOVLW   0x01
                      00855 ;; >>> /home/sdcc-builder/build/sdcc-build/orig/sdcc/src/pic14/gen.c:2207:genCall
0028   0??? 0???      00856         PAGESEL _GPIO_SetPinDirection
                      00857 ;; >>> /home/sdcc-builder/build/sdcc-build/orig/sdcc/src/pic14/gen.c:2215:genCall
002A   2???           00858         CALL    _GPIO_SetPinDirection
                      00859 ;; >>> /home/sdcc-builder/build/sdcc-build/orig/sdcc/src/pic14/gen.c:2223:genCall
002B   0??? 0???      00860         PAGESEL $
                      00861 ;;; /home/sdcc-builder/build/sdcc-build/orig/sdcc/src/pic14/gen.c:2358:resultRemat *{*
                      00862 ;;; /home/sdcc-builder/build/sdcc-build/orig/sdcc/src/pic14/gen.c:2820:genGoto *{*
                      00863 ;; >>> /home/sdcc-builder/build/sdcc-build/orig/sdcc/src/pic14/gen.c:2822:genGoto
                      00864 ;; ***  popGetLabel  key=6, label offset 47
                      00865         .line   104; "ssd.c"    break ;
002D   2???           00866         GOTO    _00153_DS_
                      00867 ;;; /home/sdcc-builder/build/sdcc-build/orig/sdcc/src/pic14/gen.c:2358:resultRemat *{*
                      00868 ;;; /home/sdcc-builder/build/sdcc-build/orig/sdcc/src/pic14/gen.c:2802:genLabel *{*
                      00869 ;; ***  genLabel  2805
                      00870 ;;; /home/sdcc-builder/build/sdcc-build/orig/sdcc/src/pic14/gen.c:2358:resultRemat *{*
                      00871 ;;; /home/sdcc-builder/build/sdcc-build/orig/sdcc/src/pic14/gen.c:2358:resultRemat *{*
                      00872 ;;; /home/sdcc-builder/build/sdcc-build/orig/sdcc/src/pic14/gen.c:2358:resultRemat *{*
                      00873 ;;; /home/sdcc-builder/build/sdcc-build/orig/sdcc/src/pic14/gen.c:2358:resultRemat *{*
                      00874 ;;; /home/sdcc-builder/build/sdcc-build/orig/sdcc/src/pic14/gen.c:2108:genCall *{*
                      00875 ;; ***  genCall  2110
                      00876 ;;      2158 left AOP_LIT
                      00877 ;;; /home/sdcc-builder/build/sdcc-build/orig/sdcc/src/pic14/gen.c:1357:mov2w_op *{*
                      00878 ;; >>> /home/sdcc-builder/build/sdcc-build/orig/sdcc/src/pic14/gen.c:1375:mov2w_op
002E                  00879 _00149_DS_:
                      00880         .line   106; "ssd.c"    GPIO_SetPinDirection(PORT_B, PIN_5 ,PIN_OUTPUT) ;
002E   3000           00881         MOVLW   0x00
                      00882 ;;      2158 left AOP_LIT
                      00883 ;; >>> /home/sdcc-builder/build/sdcc-build/orig/sdcc/src/pic14/gen.c:2166:genCall
                      00884 ;; ***  popRegFromIdx,1059  , rIdx=0x7e
002F   00??           00885         MOVWF   STK01
                      00886 ;;; /home/sdcc-builder/build/sdcc-build/orig/sdcc/src/pic14/gen.c:1357:mov2w_op *{*
                      00887 ;; >>> /home/sdcc-builder/build/sdcc-build/orig/sdcc/src/pic14/gen.c:1375:mov2w_op
0030   3005           00888         MOVLW   0x05
                      00889 ;;      2158 left AOP_LIT
                      00890 ;; >>> /home/sdcc-builder/build/sdcc-build/orig/sdcc/src/pic14/gen.c:2166:genCall
                      00891 ;; ***  popRegFromIdx,1059  , rIdx=0x7f
gpasm-1.5.0 #1285 (Sep 12 2016) obj\Debug\ssd   8-8-2021  22:26:04          PAGE 18


LOC    OBJECT CODE    LINE  SOURCE TEXT
  VALUE

0031   00??           00892         MOVWF   STK00
                      00893 ;;; /home/sdcc-builder/build/sdcc-build/orig/sdcc/src/pic14/gen.c:1357:mov2w_op *{*
                      00894 ;; >>> /home/sdcc-builder/build/sdcc-build/orig/sdcc/src/pic14/gen.c:1375:mov2w_op
0032   3001           00895         MOVLW   0x01
                      00896 ;; >>> /home/sdcc-builder/build/sdcc-build/orig/sdcc/src/pic14/gen.c:2207:genCall
0033   0??? 0???      00897         PAGESEL _GPIO_SetPinDirection
                      00898 ;; >>> /home/sdcc-builder/build/sdcc-build/orig/sdcc/src/pic14/gen.c:2215:genCall
0035   2???           00899         CALL    _GPIO_SetPinDirection
                      00900 ;; >>> /home/sdcc-builder/build/sdcc-build/orig/sdcc/src/pic14/gen.c:2223:genCall
0036   0??? 0???      00901         PAGESEL $
                      00902 ;;; /home/sdcc-builder/build/sdcc-build/orig/sdcc/src/pic14/gen.c:2358:resultRemat *{*
                      00903 ;;; /home/sdcc-builder/build/sdcc-build/orig/sdcc/src/pic14/gen.c:2820:genGoto *{*
                      00904 ;; >>> /home/sdcc-builder/build/sdcc-build/orig/sdcc/src/pic14/gen.c:2822:genGoto
                      00905 ;; ***  popGetLabel  key=6, label offset 47
                      00906         .line   107; "ssd.c"    break ;
0038   2???           00907         GOTO    _00153_DS_
                      00908 ;;; /home/sdcc-builder/build/sdcc-build/orig/sdcc/src/pic14/gen.c:2358:resultRemat *{*
                      00909 ;;; /home/sdcc-builder/build/sdcc-build/orig/sdcc/src/pic14/gen.c:2802:genLabel *{*
                      00910 ;; ***  genLabel  2805
                      00911 ;;; /home/sdcc-builder/build/sdcc-build/orig/sdcc/src/pic14/gen.c:2358:resultRemat *{*
                      00912 ;;; /home/sdcc-builder/build/sdcc-build/orig/sdcc/src/pic14/gen.c:2358:resultRemat *{*
                      00913 ;;; /home/sdcc-builder/build/sdcc-build/orig/sdcc/src/pic14/gen.c:2358:resultRemat *{*
                      00914 ;;; /home/sdcc-builder/build/sdcc-build/orig/sdcc/src/pic14/gen.c:2358:resultRemat *{*
                      00915 ;;; /home/sdcc-builder/build/sdcc-build/orig/sdcc/src/pic14/gen.c:2108:genCall *{*
                      00916 ;; ***  genCall  2110
                      00917 ;;      2158 left AOP_LIT
                      00918 ;;; /home/sdcc-builder/build/sdcc-build/orig/sdcc/src/pic14/gen.c:1357:mov2w_op *{*
                      00919 ;; >>> /home/sdcc-builder/build/sdcc-build/orig/sdcc/src/pic14/gen.c:1375:mov2w_op
0039                  00920 _00150_DS_:
                      00921         .line   109; "ssd.c"    GPIO_SetPinDirection(PORT_B, PIN_6 ,PIN_OUTPUT) ;
0039   3000           00922         MOVLW   0x00
                      00923 ;;      2158 left AOP_LIT
                      00924 ;; >>> /home/sdcc-builder/build/sdcc-build/orig/sdcc/src/pic14/gen.c:2166:genCall
                      00925 ;; ***  popRegFromIdx,1059  , rIdx=0x7e
003A   00??           00926         MOVWF   STK01
                      00927 ;;; /home/sdcc-builder/build/sdcc-build/orig/sdcc/src/pic14/gen.c:1357:mov2w_op *{*
                      00928 ;; >>> /home/sdcc-builder/build/sdcc-build/orig/sdcc/src/pic14/gen.c:1375:mov2w_op
003B   3006           00929         MOVLW   0x06
                      00930 ;;      2158 left AOP_LIT
                      00931 ;; >>> /home/sdcc-builder/build/sdcc-build/orig/sdcc/src/pic14/gen.c:2166:genCall
                      00932 ;; ***  popRegFromIdx,1059  , rIdx=0x7f
003C   00??           00933         MOVWF   STK00
                      00934 ;;; /home/sdcc-builder/build/sdcc-build/orig/sdcc/src/pic14/gen.c:1357:mov2w_op *{*
                      00935 ;; >>> /home/sdcc-builder/build/sdcc-build/orig/sdcc/src/pic14/gen.c:1375:mov2w_op
003D   3001           00936         MOVLW   0x01
                      00937 ;; >>> /home/sdcc-builder/build/sdcc-build/orig/sdcc/src/pic14/gen.c:2207:genCall
003E   0??? 0???      00938         PAGESEL _GPIO_SetPinDirection
                      00939 ;; >>> /home/sdcc-builder/build/sdcc-build/orig/sdcc/src/pic14/gen.c:2215:genCall
0040   2???           00940         CALL    _GPIO_SetPinDirection
                      00941 ;; >>> /home/sdcc-builder/build/sdcc-build/orig/sdcc/src/pic14/gen.c:2223:genCall
0041   0??? 0???      00942         PAGESEL $
                      00943 ;;; /home/sdcc-builder/build/sdcc-build/orig/sdcc/src/pic14/gen.c:2358:resultRemat *{*
                      00944 ;;; /home/sdcc-builder/build/sdcc-build/orig/sdcc/src/pic14/gen.c:2820:genGoto *{*
gpasm-1.5.0 #1285 (Sep 12 2016) obj\Debug\ssd   8-8-2021  22:26:04          PAGE 19


LOC    OBJECT CODE    LINE  SOURCE TEXT
  VALUE

                      00945 ;; >>> /home/sdcc-builder/build/sdcc-build/orig/sdcc/src/pic14/gen.c:2822:genGoto
                      00946 ;; ***  popGetLabel  key=6, label offset 47
                      00947         .line   110; "ssd.c"    break ;
0043   2???           00948         GOTO    _00153_DS_
                      00949 ;;; /home/sdcc-builder/build/sdcc-build/orig/sdcc/src/pic14/gen.c:2358:resultRemat *{*
                      00950 ;;; /home/sdcc-builder/build/sdcc-build/orig/sdcc/src/pic14/gen.c:2802:genLabel *{*
                      00951 ;; ***  genLabel  2805
                      00952 ;;; /home/sdcc-builder/build/sdcc-build/orig/sdcc/src/pic14/gen.c:2358:resultRemat *{*
                      00953 ;;; /home/sdcc-builder/build/sdcc-build/orig/sdcc/src/pic14/gen.c:2358:resultRemat *{*
                      00954 ;;; /home/sdcc-builder/build/sdcc-build/orig/sdcc/src/pic14/gen.c:2358:resultRemat *{*
                      00955 ;;; /home/sdcc-builder/build/sdcc-build/orig/sdcc/src/pic14/gen.c:2358:resultRemat *{*
                      00956 ;;; /home/sdcc-builder/build/sdcc-build/orig/sdcc/src/pic14/gen.c:2108:genCall *{*
                      00957 ;; ***  genCall  2110
                      00958 ;;      2158 left AOP_LIT
                      00959 ;;; /home/sdcc-builder/build/sdcc-build/orig/sdcc/src/pic14/gen.c:1357:mov2w_op *{*
                      00960 ;; >>> /home/sdcc-builder/build/sdcc-build/orig/sdcc/src/pic14/gen.c:1375:mov2w_op
0044                  00961 _00151_DS_:
                      00962         .line   112; "ssd.c"    GPIO_SetPinDirection(PORT_B, PIN_7 ,PIN_OUTPUT) ;
0044   3000           00963         MOVLW   0x00
                      00964 ;;      2158 left AOP_LIT
                      00965 ;; >>> /home/sdcc-builder/build/sdcc-build/orig/sdcc/src/pic14/gen.c:2166:genCall
                      00966 ;; ***  popRegFromIdx,1059  , rIdx=0x7e
0045   00??           00967         MOVWF   STK01
                      00968 ;;; /home/sdcc-builder/build/sdcc-build/orig/sdcc/src/pic14/gen.c:1357:mov2w_op *{*
                      00969 ;; >>> /home/sdcc-builder/build/sdcc-build/orig/sdcc/src/pic14/gen.c:1375:mov2w_op
0046   3007           00970         MOVLW   0x07
                      00971 ;;      2158 left AOP_LIT
                      00972 ;; >>> /home/sdcc-builder/build/sdcc-build/orig/sdcc/src/pic14/gen.c:2166:genCall
                      00973 ;; ***  popRegFromIdx,1059  , rIdx=0x7f
0047   00??           00974         MOVWF   STK00
                      00975 ;;; /home/sdcc-builder/build/sdcc-build/orig/sdcc/src/pic14/gen.c:1357:mov2w_op *{*
                      00976 ;; >>> /home/sdcc-builder/build/sdcc-build/orig/sdcc/src/pic14/gen.c:1375:mov2w_op
0048   3001           00977         MOVLW   0x01
                      00978 ;; >>> /home/sdcc-builder/build/sdcc-build/orig/sdcc/src/pic14/gen.c:2207:genCall
0049   0??? 0???      00979         PAGESEL _GPIO_SetPinDirection
                      00980 ;; >>> /home/sdcc-builder/build/sdcc-build/orig/sdcc/src/pic14/gen.c:2215:genCall
004B   2???           00981         CALL    _GPIO_SetPinDirection
                      00982 ;; >>> /home/sdcc-builder/build/sdcc-build/orig/sdcc/src/pic14/gen.c:2223:genCall
004C   0??? 0???      00983         PAGESEL $
                      00984 ;;; /home/sdcc-builder/build/sdcc-build/orig/sdcc/src/pic14/gen.c:2358:resultRemat *{*
                      00985 ;;; /home/sdcc-builder/build/sdcc-build/orig/sdcc/src/pic14/gen.c:2802:genLabel *{*
                      00986 ;; ***  genLabel  2805
                      00987 ;;; /home/sdcc-builder/build/sdcc-build/orig/sdcc/src/pic14/gen.c:2358:resultRemat *{*
                      00988 ;;; /home/sdcc-builder/build/sdcc-build/orig/sdcc/src/pic14/gen.c:2570:genEndFunction *{*
                      00989 ;; ***  genEndFunction  2572
004E                  00990 _00153_DS_:
                      00991         .line   115; "ssd.c"    }
004E   0008           00992         RETURN  
                      00993 ; exit point of _SSD_SetPinsAsOutput
                      00994 ;;; /home/sdcc-builder/build/sdcc-build/orig/sdcc/src/pic14/gen.c:7710:genpic14Code *{*
                      00995 
                      00996 ;***
                      00997 ;  pBlock Stats: dbName = C
gpasm-1.5.0 #1285 (Sep 12 2016) obj\Debug\ssd   8-8-2021  22:26:04          PAGE 20


LOC    OBJECT CODE    LINE  SOURCE TEXT
  VALUE

                      00998 ;***
                      00999 ;has an exit
                      01000 ;functions called:
                      01001 ;   __muluchar
                      01002 ;   __muluchar
                      01003 ;4 compiler assigned registers:
                      01004 ;   r0x1018
                      01005 ;   STK00
                      01006 ;   r0x1019
                      01007 ;   r0x101A
                      01008 ;; Starting pCode block
                      01009 ;;; /home/sdcc-builder/build/sdcc-build/orig/sdcc/src/pic14/gen.c:2358:resultRemat *{*
                      01010 ;;; /home/sdcc-builder/build/sdcc-build/orig/sdcc/src/pic14/gen.c:2802:genLabel *{*
                      01011 ;; ***  genLabel  2805
                      01012 ;;; /home/sdcc-builder/build/sdcc-build/orig/sdcc/src/pic14/gen.c:2358:resultRemat *{*
                      01013 ;;; /home/sdcc-builder/build/sdcc-build/orig/sdcc/src/pic14/gen.c:2382:genFunction *{*
                      01014 ;; ***  genFunction  2384 curr label offset=39previous max_key=0 
                      01015 S_ssd__SSD_SetStateData code
0000                  01016 _SSD_SetStateData:
                      01017 ; 2 exit points
                      01018 ;;; /home/sdcc-builder/build/sdcc-build/orig/sdcc/src/pic14/gen.c:2358:resultRemat *{*
                      01019 ;;; /home/sdcc-builder/build/sdcc-build/orig/sdcc/src/pic14/gen.c:7642:genReceive *{*
                      01020 ;; ***  genReceive  7643
                      01021 ;;      708 register type nRegs=1
                      01022 ;;; /home/sdcc-builder/build/sdcc-build/orig/sdcc/src/pic14/gen.c:1929:assignResultValue *{*
                      01023 ;; ***  assignResultValue  1931
                      01024 ;;      line = 1933 result -=-, size=0, left AOP_REG=r0x1057, size=1, right -=-, size=0
                      01025 ;; >>> /home/sdcc-builder/build/sdcc-build/orig/sdcc/src/pic14/gen.c:1407:movwf
                      01026 ;;      1126 rIdx = r0x1057 
                      01027         .line   91; "ssd.c"     void SSD_SetStateData(tSSD ssd ,tSSD_State state)
0000   0??? 0???      01028         BANKSEL r0x1018
0002   00??           01029         MOVWF   r0x1018
                      01030 ;;; /home/sdcc-builder/build/sdcc-build/orig/sdcc/src/pic14/gen.c:2358:resultRemat *{*
                      01031 ;;; /home/sdcc-builder/build/sdcc-build/orig/sdcc/src/pic14/gen.c:7642:genReceive *{*
                      01032 ;; ***  genReceive  7643
                      01033 ;;      708 register type nRegs=1
                      01034 ;;; /home/sdcc-builder/build/sdcc-build/orig/sdcc/src/pic14/gen.c:1929:assignResultValue *{*
                      01035 ;; ***  assignResultValue  1931
                      01036 ;;      line = 1933 result -=-, size=0, left AOP_REG=r0x1058, size=1, right -=-, size=0
                      01037 ;; >>> /home/sdcc-builder/build/sdcc-build/orig/sdcc/src/pic14/gen.c:1437:get_returnvalue
                      01038 ;; ***  popRegFromIdx,1059  , rIdx=0x7f
0003   08??           01039         MOVF    STK00,W
                      01040 ;; >>> /home/sdcc-builder/build/sdcc-build/orig/sdcc/src/pic14/gen.c:1407:movwf
                      01041 ;;      1126 rIdx = r0x1058 
0004   00??           01042         MOVWF   r0x1019
                      01043 ;;; /home/sdcc-builder/build/sdcc-build/orig/sdcc/src/pic14/gen.c:2358:resultRemat *{*
                      01044 ;;; /home/sdcc-builder/build/sdcc-build/orig/sdcc/src/pic14/gen.c:2358:resultRemat *{*
                      01045 ;;; /home/sdcc-builder/build/sdcc-build/orig/sdcc/src/pic14/gen.c:2358:resultRemat *{*
                      01046 ;;; /home/sdcc-builder/build/sdcc-build/orig/sdcc/src/pic14/gen.c:2358:resultRemat *{*
                      01047 ;;; /home/sdcc-builder/build/sdcc-build/orig/sdcc/src/pic14/gen.c:2108:genCall *{*
                      01048 ;; ***  genCall  2110
                      01049 ;;      708 register type nRegs=1
                      01050 ;;      2158 left AOP_LIT
gpasm-1.5.0 #1285 (Sep 12 2016) obj\Debug\ssd   8-8-2021  22:26:04          PAGE 21


LOC    OBJECT CODE    LINE  SOURCE TEXT
  VALUE

                      01051 ;;; /home/sdcc-builder/build/sdcc-build/orig/sdcc/src/pic14/gen.c:1357:mov2w_op *{*
                      01052 ;; >>> /home/sdcc-builder/build/sdcc-build/orig/sdcc/src/pic14/gen.c:1375:mov2w_op
                      01053         .line   93; "ssd.c"     ssd_info[ssd].ssd_state = state ;
0005   3002           01054         MOVLW   0x02
                      01055 ;;      708 register type nRegs=1
                      01056 ;;      2158 left AOP_REG
                      01057 ;; >>> /home/sdcc-builder/build/sdcc-build/orig/sdcc/src/pic14/gen.c:2166:genCall
                      01058 ;; ***  popRegFromIdx,1059  , rIdx=0x7f
0006   00??           01059         MOVWF   STK00
                      01060 ;;; /home/sdcc-builder/build/sdcc-build/orig/sdcc/src/pic14/gen.c:1357:mov2w_op *{*
                      01061 ;; ***  mov2w  1395  offset=0
                      01062 ;; >>> /home/sdcc-builder/build/sdcc-build/orig/sdcc/src/pic14/gen.c:1400:mov2w
                      01063 ;;      1126 rIdx = r0x1057 
0007   08??           01064         MOVF    r0x1018,W
                      01065 ;; >>> /home/sdcc-builder/build/sdcc-build/orig/sdcc/src/pic14/gen.c:2207:genCall
0008   0??? 0???      01066         PAGESEL __muluchar
                      01067 ;; >>> /home/sdcc-builder/build/sdcc-build/orig/sdcc/src/pic14/gen.c:2215:genCall
000A   2???           01068         CALL    __muluchar
                      01069 ;; >>> /home/sdcc-builder/build/sdcc-build/orig/sdcc/src/pic14/gen.c:2223:genCall
000B   0??? 0???      01070         PAGESEL $
                      01071 ;;      708 register type nRegs=2
                      01072 ;;; /home/sdcc-builder/build/sdcc-build/orig/sdcc/src/pic14/gen.c:1929:assignResultValue *{*
                      01073 ;; ***  assignResultValue  1931
                      01074 ;;      line = 1933 result -=-, size=0, left AOP_REG=r0x1057, size=2, right -=-, size=0
                      01075 ;; >>> /home/sdcc-builder/build/sdcc-build/orig/sdcc/src/pic14/gen.c:1407:movwf
                      01076 ;;      1126 rIdx = r0x1059 
000D   0??? 0???      01077         BANKSEL r0x101A
000F   00??           01078         MOVWF   r0x101A
                      01079 ;; >>> /home/sdcc-builder/build/sdcc-build/orig/sdcc/src/pic14/gen.c:1437:get_returnvalue
                      01080 ;; ***  popRegFromIdx,1059  , rIdx=0x7f
0010   08??           01081         MOVF    STK00,W
                      01082 ;; >>> /home/sdcc-builder/build/sdcc-build/orig/sdcc/src/pic14/gen.c:1407:movwf
                      01083 ;;      1126 rIdx = r0x1057 
0011   00??           01084         MOVWF   r0x1018
0012   3E??           01085         ADDLW   (_ssd_info + 0)
                      01086 ;; >>> /home/sdcc-builder/build/sdcc-build/orig/sdcc/src/pic14/genarith.c:833:genPlus
                      01087 ;;      1126 rIdx = r0x1057 
0013   00??           01088         MOVWF   r0x1018
                      01089 ;; >>> /home/sdcc-builder/build/sdcc-build/orig/sdcc/src/pic14/genarith.c:849:genPlus
                      01090 ;;      1126 rIdx = r0x1059 
0014   08??           01091         MOVF    r0x101A,W
                      01092 ;; >>> /home/sdcc-builder/build/sdcc-build/orig/sdcc/src/pic14/genarith.c:850:genPlus
0015   1803           01093         BTFSC   STATUS,0
                      01094 ;; >>> /home/sdcc-builder/build/sdcc-build/orig/sdcc/src/pic14/genarith.c:851:genPlus
                      01095 ;;      1126 rIdx = r0x1059 
0016   0F??           01096         INCFSZ  r0x101A,W
                      01097 ;; >>> /home/sdcc-builder/build/sdcc-build/orig/sdcc/src/pic14/genarith.c:852:genPlus
0017   3E??           01098         ADDLW   high (_ssd_info + 0)
                      01099 ;; >>> /home/sdcc-builder/build/sdcc-build/orig/sdcc/src/pic14/genarith.c:853:genPlus
                      01100 ;;      1126 rIdx = r0x1059 
0018   00??           01101         MOVWF   r0x101A
                      01102 ;;; /home/sdcc-builder/build/sdcc-build/orig/sdcc/src/pic14/gen.c:2358:resultRemat *{*
                      01103 ;; ***  genPlus  707
gpasm-1.5.0 #1285 (Sep 12 2016) obj\Debug\ssd   8-8-2021  22:26:04          PAGE 22


LOC    OBJECT CODE    LINE  SOURCE TEXT
  VALUE

                      01104 ;;; /home/sdcc-builder/build/sdcc-build/orig/sdcc/src/pic14/genarith.c:708:genPlus *{*
                      01105 ;;      708 register type nRegs=2
                      01106 ;;      708 register type nRegs=2
                      01107 ;;      line = 714 result AOP_REG=r0x1057, size=2, left AOP_REG=r0x1057, size=2, right AOP_LIT=0x01, siz
                            e=1
                      01108 ;;; /home/sdcc-builder/build/sdcc-build/orig/sdcc/src/pic14/genarith.c:159:genPlusIncr *{*
                      01109 ;; ***  genPlusIncr  161
                      01110 ;;      result AOP_REG, left AOP_REG, right AOP_LIT
                      01111 ;;      genPlusIncr  173
                      01112 ;; >>> /home/sdcc-builder/build/sdcc-build/orig/sdcc/src/pic14/genarith.c:185:genPlusIncr
                      01113 ;;      1126 rIdx = r0x1057 
0019   0A??           01114         INCF    r0x1018,F
                      01115 ;; >>> /home/sdcc-builder/build/sdcc-build/orig/sdcc/src/pic14/genarith.c:189:genPlusIncr
001A   1903           01116         BTFSC   STATUS,2
                      01117 ;; >>> /home/sdcc-builder/build/sdcc-build/orig/sdcc/src/pic14/genarith.c:190:genPlusIncr
                      01118 ;;      1126 rIdx = r0x1059 
001B   0A??           01119         INCF    r0x101A,F
                      01120 ;;; /home/sdcc-builder/build/sdcc-build/orig/sdcc/src/pic14/gen.c:2358:resultRemat *{*
                      01121 ;;; /home/sdcc-builder/build/sdcc-build/orig/sdcc/src/pic14/gen.c:6951:genPointerSet *{*
                      01122 ;; ***  genPointerSet  6952
                      01123 ;;; /home/sdcc-builder/build/sdcc-build/orig/sdcc/src/pic14/gen.c:6871:genNearPointerSet *{*
                      01124 ;; ***  genNearPointerSet  6872
                      01125 ;;      708 register type nRegs=2
                      01126 ;; ***  genNearPointerSet  6886
                      01127 ;;      708 register type nRegs=1
                      01128 ;;      line = 6888 result AOP_REG=r0x1057, size=2, left -=-, size=0, right AOP_REG=r0x1058, size=1
                      01129 ;;; /home/sdcc-builder/build/sdcc-build/orig/sdcc/src/pic14/gen.c:1357:mov2w_op *{*
                      01130 ;; ***  mov2w  1395  offset=0
                      01131 ;; >>> /home/sdcc-builder/build/sdcc-build/orig/sdcc/src/pic14/gen.c:1400:mov2w
                      01132 ;;      1126 rIdx = r0x1057 
001C   08??           01133         MOVF    r0x1018,W
                      01134 ;; >>> /home/sdcc-builder/build/sdcc-build/orig/sdcc/src/pic14/gen.c:5851:setup_fsr
001D   1283 1303      01135         BANKSEL FSR
001F   0084           01136         MOVWF   FSR
                      01137 ;;; /home/sdcc-builder/build/sdcc-build/orig/sdcc/src/pic14/gen.c:5802:SetIrp *{*
                      01138 ;; >>> /home/sdcc-builder/build/sdcc-build/orig/sdcc/src/pic14/gen.c:5829:SetIrp
0020   1383           01139         BCF     STATUS,7
                      01140 ;; >>> /home/sdcc-builder/build/sdcc-build/orig/sdcc/src/pic14/gen.c:5832:SetIrp
0021   0??? 0???      01141         BANKSEL r0x101A
0023   18??           01142         BTFSC   r0x101A,0
                      01143 ;; >>> /home/sdcc-builder/build/sdcc-build/orig/sdcc/src/pic14/gen.c:5833:SetIrp
0024   1783           01144         BSF     STATUS,7
                      01145 ;; >>> /home/sdcc-builder/build/sdcc-build/orig/sdcc/src/pic14/gen.c:6638:emitPtrPut
                      01146 ;;      1126 rIdx = r0x1058 
0025   08??           01147         MOVF    r0x1019,W
                      01148 ;; >>> /home/sdcc-builder/build/sdcc-build/orig/sdcc/src/pic14/gen.c:6639:emitPtrPut
0026   1283 1303      01149         BANKSEL INDF
0028   0080           01150         MOVWF   INDF
                      01151 ;; ***  genNearPointerSet  6905
                      01152 ;;; /home/sdcc-builder/build/sdcc-build/orig/sdcc/src/pic14/gen.c:2358:resultRemat *{*
                      01153 ;;; /home/sdcc-builder/build/sdcc-build/orig/sdcc/src/pic14/gen.c:2802:genLabel *{*
                      01154 ;; ***  genLabel  2805
                      01155 ;;; /home/sdcc-builder/build/sdcc-build/orig/sdcc/src/pic14/gen.c:2358:resultRemat *{*
gpasm-1.5.0 #1285 (Sep 12 2016) obj\Debug\ssd   8-8-2021  22:26:04          PAGE 23


LOC    OBJECT CODE    LINE  SOURCE TEXT
  VALUE

                      01156 ;;; /home/sdcc-builder/build/sdcc-build/orig/sdcc/src/pic14/gen.c:2570:genEndFunction *{*
                      01157 ;; ***  genEndFunction  2572
                      01158         .line   94; "ssd.c"     }
0029   0008           01159         RETURN  
                      01160 ; exit point of _SSD_SetStateData
                      01161 ;;; /home/sdcc-builder/build/sdcc-build/orig/sdcc/src/pic14/gen.c:7710:genpic14Code *{*
                      01162 
                      01163 ;***
                      01164 ;  pBlock Stats: dbName = C
                      01165 ;***
                      01166 ;has an exit
                      01167 ;functions called:
                      01168 ;   __muluchar
                      01169 ;   __muluchar
                      01170 ;4 compiler assigned registers:
                      01171 ;   r0x101B
                      01172 ;   STK00
                      01173 ;   r0x101C
                      01174 ;   r0x101D
                      01175 ;; Starting pCode block
                      01176 ;;; /home/sdcc-builder/build/sdcc-build/orig/sdcc/src/pic14/gen.c:2358:resultRemat *{*
                      01177 ;;; /home/sdcc-builder/build/sdcc-build/orig/sdcc/src/pic14/gen.c:2802:genLabel *{*
                      01178 ;; ***  genLabel  2805
                      01179 ;;; /home/sdcc-builder/build/sdcc-build/orig/sdcc/src/pic14/gen.c:2358:resultRemat *{*
                      01180 ;;; /home/sdcc-builder/build/sdcc-build/orig/sdcc/src/pic14/gen.c:2382:genFunction *{*
                      01181 ;; ***  genFunction  2384 curr label offset=21previous max_key=14 
                      01182 S_ssd__SSD_SetSymbolData        code
0000                  01183 _SSD_SetSymbolData:
                      01184 ; 2 exit points
                      01185 ;;; /home/sdcc-builder/build/sdcc-build/orig/sdcc/src/pic14/gen.c:2358:resultRemat *{*
                      01186 ;;; /home/sdcc-builder/build/sdcc-build/orig/sdcc/src/pic14/gen.c:7642:genReceive *{*
                      01187 ;; ***  genReceive  7643
                      01188 ;;      708 register type nRegs=1
                      01189 ;;; /home/sdcc-builder/build/sdcc-build/orig/sdcc/src/pic14/gen.c:1929:assignResultValue *{*
                      01190 ;; ***  assignResultValue  1931
                      01191 ;;      line = 1933 result -=-, size=0, left AOP_REG=r0x1054, size=1, right -=-, size=0
                      01192 ;; >>> /home/sdcc-builder/build/sdcc-build/orig/sdcc/src/pic14/gen.c:1407:movwf
                      01193 ;;      1126 rIdx = r0x1054 
                      01194         .line   87; "ssd.c"     void SSD_SetSymbolData(tSSD ssd ,tSSD_Symbol symbol)
0000   0??? 0???      01195         BANKSEL r0x101B
0002   00??           01196         MOVWF   r0x101B
                      01197 ;;; /home/sdcc-builder/build/sdcc-build/orig/sdcc/src/pic14/gen.c:2358:resultRemat *{*
                      01198 ;;; /home/sdcc-builder/build/sdcc-build/orig/sdcc/src/pic14/gen.c:7642:genReceive *{*
                      01199 ;; ***  genReceive  7643
                      01200 ;;      708 register type nRegs=1
                      01201 ;;; /home/sdcc-builder/build/sdcc-build/orig/sdcc/src/pic14/gen.c:1929:assignResultValue *{*
                      01202 ;; ***  assignResultValue  1931
                      01203 ;;      line = 1933 result -=-, size=0, left AOP_REG=r0x1055, size=1, right -=-, size=0
                      01204 ;; >>> /home/sdcc-builder/build/sdcc-build/orig/sdcc/src/pic14/gen.c:1437:get_returnvalue
                      01205 ;; ***  popRegFromIdx,1059  , rIdx=0x7f
0003   08??           01206         MOVF    STK00,W
                      01207 ;; >>> /home/sdcc-builder/build/sdcc-build/orig/sdcc/src/pic14/gen.c:1407:movwf
                      01208 ;;      1126 rIdx = r0x1055 
gpasm-1.5.0 #1285 (Sep 12 2016) obj\Debug\ssd   8-8-2021  22:26:04          PAGE 24


LOC    OBJECT CODE    LINE  SOURCE TEXT
  VALUE

0004   00??           01209         MOVWF   r0x101C
                      01210 ;;; /home/sdcc-builder/build/sdcc-build/orig/sdcc/src/pic14/gen.c:2358:resultRemat *{*
                      01211 ;;; /home/sdcc-builder/build/sdcc-build/orig/sdcc/src/pic14/gen.c:2358:resultRemat *{*
                      01212 ;;; /home/sdcc-builder/build/sdcc-build/orig/sdcc/src/pic14/gen.c:2358:resultRemat *{*
                      01213 ;;; /home/sdcc-builder/build/sdcc-build/orig/sdcc/src/pic14/gen.c:2358:resultRemat *{*
                      01214 ;;; /home/sdcc-builder/build/sdcc-build/orig/sdcc/src/pic14/gen.c:2108:genCall *{*
                      01215 ;; ***  genCall  2110
                      01216 ;;      708 register type nRegs=1
                      01217 ;;      2158 left AOP_LIT
                      01218 ;;; /home/sdcc-builder/build/sdcc-build/orig/sdcc/src/pic14/gen.c:1357:mov2w_op *{*
                      01219 ;; >>> /home/sdcc-builder/build/sdcc-build/orig/sdcc/src/pic14/gen.c:1375:mov2w_op
                      01220         .line   89; "ssd.c"     ssd_info[ssd].ssd_symbol = symbol ;
0005   3002           01221         MOVLW   0x02
                      01222 ;;      708 register type nRegs=1
                      01223 ;;      2158 left AOP_REG
                      01224 ;; >>> /home/sdcc-builder/build/sdcc-build/orig/sdcc/src/pic14/gen.c:2166:genCall
                      01225 ;; ***  popRegFromIdx,1059  , rIdx=0x7f
0006   00??           01226         MOVWF   STK00
                      01227 ;;; /home/sdcc-builder/build/sdcc-build/orig/sdcc/src/pic14/gen.c:1357:mov2w_op *{*
                      01228 ;; ***  mov2w  1395  offset=0
                      01229 ;; >>> /home/sdcc-builder/build/sdcc-build/orig/sdcc/src/pic14/gen.c:1400:mov2w
                      01230 ;;      1126 rIdx = r0x1054 
0007   08??           01231         MOVF    r0x101B,W
                      01232 ;; >>> /home/sdcc-builder/build/sdcc-build/orig/sdcc/src/pic14/gen.c:2207:genCall
0008   0??? 0???      01233         PAGESEL __muluchar
                      01234 ;; >>> /home/sdcc-builder/build/sdcc-build/orig/sdcc/src/pic14/gen.c:2215:genCall
000A   2???           01235         CALL    __muluchar
                      01236 ;; >>> /home/sdcc-builder/build/sdcc-build/orig/sdcc/src/pic14/gen.c:2223:genCall
000B   0??? 0???      01237         PAGESEL $
                      01238 ;;      708 register type nRegs=2
                      01239 ;;; /home/sdcc-builder/build/sdcc-build/orig/sdcc/src/pic14/gen.c:1929:assignResultValue *{*
                      01240 ;; ***  assignResultValue  1931
                      01241 ;;      line = 1933 result -=-, size=0, left AOP_REG=r0x1054, size=2, right -=-, size=0
                      01242 ;; >>> /home/sdcc-builder/build/sdcc-build/orig/sdcc/src/pic14/gen.c:1407:movwf
                      01243 ;;      1126 rIdx = r0x1056 
000D   0??? 0???      01244         BANKSEL r0x101D
000F   00??           01245         MOVWF   r0x101D
                      01246 ;; >>> /home/sdcc-builder/build/sdcc-build/orig/sdcc/src/pic14/gen.c:1437:get_returnvalue
                      01247 ;; ***  popRegFromIdx,1059  , rIdx=0x7f
0010   08??           01248         MOVF    STK00,W
                      01249 ;; >>> /home/sdcc-builder/build/sdcc-build/orig/sdcc/src/pic14/gen.c:1407:movwf
                      01250 ;;      1126 rIdx = r0x1054 
0011   00??           01251         MOVWF   r0x101B
0012   3E??           01252         ADDLW   (_ssd_info + 0)
                      01253 ;; >>> /home/sdcc-builder/build/sdcc-build/orig/sdcc/src/pic14/genarith.c:833:genPlus
                      01254 ;;      1126 rIdx = r0x1054 
0013   00??           01255         MOVWF   r0x101B
                      01256 ;; >>> /home/sdcc-builder/build/sdcc-build/orig/sdcc/src/pic14/genarith.c:849:genPlus
                      01257 ;;      1126 rIdx = r0x1056 
0014   08??           01258         MOVF    r0x101D,W
                      01259 ;; >>> /home/sdcc-builder/build/sdcc-build/orig/sdcc/src/pic14/genarith.c:850:genPlus
0015   1803           01260         BTFSC   STATUS,0
                      01261 ;; >>> /home/sdcc-builder/build/sdcc-build/orig/sdcc/src/pic14/genarith.c:851:genPlus
gpasm-1.5.0 #1285 (Sep 12 2016) obj\Debug\ssd   8-8-2021  22:26:04          PAGE 25


LOC    OBJECT CODE    LINE  SOURCE TEXT
  VALUE

                      01262 ;;      1126 rIdx = r0x1056 
0016   0F??           01263         INCFSZ  r0x101D,W
                      01264 ;; >>> /home/sdcc-builder/build/sdcc-build/orig/sdcc/src/pic14/genarith.c:852:genPlus
0017   3E??           01265         ADDLW   high (_ssd_info + 0)
                      01266 ;; >>> /home/sdcc-builder/build/sdcc-build/orig/sdcc/src/pic14/genarith.c:853:genPlus
                      01267 ;;      1126 rIdx = r0x1056 
0018   00??           01268         MOVWF   r0x101D
                      01269 ;;; /home/sdcc-builder/build/sdcc-build/orig/sdcc/src/pic14/gen.c:2358:resultRemat *{*
                      01270 ;;; /home/sdcc-builder/build/sdcc-build/orig/sdcc/src/pic14/gen.c:6951:genPointerSet *{*
                      01271 ;; ***  genPointerSet  6952
                      01272 ;;; /home/sdcc-builder/build/sdcc-build/orig/sdcc/src/pic14/gen.c:6871:genNearPointerSet *{*
                      01273 ;; ***  genNearPointerSet  6872
                      01274 ;;      708 register type nRegs=2
                      01275 ;; ***  genNearPointerSet  6886
                      01276 ;;      708 register type nRegs=1
                      01277 ;;      line = 6888 result AOP_REG=r0x1054, size=2, left -=-, size=0, right AOP_REG=r0x1055, size=1
                      01278 ;;; /home/sdcc-builder/build/sdcc-build/orig/sdcc/src/pic14/gen.c:1357:mov2w_op *{*
                      01279 ;; ***  mov2w  1395  offset=0
                      01280 ;; >>> /home/sdcc-builder/build/sdcc-build/orig/sdcc/src/pic14/gen.c:1400:mov2w
                      01281 ;;      1126 rIdx = r0x1054 
0019   08??           01282         MOVF    r0x101B,W
                      01283 ;; >>> /home/sdcc-builder/build/sdcc-build/orig/sdcc/src/pic14/gen.c:5851:setup_fsr
001A   1283 1303      01284         BANKSEL FSR
001C   0084           01285         MOVWF   FSR
                      01286 ;;; /home/sdcc-builder/build/sdcc-build/orig/sdcc/src/pic14/gen.c:5802:SetIrp *{*
                      01287 ;; >>> /home/sdcc-builder/build/sdcc-build/orig/sdcc/src/pic14/gen.c:5829:SetIrp
001D   1383           01288         BCF     STATUS,7
                      01289 ;; >>> /home/sdcc-builder/build/sdcc-build/orig/sdcc/src/pic14/gen.c:5832:SetIrp
001E   0??? 0???      01290         BANKSEL r0x101D
0020   18??           01291         BTFSC   r0x101D,0
                      01292 ;; >>> /home/sdcc-builder/build/sdcc-build/orig/sdcc/src/pic14/gen.c:5833:SetIrp
0021   1783           01293         BSF     STATUS,7
                      01294 ;; >>> /home/sdcc-builder/build/sdcc-build/orig/sdcc/src/pic14/gen.c:6638:emitPtrPut
                      01295 ;;      1126 rIdx = r0x1055 
0022   08??           01296         MOVF    r0x101C,W
                      01297 ;; >>> /home/sdcc-builder/build/sdcc-build/orig/sdcc/src/pic14/gen.c:6639:emitPtrPut
0023   1283 1303      01298         BANKSEL INDF
0025   0080           01299         MOVWF   INDF
                      01300 ;; ***  genNearPointerSet  6905
                      01301 ;;; /home/sdcc-builder/build/sdcc-build/orig/sdcc/src/pic14/gen.c:2358:resultRemat *{*
                      01302 ;;; /home/sdcc-builder/build/sdcc-build/orig/sdcc/src/pic14/gen.c:2802:genLabel *{*
                      01303 ;; ***  genLabel  2805
                      01304 ;;; /home/sdcc-builder/build/sdcc-build/orig/sdcc/src/pic14/gen.c:2358:resultRemat *{*
                      01305 ;;; /home/sdcc-builder/build/sdcc-build/orig/sdcc/src/pic14/gen.c:2570:genEndFunction *{*
                      01306 ;; ***  genEndFunction  2572
                      01307         .line   90; "ssd.c"     }
0026   0008           01308         RETURN  
                      01309 ; exit point of _SSD_SetSymbolData
                      01310 ;;; /home/sdcc-builder/build/sdcc-build/orig/sdcc/src/pic14/gen.c:7710:genpic14Code *{*
                      01311 
                      01312 ;***
                      01313 ;  pBlock Stats: dbName = C
                      01314 ;***
gpasm-1.5.0 #1285 (Sep 12 2016) obj\Debug\ssd   8-8-2021  22:26:04          PAGE 26


LOC    OBJECT CODE    LINE  SOURCE TEXT
  VALUE

                      01315 ;has an exit
                      01316 ;functions called:
                      01317 ;   _GPIO_GetPinState
                      01318 ;   _GPIO_GetPinState
                      01319 ;   _GPIO_GetPinState
                      01320 ;   _GPIO_GetPinState
                      01321 ;   _GPIO_GetPinState
                      01322 ;   _GPIO_GetPinState
                      01323 ;   _GPIO_GetPinState
                      01324 ;   _GPIO_GetPinState
                      01325 ;3 compiler assigned registers:
                      01326 ;   r0x101E
                      01327 ;   r0x101F
                      01328 ;   STK00
                      01329 ;; Starting pCode block
                      01330 ;;; /home/sdcc-builder/build/sdcc-build/orig/sdcc/src/pic14/gen.c:2358:resultRemat *{*
                      01331 ;;; /home/sdcc-builder/build/sdcc-build/orig/sdcc/src/pic14/gen.c:2802:genLabel *{*
                      01332 ;; ***  genLabel  2805
                      01333 ;;; /home/sdcc-builder/build/sdcc-build/orig/sdcc/src/pic14/gen.c:2358:resultRemat *{*
                      01334 ;;; /home/sdcc-builder/build/sdcc-build/orig/sdcc/src/pic14/gen.c:2382:genFunction *{*
                      01335 ;; ***  genFunction  2384 curr label offset=17previous max_key=0 
                      01336 S_ssd__SSD_GetState     code
0000                  01337 _SSD_GetState:
                      01338 ; 2 exit points
                      01339 ;;; /home/sdcc-builder/build/sdcc-build/orig/sdcc/src/pic14/gen.c:2358:resultRemat *{*
                      01340 ;;; /home/sdcc-builder/build/sdcc-build/orig/sdcc/src/pic14/gen.c:7642:genReceive *{*
                      01341 ;; ***  genReceive  7643
                      01342 ;;      708 register type nRegs=1
                      01343 ;;; /home/sdcc-builder/build/sdcc-build/orig/sdcc/src/pic14/gen.c:1929:assignResultValue *{*
                      01344 ;; ***  assignResultValue  1931
                      01345 ;;      line = 1933 result -=-, size=0, left AOP_REG=r0x1052, size=1, right -=-, size=0
                      01346 ;; >>> /home/sdcc-builder/build/sdcc-build/orig/sdcc/src/pic14/gen.c:1407:movwf
                      01347 ;;      1126 rIdx = r0x1052 
                      01348         .line   64; "ssd.c"     tSSD_State  SSD_GetState (tSSD ssd )
0000   0??? 0???      01349         BANKSEL r0x101E
0002   00??           01350         MOVWF   r0x101E
                      01351 ;;; /home/sdcc-builder/build/sdcc-build/orig/sdcc/src/pic14/gen.c:2358:resultRemat *{*
                      01352 ;;; /home/sdcc-builder/build/sdcc-build/orig/sdcc/src/pic14/gen.c:7192:genAssign *{*
                      01353 ;; ***  genAssign  7193
                      01354 ;;      708 register type nRegs=1
                      01355 ;;      line = 7202 result AOP_REG=r0x1053, size=1, left -=-, size=0, right AOP_LIT=0x00, size=1
                      01356 ;; ***  genAssign  7286
                      01357 ;; >>> /home/sdcc-builder/build/sdcc-build/orig/sdcc/src/pic14/gen.c:7298:genAssign
                      01358 ;;      1126 rIdx = r0x1053 
                      01359         .line   66; "ssd.c"     tSSD_State ret = SSD_OFF ;
0003   01??           01360         CLRF    r0x101F
                      01361 ;;; /home/sdcc-builder/build/sdcc-build/orig/sdcc/src/pic14/gen.c:2358:resultRemat *{*
                      01362 ;;; /home/sdcc-builder/build/sdcc-build/orig/sdcc/src/pic14/gen.c:3616:genCmpGt *{*
                      01363 ;; ***  genCmpGt  3617
                      01364 ;;      708 register type nRegs=1
                      01365 ;;; /home/sdcc-builder/build/sdcc-build/orig/sdcc/src/pic14/gen.c:3354:genCmp *{*
                      01366 ;;swapping arguments (AOP_TYPEs 1/2)
                      01367 ;;unsigned compare: left >= lit(0x4=4), size=1
gpasm-1.5.0 #1285 (Sep 12 2016) obj\Debug\ssd   8-8-2021  22:26:04          PAGE 27


LOC    OBJECT CODE    LINE  SOURCE TEXT
  VALUE

                      01368 ;; >>> /home/sdcc-builder/build/sdcc-build/orig/sdcc/src/pic14/gen.c:3325:pic14_mov2w_regOrLit
                      01369         .line   67; "ssd.c"     switch(ssd)
0004   3004           01370         MOVLW   0x04
                      01371 ;; >>> /home/sdcc-builder/build/sdcc-build/orig/sdcc/src/pic14/gen.c:3492:genCmp
                      01372 ;;      1126 rIdx = r0x1052 
0005   02??           01373         SUBWF   r0x101E,W
                      01374 ;;; /home/sdcc-builder/build/sdcc-build/orig/sdcc/src/pic14/gen.c:3297:genSkipc *{*
                      01375 ;; >>> /home/sdcc-builder/build/sdcc-build/orig/sdcc/src/pic14/gen.c:3302:genSkipc
0006   1803           01376         BTFSC   STATUS,0
                      01377 ;; >>> /home/sdcc-builder/build/sdcc-build/orig/sdcc/src/pic14/gen.c:3306:genSkipc
                      01378 ;; ***  popGetLabel  key=6, label offset 21
0007   2???           01379         GOTO    _00127_DS_
                      01380 ;;genSkipc:3307: created from rifx:0000000000BC9340
                      01381 ;;; /home/sdcc-builder/build/sdcc-build/orig/sdcc/src/pic14/gen.c:2358:resultRemat *{*
                      01382 ;;; /home/sdcc-builder/build/sdcc-build/orig/sdcc/src/pic14/gen.c:2358:resultRemat *{*
                      01383 ;;; /home/sdcc-builder/build/sdcc-build/orig/sdcc/src/pic14/gen.c:7337:genJumpTab *{*
                      01384 ;; ***  genJumpTab  7338
                      01385 ;;      708 register type nRegs=1
                      01386 ;; >>> /home/sdcc-builder/build/sdcc-build/orig/sdcc/src/pic14/gen.c:7353:genJumpTab
                      01387 ;; ***  popGetLabel  key=14, label offset 21
0008   30??           01388         MOVLW   HIGH(_00135_DS_)
                      01389 ;; >>> /home/sdcc-builder/build/sdcc-build/orig/sdcc/src/pic14/gen.c:7354:genJumpTab
0009   1283 1303      01390         BANKSEL PCLATH
000B   008A           01391         MOVWF   PCLATH
                      01392 ;; >>> /home/sdcc-builder/build/sdcc-build/orig/sdcc/src/pic14/gen.c:7355:genJumpTab
                      01393 ;; ***  popGetLabel  key=14, label offset 21
000C   30??           01394         MOVLW   _00135_DS_
                      01395 ;; >>> /home/sdcc-builder/build/sdcc-build/orig/sdcc/src/pic14/gen.c:7356:genJumpTab
                      01396 ;;      1126 rIdx = r0x1052 
000D   0??? 0???      01397         BANKSEL r0x101E
000F   07??           01398         ADDWF   r0x101E,W
                      01399 ;; >>> /home/sdcc-builder/build/sdcc-build/orig/sdcc/src/pic14/gen.c:7357:genJumpTab
0010   1C03           01400         BTFSS   STATUS,0
0011   2???           01401         GOTO    _00003_DS_
                      01402 ;; >>> /home/sdcc-builder/build/sdcc-build/orig/sdcc/src/pic14/gen.c:7358:genJumpTab
0012   1283 1303      01403         BANKSEL PCLATH
0014   0A8A           01404         INCF    PCLATH,F
                      01405 ;; >>> /home/sdcc-builder/build/sdcc-build/orig/sdcc/src/pic14/gen.c:7359:genJumpTab
0015                  01406 _00003_DS_:
0015   0082           01407         MOVWF   PCL
                      01408 ;; >>> /home/sdcc-builder/build/sdcc-build/orig/sdcc/src/pic14/gen.c:7368:genJumpTab
                      01409 ;; ***  popGetLabel  key=1, label offset 21
0016                  01410 _00135_DS_:
0016   2???           01411         GOTO    _00122_DS_
                      01412 ;; >>> /home/sdcc-builder/build/sdcc-build/orig/sdcc/src/pic14/gen.c:7368:genJumpTab
                      01413 ;; ***  popGetLabel  key=2, label offset 21
0017   2???           01414         GOTO    _00123_DS_
                      01415 ;; >>> /home/sdcc-builder/build/sdcc-build/orig/sdcc/src/pic14/gen.c:7368:genJumpTab
                      01416 ;; ***  popGetLabel  key=3, label offset 21
0018   2???           01417         GOTO    _00124_DS_
                      01418 ;; >>> /home/sdcc-builder/build/sdcc-build/orig/sdcc/src/pic14/gen.c:7368:genJumpTab
                      01419 ;; ***  popGetLabel  key=4, label offset 21
0019   2???           01420         GOTO    _00125_DS_
gpasm-1.5.0 #1285 (Sep 12 2016) obj\Debug\ssd   8-8-2021  22:26:04          PAGE 28


LOC    OBJECT CODE    LINE  SOURCE TEXT
  VALUE

                      01421 ;;; /home/sdcc-builder/build/sdcc-build/orig/sdcc/src/pic14/gen.c:2358:resultRemat *{*
                      01422 ;;; /home/sdcc-builder/build/sdcc-build/orig/sdcc/src/pic14/gen.c:2802:genLabel *{*
                      01423 ;; ***  genLabel  2805
                      01424 ;;; /home/sdcc-builder/build/sdcc-build/orig/sdcc/src/pic14/gen.c:2358:resultRemat *{*
                      01425 ;;; /home/sdcc-builder/build/sdcc-build/orig/sdcc/src/pic14/gen.c:2358:resultRemat *{*
                      01426 ;;; /home/sdcc-builder/build/sdcc-build/orig/sdcc/src/pic14/gen.c:2358:resultRemat *{*
                      01427 ;;; /home/sdcc-builder/build/sdcc-build/orig/sdcc/src/pic14/gen.c:2108:genCall *{*
                      01428 ;; ***  genCall  2110
                      01429 ;;      2158 left AOP_LIT
                      01430 ;;; /home/sdcc-builder/build/sdcc-build/orig/sdcc/src/pic14/gen.c:1357:mov2w_op *{*
                      01431 ;; >>> /home/sdcc-builder/build/sdcc-build/orig/sdcc/src/pic14/gen.c:1375:mov2w_op
001A                  01432 _00122_DS_:
                      01433         .line   70; "ssd.c"     ret = GPIO_GetPinState(PORT_B,PIN_4) ;
001A   3004           01434         MOVLW   0x04
                      01435 ;;      2158 left AOP_LIT
                      01436 ;; >>> /home/sdcc-builder/build/sdcc-build/orig/sdcc/src/pic14/gen.c:2166:genCall
                      01437 ;; ***  popRegFromIdx,1059  , rIdx=0x7f
001B   00??           01438         MOVWF   STK00
                      01439 ;;; /home/sdcc-builder/build/sdcc-build/orig/sdcc/src/pic14/gen.c:1357:mov2w_op *{*
                      01440 ;; >>> /home/sdcc-builder/build/sdcc-build/orig/sdcc/src/pic14/gen.c:1375:mov2w_op
001C   3001           01441         MOVLW   0x01
                      01442 ;; >>> /home/sdcc-builder/build/sdcc-build/orig/sdcc/src/pic14/gen.c:2207:genCall
001D   0??? 0???      01443         PAGESEL _GPIO_GetPinState
                      01444 ;; >>> /home/sdcc-builder/build/sdcc-build/orig/sdcc/src/pic14/gen.c:2215:genCall
001F   2???           01445         CALL    _GPIO_GetPinState
                      01446 ;; >>> /home/sdcc-builder/build/sdcc-build/orig/sdcc/src/pic14/gen.c:2223:genCall
0020   0??? 0???      01447         PAGESEL $
                      01448 ;;      708 register type nRegs=1
                      01449 ;;; /home/sdcc-builder/build/sdcc-build/orig/sdcc/src/pic14/gen.c:1929:assignResultValue *{*
                      01450 ;; ***  assignResultValue  1931
                      01451 ;;      line = 1933 result -=-, size=0, left AOP_REG=r0x1053, size=1, right -=-, size=0
                      01452 ;; >>> /home/sdcc-builder/build/sdcc-build/orig/sdcc/src/pic14/gen.c:1407:movwf
                      01453 ;;      1126 rIdx = r0x1053 
0022   0??? 0???      01454         BANKSEL r0x101F
0024   00??           01455         MOVWF   r0x101F
                      01456 ;;      2238 left AOP_REG
                      01457 ;;; /home/sdcc-builder/build/sdcc-build/orig/sdcc/src/pic14/gen.c:2358:resultRemat *{*
                      01458 ;;; /home/sdcc-builder/build/sdcc-build/orig/sdcc/src/pic14/gen.c:2820:genGoto *{*
                      01459 ;; >>> /home/sdcc-builder/build/sdcc-build/orig/sdcc/src/pic14/gen.c:2822:genGoto
                      01460 ;; ***  popGetLabel  key=6, label offset 21
                      01461         .line   71; "ssd.c"     break ;
0025   2???           01462         GOTO    _00127_DS_
                      01463 ;;; /home/sdcc-builder/build/sdcc-build/orig/sdcc/src/pic14/gen.c:2358:resultRemat *{*
                      01464 ;;; /home/sdcc-builder/build/sdcc-build/orig/sdcc/src/pic14/gen.c:2802:genLabel *{*
                      01465 ;; ***  genLabel  2805
                      01466 ;;; /home/sdcc-builder/build/sdcc-build/orig/sdcc/src/pic14/gen.c:2358:resultRemat *{*
                      01467 ;;; /home/sdcc-builder/build/sdcc-build/orig/sdcc/src/pic14/gen.c:2358:resultRemat *{*
                      01468 ;;; /home/sdcc-builder/build/sdcc-build/orig/sdcc/src/pic14/gen.c:2358:resultRemat *{*
                      01469 ;;; /home/sdcc-builder/build/sdcc-build/orig/sdcc/src/pic14/gen.c:2108:genCall *{*
                      01470 ;; ***  genCall  2110
                      01471 ;;      2158 left AOP_LIT
                      01472 ;;; /home/sdcc-builder/build/sdcc-build/orig/sdcc/src/pic14/gen.c:1357:mov2w_op *{*
                      01473 ;; >>> /home/sdcc-builder/build/sdcc-build/orig/sdcc/src/pic14/gen.c:1375:mov2w_op
gpasm-1.5.0 #1285 (Sep 12 2016) obj\Debug\ssd   8-8-2021  22:26:04          PAGE 29


LOC    OBJECT CODE    LINE  SOURCE TEXT
  VALUE

0026                  01474 _00123_DS_:
                      01475         .line   73; "ssd.c"     ret = GPIO_GetPinState(PORT_B,PIN_5) ;
0026   3005           01476         MOVLW   0x05
                      01477 ;;      2158 left AOP_LIT
                      01478 ;; >>> /home/sdcc-builder/build/sdcc-build/orig/sdcc/src/pic14/gen.c:2166:genCall
                      01479 ;; ***  popRegFromIdx,1059  , rIdx=0x7f
0027   00??           01480         MOVWF   STK00
                      01481 ;;; /home/sdcc-builder/build/sdcc-build/orig/sdcc/src/pic14/gen.c:1357:mov2w_op *{*
                      01482 ;; >>> /home/sdcc-builder/build/sdcc-build/orig/sdcc/src/pic14/gen.c:1375:mov2w_op
0028   3001           01483         MOVLW   0x01
                      01484 ;; >>> /home/sdcc-builder/build/sdcc-build/orig/sdcc/src/pic14/gen.c:2207:genCall
0029   0??? 0???      01485         PAGESEL _GPIO_GetPinState
                      01486 ;; >>> /home/sdcc-builder/build/sdcc-build/orig/sdcc/src/pic14/gen.c:2215:genCall
002B   2???           01487         CALL    _GPIO_GetPinState
                      01488 ;; >>> /home/sdcc-builder/build/sdcc-build/orig/sdcc/src/pic14/gen.c:2223:genCall
002C   0??? 0???      01489         PAGESEL $
                      01490 ;;      708 register type nRegs=1
                      01491 ;;; /home/sdcc-builder/build/sdcc-build/orig/sdcc/src/pic14/gen.c:1929:assignResultValue *{*
                      01492 ;; ***  assignResultValue  1931
                      01493 ;;      line = 1933 result -=-, size=0, left AOP_REG=r0x1053, size=1, right -=-, size=0
                      01494 ;; >>> /home/sdcc-builder/build/sdcc-build/orig/sdcc/src/pic14/gen.c:1407:movwf
                      01495 ;;      1126 rIdx = r0x1053 
002E   0??? 0???      01496         BANKSEL r0x101F
0030   00??           01497         MOVWF   r0x101F
                      01498 ;;      2238 left AOP_REG
                      01499 ;;; /home/sdcc-builder/build/sdcc-build/orig/sdcc/src/pic14/gen.c:2358:resultRemat *{*
                      01500 ;;; /home/sdcc-builder/build/sdcc-build/orig/sdcc/src/pic14/gen.c:2820:genGoto *{*
                      01501 ;; >>> /home/sdcc-builder/build/sdcc-build/orig/sdcc/src/pic14/gen.c:2822:genGoto
                      01502 ;; ***  popGetLabel  key=6, label offset 21
                      01503         .line   74; "ssd.c"     break ;
0031   2???           01504         GOTO    _00127_DS_
                      01505 ;;; /home/sdcc-builder/build/sdcc-build/orig/sdcc/src/pic14/gen.c:2358:resultRemat *{*
                      01506 ;;; /home/sdcc-builder/build/sdcc-build/orig/sdcc/src/pic14/gen.c:2802:genLabel *{*
                      01507 ;; ***  genLabel  2805
                      01508 ;;; /home/sdcc-builder/build/sdcc-build/orig/sdcc/src/pic14/gen.c:2358:resultRemat *{*
                      01509 ;;; /home/sdcc-builder/build/sdcc-build/orig/sdcc/src/pic14/gen.c:2358:resultRemat *{*
                      01510 ;;; /home/sdcc-builder/build/sdcc-build/orig/sdcc/src/pic14/gen.c:2358:resultRemat *{*
                      01511 ;;; /home/sdcc-builder/build/sdcc-build/orig/sdcc/src/pic14/gen.c:2108:genCall *{*
                      01512 ;; ***  genCall  2110
                      01513 ;;      2158 left AOP_LIT
                      01514 ;;; /home/sdcc-builder/build/sdcc-build/orig/sdcc/src/pic14/gen.c:1357:mov2w_op *{*
                      01515 ;; >>> /home/sdcc-builder/build/sdcc-build/orig/sdcc/src/pic14/gen.c:1375:mov2w_op
0032                  01516 _00124_DS_:
                      01517         .line   76; "ssd.c"     ret = GPIO_GetPinState(PORT_B,PIN_6) ;
0032   3006           01518         MOVLW   0x06
                      01519 ;;      2158 left AOP_LIT
                      01520 ;; >>> /home/sdcc-builder/build/sdcc-build/orig/sdcc/src/pic14/gen.c:2166:genCall
                      01521 ;; ***  popRegFromIdx,1059  , rIdx=0x7f
0033   00??           01522         MOVWF   STK00
                      01523 ;;; /home/sdcc-builder/build/sdcc-build/orig/sdcc/src/pic14/gen.c:1357:mov2w_op *{*
                      01524 ;; >>> /home/sdcc-builder/build/sdcc-build/orig/sdcc/src/pic14/gen.c:1375:mov2w_op
0034   3001           01525         MOVLW   0x01
                      01526 ;; >>> /home/sdcc-builder/build/sdcc-build/orig/sdcc/src/pic14/gen.c:2207:genCall
gpasm-1.5.0 #1285 (Sep 12 2016) obj\Debug\ssd   8-8-2021  22:26:04          PAGE 30


LOC    OBJECT CODE    LINE  SOURCE TEXT
  VALUE

0035   0??? 0???      01527         PAGESEL _GPIO_GetPinState
                      01528 ;; >>> /home/sdcc-builder/build/sdcc-build/orig/sdcc/src/pic14/gen.c:2215:genCall
0037   2???           01529         CALL    _GPIO_GetPinState
                      01530 ;; >>> /home/sdcc-builder/build/sdcc-build/orig/sdcc/src/pic14/gen.c:2223:genCall
0038   0??? 0???      01531         PAGESEL $
                      01532 ;;      708 register type nRegs=1
                      01533 ;;; /home/sdcc-builder/build/sdcc-build/orig/sdcc/src/pic14/gen.c:1929:assignResultValue *{*
                      01534 ;; ***  assignResultValue  1931
                      01535 ;;      line = 1933 result -=-, size=0, left AOP_REG=r0x1053, size=1, right -=-, size=0
                      01536 ;; >>> /home/sdcc-builder/build/sdcc-build/orig/sdcc/src/pic14/gen.c:1407:movwf
                      01537 ;;      1126 rIdx = r0x1053 
003A   0??? 0???      01538         BANKSEL r0x101F
003C   00??           01539         MOVWF   r0x101F
                      01540 ;;      2238 left AOP_REG
                      01541 ;;; /home/sdcc-builder/build/sdcc-build/orig/sdcc/src/pic14/gen.c:2358:resultRemat *{*
                      01542 ;;; /home/sdcc-builder/build/sdcc-build/orig/sdcc/src/pic14/gen.c:2820:genGoto *{*
                      01543 ;; >>> /home/sdcc-builder/build/sdcc-build/orig/sdcc/src/pic14/gen.c:2822:genGoto
                      01544 ;; ***  popGetLabel  key=6, label offset 21
                      01545         .line   77; "ssd.c"     break ;
003D   2???           01546         GOTO    _00127_DS_
                      01547 ;;; /home/sdcc-builder/build/sdcc-build/orig/sdcc/src/pic14/gen.c:2358:resultRemat *{*
                      01548 ;;; /home/sdcc-builder/build/sdcc-build/orig/sdcc/src/pic14/gen.c:2802:genLabel *{*
                      01549 ;; ***  genLabel  2805
                      01550 ;;; /home/sdcc-builder/build/sdcc-build/orig/sdcc/src/pic14/gen.c:2358:resultRemat *{*
                      01551 ;;; /home/sdcc-builder/build/sdcc-build/orig/sdcc/src/pic14/gen.c:2358:resultRemat *{*
                      01552 ;;; /home/sdcc-builder/build/sdcc-build/orig/sdcc/src/pic14/gen.c:2358:resultRemat *{*
                      01553 ;;; /home/sdcc-builder/build/sdcc-build/orig/sdcc/src/pic14/gen.c:2108:genCall *{*
                      01554 ;; ***  genCall  2110
                      01555 ;;      2158 left AOP_LIT
                      01556 ;;; /home/sdcc-builder/build/sdcc-build/orig/sdcc/src/pic14/gen.c:1357:mov2w_op *{*
                      01557 ;; >>> /home/sdcc-builder/build/sdcc-build/orig/sdcc/src/pic14/gen.c:1375:mov2w_op
003E                  01558 _00125_DS_:
                      01559         .line   79; "ssd.c"     ret = GPIO_GetPinState(PORT_B,PIN_7) ;
003E   3007           01560         MOVLW   0x07
                      01561 ;;      2158 left AOP_LIT
                      01562 ;; >>> /home/sdcc-builder/build/sdcc-build/orig/sdcc/src/pic14/gen.c:2166:genCall
                      01563 ;; ***  popRegFromIdx,1059  , rIdx=0x7f
003F   00??           01564         MOVWF   STK00
                      01565 ;;; /home/sdcc-builder/build/sdcc-build/orig/sdcc/src/pic14/gen.c:1357:mov2w_op *{*
                      01566 ;; >>> /home/sdcc-builder/build/sdcc-build/orig/sdcc/src/pic14/gen.c:1375:mov2w_op
0040   3001           01567         MOVLW   0x01
                      01568 ;; >>> /home/sdcc-builder/build/sdcc-build/orig/sdcc/src/pic14/gen.c:2207:genCall
0041   0??? 0???      01569         PAGESEL _GPIO_GetPinState
                      01570 ;; >>> /home/sdcc-builder/build/sdcc-build/orig/sdcc/src/pic14/gen.c:2215:genCall
0043   2???           01571         CALL    _GPIO_GetPinState
                      01572 ;; >>> /home/sdcc-builder/build/sdcc-build/orig/sdcc/src/pic14/gen.c:2223:genCall
0044   0??? 0???      01573         PAGESEL $
                      01574 ;;      708 register type nRegs=1
                      01575 ;;; /home/sdcc-builder/build/sdcc-build/orig/sdcc/src/pic14/gen.c:1929:assignResultValue *{*
                      01576 ;; ***  assignResultValue  1931
                      01577 ;;      line = 1933 result -=-, size=0, left AOP_REG=r0x1053, size=1, right -=-, size=0
                      01578 ;; >>> /home/sdcc-builder/build/sdcc-build/orig/sdcc/src/pic14/gen.c:1407:movwf
                      01579 ;;      1126 rIdx = r0x1053 
gpasm-1.5.0 #1285 (Sep 12 2016) obj\Debug\ssd   8-8-2021  22:26:04          PAGE 31


LOC    OBJECT CODE    LINE  SOURCE TEXT
  VALUE

0046   0??? 0???      01580         BANKSEL r0x101F
0048   00??           01581         MOVWF   r0x101F
                      01582 ;;      2238 left AOP_REG
                      01583 ;;; /home/sdcc-builder/build/sdcc-build/orig/sdcc/src/pic14/gen.c:2358:resultRemat *{*
                      01584 ;;; /home/sdcc-builder/build/sdcc-build/orig/sdcc/src/pic14/gen.c:2802:genLabel *{*
                      01585 ;; ***  genLabel  2805
                      01586 ;;; /home/sdcc-builder/build/sdcc-build/orig/sdcc/src/pic14/gen.c:2358:resultRemat *{*
                      01587 ;;; /home/sdcc-builder/build/sdcc-build/orig/sdcc/src/pic14/gen.c:2725:genRet *{*
                      01588 ;; ***  genRet  2727
                      01589 ;;      708 register type nRegs=1
                      01590 ;;; /home/sdcc-builder/build/sdcc-build/orig/sdcc/src/pic14/gen.c:1357:mov2w_op *{*
                      01591 ;; ***  mov2w  1395  offset=0
                      01592 ;; >>> /home/sdcc-builder/build/sdcc-build/orig/sdcc/src/pic14/gen.c:1400:mov2w
                      01593 ;;      1126 rIdx = r0x1053 
0049                  01594 _00127_DS_:
                      01595         .line   85; "ssd.c"     return ret ;
0049   0??? 0???      01596         BANKSEL r0x101F
004B   08??           01597         MOVF    r0x101F,W
                      01598 ;;; /home/sdcc-builder/build/sdcc-build/orig/sdcc/src/pic14/gen.c:2358:resultRemat *{*
                      01599 ;;; /home/sdcc-builder/build/sdcc-build/orig/sdcc/src/pic14/gen.c:2802:genLabel *{*
                      01600 ;; ***  genLabel  2805
                      01601 ;;; /home/sdcc-builder/build/sdcc-build/orig/sdcc/src/pic14/gen.c:2358:resultRemat *{*
                      01602 ;;; /home/sdcc-builder/build/sdcc-build/orig/sdcc/src/pic14/gen.c:2570:genEndFunction *{*
                      01603 ;; ***  genEndFunction  2572
                      01604         .line   86; "ssd.c"     }
004C   0008           01605         RETURN  
                      01606 ; exit point of _SSD_GetState
                      01607 ;;; /home/sdcc-builder/build/sdcc-build/orig/sdcc/src/pic14/gen.c:7710:genpic14Code *{*
                      01608 
                      01609 ;***
                      01610 ;  pBlock Stats: dbName = C
                      01611 ;***
                      01612 ;has an exit
                      01613 ;functions called:
                      01614 ;   __muluchar
                      01615 ;   __muluchar
                      01616 ;4 compiler assigned registers:
                      01617 ;   r0x1020
                      01618 ;   STK00
                      01619 ;   r0x1021
                      01620 ;   r0x1022
                      01621 ;; Starting pCode block
                      01622 ;;; /home/sdcc-builder/build/sdcc-build/orig/sdcc/src/pic14/gen.c:2358:resultRemat *{*
                      01623 ;;; /home/sdcc-builder/build/sdcc-build/orig/sdcc/src/pic14/gen.c:2802:genLabel *{*
                      01624 ;; ***  genLabel  2805
                      01625 ;;; /home/sdcc-builder/build/sdcc-build/orig/sdcc/src/pic14/gen.c:2358:resultRemat *{*
                      01626 ;;; /home/sdcc-builder/build/sdcc-build/orig/sdcc/src/pic14/gen.c:2382:genFunction *{*
                      01627 ;; ***  genFunction  2384 curr label offset=8previous max_key=5 
                      01628 S_ssd__SSD_GetSymbol    code
0000                  01629 _SSD_GetSymbol:
                      01630 ; 2 exit points
                      01631 ;;; /home/sdcc-builder/build/sdcc-build/orig/sdcc/src/pic14/gen.c:2358:resultRemat *{*
                      01632 ;;; /home/sdcc-builder/build/sdcc-build/orig/sdcc/src/pic14/gen.c:7642:genReceive *{*
gpasm-1.5.0 #1285 (Sep 12 2016) obj\Debug\ssd   8-8-2021  22:26:04          PAGE 32


LOC    OBJECT CODE    LINE  SOURCE TEXT
  VALUE

                      01633 ;; ***  genReceive  7643
                      01634 ;;      708 register type nRegs=1
                      01635 ;;; /home/sdcc-builder/build/sdcc-build/orig/sdcc/src/pic14/gen.c:1929:assignResultValue *{*
                      01636 ;; ***  assignResultValue  1931
                      01637 ;;      line = 1933 result -=-, size=0, left AOP_REG=r0x104F, size=1, right -=-, size=0
                      01638 ;; >>> /home/sdcc-builder/build/sdcc-build/orig/sdcc/src/pic14/gen.c:1407:movwf
                      01639 ;;      1126 rIdx = r0x104F 
                      01640         .line   56; "ssd.c"     tSSD_Symbol SSD_GetSymbol (tSSD ssd)
0000   0??? 0???      01641         BANKSEL r0x1020
0002   00??           01642         MOVWF   r0x1020
                      01643 ;;; /home/sdcc-builder/build/sdcc-build/orig/sdcc/src/pic14/gen.c:2358:resultRemat *{*
                      01644 ;;; /home/sdcc-builder/build/sdcc-build/orig/sdcc/src/pic14/gen.c:2358:resultRemat *{*
                      01645 ;;; /home/sdcc-builder/build/sdcc-build/orig/sdcc/src/pic14/gen.c:2358:resultRemat *{*
                      01646 ;;; /home/sdcc-builder/build/sdcc-build/orig/sdcc/src/pic14/gen.c:2358:resultRemat *{*
                      01647 ;;; /home/sdcc-builder/build/sdcc-build/orig/sdcc/src/pic14/gen.c:2108:genCall *{*
                      01648 ;; ***  genCall  2110
                      01649 ;;      708 register type nRegs=1
                      01650 ;;      2158 left AOP_LIT
                      01651 ;;; /home/sdcc-builder/build/sdcc-build/orig/sdcc/src/pic14/gen.c:1357:mov2w_op *{*
                      01652 ;; >>> /home/sdcc-builder/build/sdcc-build/orig/sdcc/src/pic14/gen.c:1375:mov2w_op
                      01653         .line   61; "ssd.c"     ret = ssd_info[ssd].ssd_symbol ;
0003   3002           01654         MOVLW   0x02
                      01655 ;;      708 register type nRegs=1
                      01656 ;;      2158 left AOP_REG
                      01657 ;; >>> /home/sdcc-builder/build/sdcc-build/orig/sdcc/src/pic14/gen.c:2166:genCall
                      01658 ;; ***  popRegFromIdx,1059  , rIdx=0x7f
0004   00??           01659         MOVWF   STK00
                      01660 ;;; /home/sdcc-builder/build/sdcc-build/orig/sdcc/src/pic14/gen.c:1357:mov2w_op *{*
                      01661 ;; ***  mov2w  1395  offset=0
                      01662 ;; >>> /home/sdcc-builder/build/sdcc-build/orig/sdcc/src/pic14/gen.c:1400:mov2w
                      01663 ;;      1126 rIdx = r0x104F 
0005   08??           01664         MOVF    r0x1020,W
                      01665 ;; >>> /home/sdcc-builder/build/sdcc-build/orig/sdcc/src/pic14/gen.c:2207:genCall
0006   0??? 0???      01666         PAGESEL __muluchar
                      01667 ;; >>> /home/sdcc-builder/build/sdcc-build/orig/sdcc/src/pic14/gen.c:2215:genCall
0008   2???           01668         CALL    __muluchar
                      01669 ;; >>> /home/sdcc-builder/build/sdcc-build/orig/sdcc/src/pic14/gen.c:2223:genCall
0009   0??? 0???      01670         PAGESEL $
                      01671 ;;      708 register type nRegs=2
                      01672 ;;; /home/sdcc-builder/build/sdcc-build/orig/sdcc/src/pic14/gen.c:1929:assignResultValue *{*
                      01673 ;; ***  assignResultValue  1931
                      01674 ;;      line = 1933 result -=-, size=0, left AOP_REG=r0x104F, size=2, right -=-, size=0
                      01675 ;; >>> /home/sdcc-builder/build/sdcc-build/orig/sdcc/src/pic14/gen.c:1407:movwf
                      01676 ;;      1126 rIdx = r0x1050 
000B   0??? 0???      01677         BANKSEL r0x1021
000D   00??           01678         MOVWF   r0x1021
                      01679 ;; >>> /home/sdcc-builder/build/sdcc-build/orig/sdcc/src/pic14/gen.c:1437:get_returnvalue
                      01680 ;; ***  popRegFromIdx,1059  , rIdx=0x7f
000E   08??           01681         MOVF    STK00,W
                      01682 ;; >>> /home/sdcc-builder/build/sdcc-build/orig/sdcc/src/pic14/gen.c:1407:movwf
                      01683 ;;      1126 rIdx = r0x104F 
000F   00??           01684         MOVWF   r0x1020
0010   3E??           01685         ADDLW   (_ssd_info + 0)
gpasm-1.5.0 #1285 (Sep 12 2016) obj\Debug\ssd   8-8-2021  22:26:04          PAGE 33


LOC    OBJECT CODE    LINE  SOURCE TEXT
  VALUE

                      01686 ;; >>> /home/sdcc-builder/build/sdcc-build/orig/sdcc/src/pic14/genarith.c:833:genPlus
                      01687 ;;      1126 rIdx = r0x104F 
0011   00??           01688         MOVWF   r0x1020
                      01689 ;; >>> /home/sdcc-builder/build/sdcc-build/orig/sdcc/src/pic14/genarith.c:849:genPlus
                      01690 ;;      1126 rIdx = r0x1050 
0012   08??           01691         MOVF    r0x1021,W
                      01692 ;; >>> /home/sdcc-builder/build/sdcc-build/orig/sdcc/src/pic14/genarith.c:850:genPlus
0013   1803           01693         BTFSC   STATUS,0
                      01694 ;; >>> /home/sdcc-builder/build/sdcc-build/orig/sdcc/src/pic14/genarith.c:851:genPlus
                      01695 ;;      1126 rIdx = r0x1050 
0014   0F??           01696         INCFSZ  r0x1021,W
                      01697 ;; >>> /home/sdcc-builder/build/sdcc-build/orig/sdcc/src/pic14/genarith.c:852:genPlus
0015   3E??           01698         ADDLW   high (_ssd_info + 0)
                      01699 ;; >>> /home/sdcc-builder/build/sdcc-build/orig/sdcc/src/pic14/genarith.c:853:genPlus
                      01700 ;;      1126 rIdx = r0x1050 
0016   00??           01701         MOVWF   r0x1021
                      01702 ;;; /home/sdcc-builder/build/sdcc-build/orig/sdcc/src/pic14/gen.c:2358:resultRemat *{*
                      01703 ;;; /home/sdcc-builder/build/sdcc-build/orig/sdcc/src/pic14/gen.c:6399:genPointerGet *{*
                      01704 ;; ***  genPointerGet  6400
                      01705 ;;; /home/sdcc-builder/build/sdcc-build/orig/sdcc/src/pic14/gen.c:6285:genNearPointerGet *{*
                      01706 ;; ***  genNearPointerGet  6286
                      01707 ;;      708 register type nRegs=2
                      01708 ;; ***  genNearPointerGet  6302
                      01709 ;;      708 register type nRegs=1
                      01710 ;;; /home/sdcc-builder/build/sdcc-build/orig/sdcc/src/pic14/gen.c:1357:mov2w_op *{*
                      01711 ;; ***  mov2w  1395  offset=0
                      01712 ;; >>> /home/sdcc-builder/build/sdcc-build/orig/sdcc/src/pic14/gen.c:1400:mov2w
                      01713 ;;      1126 rIdx = r0x104F 
0017   08??           01714         MOVF    r0x1020,W
                      01715 ;; >>> /home/sdcc-builder/build/sdcc-build/orig/sdcc/src/pic14/gen.c:5851:setup_fsr
0018   1283 1303      01716         BANKSEL FSR
001A   0084           01717         MOVWF   FSR
                      01718 ;;; /home/sdcc-builder/build/sdcc-build/orig/sdcc/src/pic14/gen.c:5802:SetIrp *{*
                      01719 ;; >>> /home/sdcc-builder/build/sdcc-build/orig/sdcc/src/pic14/gen.c:5829:SetIrp
001B   1383           01720         BCF     STATUS,7
                      01721 ;; >>> /home/sdcc-builder/build/sdcc-build/orig/sdcc/src/pic14/gen.c:5832:SetIrp
001C   0??? 0???      01722         BANKSEL r0x1021
001E   18??           01723         BTFSC   r0x1021,0
                      01724 ;; >>> /home/sdcc-builder/build/sdcc-build/orig/sdcc/src/pic14/gen.c:5833:SetIrp
001F   1783           01725         BSF     STATUS,7
                      01726 ;; >>> /home/sdcc-builder/build/sdcc-build/orig/sdcc/src/pic14/gen.c:6060:emitPtrGet
0020   1283 1303      01727         BANKSEL INDF
0022   0800           01728         MOVF    INDF,W
                      01729 ;; >>> /home/sdcc-builder/build/sdcc-build/orig/sdcc/src/pic14/gen.c:1407:movwf
                      01730 ;;      1126 rIdx = r0x1051 
                      01731 ;;1     MOVWF   r0x1022
                      01732         .line   63; "ssd.c"     }
0023   0008           01733         RETURN  
                      01734 ; exit point of _SSD_GetSymbol
                      01735 ;;; /home/sdcc-builder/build/sdcc-build/orig/sdcc/src/pic14/gen.c:7710:genpic14Code *{*
                      01736 
                      01737 ;***
                      01738 ;  pBlock Stats: dbName = C
gpasm-1.5.0 #1285 (Sep 12 2016) obj\Debug\ssd   8-8-2021  22:26:04          PAGE 34


LOC    OBJECT CODE    LINE  SOURCE TEXT
  VALUE

                      01739 ;***
                      01740 ;has an exit
                      01741 ;functions called:
                      01742 ;   _SSD_TurnAllOff
                      01743 ;   _SSD_SetHardWare
                      01744 ;   _UTILITES_DelayMS
                      01745 ;   _SSD_TurnAllOff
                      01746 ;   _SSD_SetHardWare
                      01747 ;   _UTILITES_DelayMS
                      01748 ;7 compiler assigned registers:
                      01749 ;   r0x1023
                      01750 ;   r0x1024
                      01751 ;   r0x1025
                      01752 ;   r0x1026
                      01753 ;   r0x1027
                      01754 ;   r0x1028
                      01755 ;   STK00
                      01756 ;; Starting pCode block
                      01757 ;;; /home/sdcc-builder/build/sdcc-build/orig/sdcc/src/pic14/gen.c:2358:resultRemat *{*
                      01758 ;;; /home/sdcc-builder/build/sdcc-build/orig/sdcc/src/pic14/gen.c:2802:genLabel *{*
                      01759 ;; ***  genLabel  2805
                      01760 ;;; /home/sdcc-builder/build/sdcc-build/orig/sdcc/src/pic14/gen.c:2358:resultRemat *{*
                      01761 ;;; /home/sdcc-builder/build/sdcc-build/orig/sdcc/src/pic14/gen.c:2382:genFunction *{*
                      01762 ;; ***  genFunction  2384 curr label offset=4previous max_key=0 
                      01763 S_ssd__SSD_Update       code
0000                  01764 _SSD_Update:
                      01765 ; 2 exit points
                      01766 ;;; /home/sdcc-builder/build/sdcc-build/orig/sdcc/src/pic14/gen.c:2358:resultRemat *{*
                      01767 ;;; /home/sdcc-builder/build/sdcc-build/orig/sdcc/src/pic14/gen.c:2358:resultRemat *{*
                      01768 ;;; /home/sdcc-builder/build/sdcc-build/orig/sdcc/src/pic14/gen.c:7192:genAssign *{*
                      01769 ;; ***  genAssign  7193
                      01770 ;;      708 register type nRegs=1
                      01771 ;;      line = 7202 result AOP_REG=r0x1048, size=1, left -=-, size=0, right AOP_LIT=0x00, size=1
                      01772 ;; ***  genAssign  7286
                      01773 ;; >>> /home/sdcc-builder/build/sdcc-build/orig/sdcc/src/pic14/gen.c:7298:genAssign
                      01774 ;;      1126 rIdx = r0x1048 
                      01775         .line   42; "ssd.c"     for(current_ssd = SSD_1 ;current_ssd <= SSD_4 ;current_ssd ++ )
0000   0??? 0???      01776         BANKSEL r0x1023
0002   01??           01777         CLRF    r0x1023
                      01778 ;;; /home/sdcc-builder/build/sdcc-build/orig/sdcc/src/pic14/gen.c:2358:resultRemat *{*
                      01779 ;;; /home/sdcc-builder/build/sdcc-build/orig/sdcc/src/pic14/gen.c:7192:genAssign *{*
                      01780 ;; ***  genAssign  7193
                      01781 ;;      708 register type nRegs=2
                      01782 ;;      line = 7202 result AOP_REG=r0x1049, size=2, left -=-, size=0, right AOP_LIT=0x00, size=2
                      01783 ;; ***  genAssign  7286
                      01784 ;; >>> /home/sdcc-builder/build/sdcc-build/orig/sdcc/src/pic14/gen.c:7298:genAssign
                      01785 ;;      1126 rIdx = r0x1049 
0003   01??           01786         CLRF    r0x1024
                      01787 ;; ***  genAssign  7286
                      01788 ;; >>> /home/sdcc-builder/build/sdcc-build/orig/sdcc/src/pic14/gen.c:7298:genAssign
                      01789 ;;      1126 rIdx = r0x104A 
0004   01??           01790         CLRF    r0x1025
                      01791 ;;; /home/sdcc-builder/build/sdcc-build/orig/sdcc/src/pic14/gen.c:2358:resultRemat *{*
gpasm-1.5.0 #1285 (Sep 12 2016) obj\Debug\ssd   8-8-2021  22:26:04          PAGE 35


LOC    OBJECT CODE    LINE  SOURCE TEXT
  VALUE

                      01792 ;;; /home/sdcc-builder/build/sdcc-build/orig/sdcc/src/pic14/gen.c:2802:genLabel *{*
                      01793 ;; ***  genLabel  2805
                      01794 ;;; /home/sdcc-builder/build/sdcc-build/orig/sdcc/src/pic14/gen.c:2358:resultRemat *{*
                      01795 ;; ***  genPlus  707
                      01796 ;;; /home/sdcc-builder/build/sdcc-build/orig/sdcc/src/pic14/genarith.c:708:genPlus *{*
                      01797 ;;      627
                      01798 ;;      aopForRemat 406
                      01799 ;;      432: rname _ssd_info, val 0, const = 0
                      01800 ;;      708 register type nRegs=2
                      01801 ;;      708 register type nRegs=2
                      01802 ;;      837: aopGet AOP_PCODE type PO_IMMEDIATE
                      01803 ;;      _ssd_info
                      01804 ;;      line = 714 result AOP_REG=r0x104B, size=2, left AOP_PCODE=_ssd_info, size=2, right AOP_REG=r0x10
                            49, size=2
                      01805 ;;; /home/sdcc-builder/build/sdcc-build/orig/sdcc/src/pic14/genarith.c:159:genPlusIncr *{*
                      01806 ;; ***  genPlusIncr  161
                      01807 ;;      result AOP_REG, left AOP_PCODE, right AOP_REG
                      01808 ;; ***  genPlus  814
                      01809 ;;      837: aopGet AOP_PCODE type PO_IMMEDIATE
                      01810 ;;      _ssd_info
                      01811 ;; >>> /home/sdcc-builder/build/sdcc-build/orig/sdcc/src/pic14/genarith.c:823:genPlus
                      01812 ;;      1126 rIdx = r0x1049 
0005                  01813 _00112_DS_:
                      01814         .line   44; "ssd.c"     if(ssd_info[current_ssd].ssd_state == SSD_ON )
0005   0??? 0???      01815         BANKSEL r0x1024
0007   08??           01816         MOVF    r0x1024,W
                      01817 ;; >>> /home/sdcc-builder/build/sdcc-build/orig/sdcc/src/pic14/genarith.c:832:genPlus
0008   3E??           01818         ADDLW   (_ssd_info + 0)
                      01819 ;; >>> /home/sdcc-builder/build/sdcc-build/orig/sdcc/src/pic14/genarith.c:833:genPlus
                      01820 ;;      1126 rIdx = r0x104B 
0009   00??           01821         MOVWF   r0x1026
                      01822 ;; >>> /home/sdcc-builder/build/sdcc-build/orig/sdcc/src/pic14/genarith.c:880:genPlus
000A   30??           01823         MOVLW   high (_ssd_info + 0)
                      01824 ;; >>> /home/sdcc-builder/build/sdcc-build/orig/sdcc/src/pic14/genarith.c:881:genPlus
                      01825 ;;      1126 rIdx = r0x104C 
000B   00??           01826         MOVWF   r0x1027
                      01827 ;; >>> /home/sdcc-builder/build/sdcc-build/orig/sdcc/src/pic14/genarith.c:883:genPlus
                      01828 ;;      1126 rIdx = r0x104A 
000C   08??           01829         MOVF    r0x1025,W
                      01830 ;; >>> /home/sdcc-builder/build/sdcc-build/orig/sdcc/src/pic14/genarith.c:884:genPlus
000D   1803           01831         BTFSC   STATUS,0
                      01832 ;; >>> /home/sdcc-builder/build/sdcc-build/orig/sdcc/src/pic14/genarith.c:885:genPlus
                      01833 ;;      1126 rIdx = r0x104A 
000E   0F??           01834         INCFSZ  r0x1025,W
                      01835 ;; >>> /home/sdcc-builder/build/sdcc-build/orig/sdcc/src/pic14/genarith.c:886:genPlus
                      01836 ;;      1126 rIdx = r0x104C 
000F   07??           01837         ADDWF   r0x1027,F
                      01838 ;;; /home/sdcc-builder/build/sdcc-build/orig/sdcc/src/pic14/gen.c:2358:resultRemat *{*
                      01839 ;; ***  genPlus  707
                      01840 ;;; /home/sdcc-builder/build/sdcc-build/orig/sdcc/src/pic14/genarith.c:708:genPlus *{*
                      01841 ;;      708 register type nRegs=2
                      01842 ;;      708 register type nRegs=2
                      01843 ;;      line = 714 result AOP_REG=r0x104B, size=2, left AOP_REG=r0x104B, size=2, right AOP_LIT=0x01, siz
gpasm-1.5.0 #1285 (Sep 12 2016) obj\Debug\ssd   8-8-2021  22:26:04          PAGE 36


LOC    OBJECT CODE    LINE  SOURCE TEXT
  VALUE

                            e=1
                      01844 ;;; /home/sdcc-builder/build/sdcc-build/orig/sdcc/src/pic14/genarith.c:159:genPlusIncr *{*
                      01845 ;; ***  genPlusIncr  161
                      01846 ;;      result AOP_REG, left AOP_REG, right AOP_LIT
                      01847 ;;      genPlusIncr  173
                      01848 ;; >>> /home/sdcc-builder/build/sdcc-build/orig/sdcc/src/pic14/genarith.c:185:genPlusIncr
                      01849 ;;      1126 rIdx = r0x104B 
0010   0A??           01850         INCF    r0x1026,F
                      01851 ;; >>> /home/sdcc-builder/build/sdcc-build/orig/sdcc/src/pic14/genarith.c:189:genPlusIncr
0011   1903           01852         BTFSC   STATUS,2
                      01853 ;; >>> /home/sdcc-builder/build/sdcc-build/orig/sdcc/src/pic14/genarith.c:190:genPlusIncr
                      01854 ;;      1126 rIdx = r0x104C 
0012   0A??           01855         INCF    r0x1027,F
                      01856 ;;; /home/sdcc-builder/build/sdcc-build/orig/sdcc/src/pic14/gen.c:2358:resultRemat *{*
                      01857 ;;; /home/sdcc-builder/build/sdcc-build/orig/sdcc/src/pic14/gen.c:6399:genPointerGet *{*
                      01858 ;; ***  genPointerGet  6400
                      01859 ;;; /home/sdcc-builder/build/sdcc-build/orig/sdcc/src/pic14/gen.c:6285:genNearPointerGet *{*
                      01860 ;; ***  genNearPointerGet  6286
                      01861 ;;      708 register type nRegs=2
                      01862 ;; ***  genNearPointerGet  6302
                      01863 ;;      708 register type nRegs=1
                      01864 ;;; /home/sdcc-builder/build/sdcc-build/orig/sdcc/src/pic14/gen.c:1357:mov2w_op *{*
                      01865 ;; ***  mov2w  1395  offset=0
                      01866 ;; >>> /home/sdcc-builder/build/sdcc-build/orig/sdcc/src/pic14/gen.c:1400:mov2w
                      01867 ;;      1126 rIdx = r0x104B 
0013   08??           01868         MOVF    r0x1026,W
                      01869 ;; >>> /home/sdcc-builder/build/sdcc-build/orig/sdcc/src/pic14/gen.c:5851:setup_fsr
0014   1283 1303      01870         BANKSEL FSR
0016   0084           01871         MOVWF   FSR
                      01872 ;;; /home/sdcc-builder/build/sdcc-build/orig/sdcc/src/pic14/gen.c:5802:SetIrp *{*
                      01873 ;; >>> /home/sdcc-builder/build/sdcc-build/orig/sdcc/src/pic14/gen.c:5829:SetIrp
0017   1383           01874         BCF     STATUS,7
                      01875 ;; >>> /home/sdcc-builder/build/sdcc-build/orig/sdcc/src/pic14/gen.c:5832:SetIrp
0018   0??? 0???      01876         BANKSEL r0x1027
001A   18??           01877         BTFSC   r0x1027,0
                      01878 ;; >>> /home/sdcc-builder/build/sdcc-build/orig/sdcc/src/pic14/gen.c:5833:SetIrp
001B   1783           01879         BSF     STATUS,7
                      01880 ;; >>> /home/sdcc-builder/build/sdcc-build/orig/sdcc/src/pic14/gen.c:6060:emitPtrGet
001C   1283 1303      01881         BANKSEL INDF
001E   0800           01882         MOVF    INDF,W
                      01883 ;; >>> /home/sdcc-builder/build/sdcc-build/orig/sdcc/src/pic14/gen.c:1407:movwf
                      01884 ;;      1126 rIdx = r0x104D 
                      01885 ;;1     MOVWF   r0x1028
001F   3A01           01886         XORLW   0x01
                      01887 ;; >>> /home/sdcc-builder/build/sdcc-build/orig/sdcc/src/pic14/gen.c:3771:genCmpEq
0020   1D03           01888         BTFSS   STATUS,2
                      01889 ;; >>> /home/sdcc-builder/build/sdcc-build/orig/sdcc/src/pic14/gen.c:3774:genCmpEq
                      01890 ;; ***  popGetLabel  key=5, label offset 8
0021   2???           01891         GOTO    _00113_DS_
                      01892 ;;; /home/sdcc-builder/build/sdcc-build/orig/sdcc/src/pic14/gen.c:2358:resultRemat *{*
                      01893 ;;; /home/sdcc-builder/build/sdcc-build/orig/sdcc/src/pic14/gen.c:2358:resultRemat *{*
                      01894 ;;; /home/sdcc-builder/build/sdcc-build/orig/sdcc/src/pic14/gen.c:2108:genCall *{*
                      01895 ;; ***  genCall  2110
gpasm-1.5.0 #1285 (Sep 12 2016) obj\Debug\ssd   8-8-2021  22:26:04          PAGE 37


LOC    OBJECT CODE    LINE  SOURCE TEXT
  VALUE

                      01896 ;; >>> /home/sdcc-builder/build/sdcc-build/orig/sdcc/src/pic14/gen.c:2207:genCall
                      01897         .line   47; "ssd.c"     SSD_TurnAllOff() ;
0022   0??? 0???      01898         PAGESEL _SSD_TurnAllOff
                      01899 ;; >>> /home/sdcc-builder/build/sdcc-build/orig/sdcc/src/pic14/gen.c:2215:genCall
0024   2???           01900         CALL    _SSD_TurnAllOff
                      01901 ;; >>> /home/sdcc-builder/build/sdcc-build/orig/sdcc/src/pic14/gen.c:2223:genCall
0025   0??? 0???      01902         PAGESEL $
                      01903 ;;; /home/sdcc-builder/build/sdcc-build/orig/sdcc/src/pic14/gen.c:2358:resultRemat *{*
                      01904 ;;; /home/sdcc-builder/build/sdcc-build/orig/sdcc/src/pic14/gen.c:2358:resultRemat *{*
                      01905 ;;; /home/sdcc-builder/build/sdcc-build/orig/sdcc/src/pic14/gen.c:2108:genCall *{*
                      01906 ;; ***  genCall  2110
                      01907 ;;      708 register type nRegs=1
                      01908 ;;      708 register type nRegs=1
                      01909 ;;      2158 left AOP_REG
                      01910 ;;; /home/sdcc-builder/build/sdcc-build/orig/sdcc/src/pic14/gen.c:1357:mov2w_op *{*
                      01911 ;; ***  mov2w  1395  offset=0
                      01912 ;; >>> /home/sdcc-builder/build/sdcc-build/orig/sdcc/src/pic14/gen.c:1400:mov2w
                      01913 ;;      1126 rIdx = r0x1048 
                      01914         .line   49; "ssd.c"     SSD_SetHardWare(current_ssd ) ;
0027   0??? 0???      01915         BANKSEL r0x1023
0029   08??           01916         MOVF    r0x1023,W
                      01917 ;; >>> /home/sdcc-builder/build/sdcc-build/orig/sdcc/src/pic14/gen.c:2207:genCall
002A   0??? 0???      01918         PAGESEL _SSD_SetHardWare
                      01919 ;; >>> /home/sdcc-builder/build/sdcc-build/orig/sdcc/src/pic14/gen.c:2215:genCall
002C   2???           01920         CALL    _SSD_SetHardWare
                      01921 ;; >>> /home/sdcc-builder/build/sdcc-build/orig/sdcc/src/pic14/gen.c:2223:genCall
002D   0??? 0???      01922         PAGESEL $
                      01923 ;;; /home/sdcc-builder/build/sdcc-build/orig/sdcc/src/pic14/gen.c:2358:resultRemat *{*
                      01924 ;;; /home/sdcc-builder/build/sdcc-build/orig/sdcc/src/pic14/gen.c:2358:resultRemat *{*
                      01925 ;;; /home/sdcc-builder/build/sdcc-build/orig/sdcc/src/pic14/gen.c:2108:genCall *{*
                      01926 ;; ***  genCall  2110
                      01927 ;;      2158 left AOP_LIT
                      01928 ;;; /home/sdcc-builder/build/sdcc-build/orig/sdcc/src/pic14/gen.c:1357:mov2w_op *{*
                      01929 ;; >>> /home/sdcc-builder/build/sdcc-build/orig/sdcc/src/pic14/gen.c:1375:mov2w_op
                      01930         .line   51; "ssd.c"     UTILITES_DelayMS(5) ;
002F   3005           01931         MOVLW   0x05
                      01932 ;;      2158 left AOP_LIT
                      01933 ;; >>> /home/sdcc-builder/build/sdcc-build/orig/sdcc/src/pic14/gen.c:2166:genCall
                      01934 ;; ***  popRegFromIdx,1059  , rIdx=0x7f
0030   00??           01935         MOVWF   STK00
                      01936 ;;; /home/sdcc-builder/build/sdcc-build/orig/sdcc/src/pic14/gen.c:1357:mov2w_op *{*
                      01937 ;; >>> /home/sdcc-builder/build/sdcc-build/orig/sdcc/src/pic14/gen.c:1375:mov2w_op
0031   3000           01938         MOVLW   0x00
                      01939 ;; >>> /home/sdcc-builder/build/sdcc-build/orig/sdcc/src/pic14/gen.c:2207:genCall
0032   0??? 0???      01940         PAGESEL _UTILITES_DelayMS
                      01941 ;; >>> /home/sdcc-builder/build/sdcc-build/orig/sdcc/src/pic14/gen.c:2215:genCall
0034   2???           01942         CALL    _UTILITES_DelayMS
                      01943 ;; >>> /home/sdcc-builder/build/sdcc-build/orig/sdcc/src/pic14/gen.c:2223:genCall
0035   0??? 0???      01944         PAGESEL $
                      01945 ;;; /home/sdcc-builder/build/sdcc-build/orig/sdcc/src/pic14/gen.c:2358:resultRemat *{*
                      01946 ;;; /home/sdcc-builder/build/sdcc-build/orig/sdcc/src/pic14/gen.c:2802:genLabel *{*
                      01947 ;; ***  genLabel  2805
                      01948 ;;; /home/sdcc-builder/build/sdcc-build/orig/sdcc/src/pic14/gen.c:2358:resultRemat *{*
gpasm-1.5.0 #1285 (Sep 12 2016) obj\Debug\ssd   8-8-2021  22:26:04          PAGE 38


LOC    OBJECT CODE    LINE  SOURCE TEXT
  VALUE

                      01949 ;; ***  genPlus  707
                      01950 ;;; /home/sdcc-builder/build/sdcc-build/orig/sdcc/src/pic14/genarith.c:708:genPlus *{*
                      01951 ;;      708 register type nRegs=2
                      01952 ;;      589
                      01953 ;;      line = 714 result AOP_REG=r0x1049, size=2, left AOP_REG=r0x1049, size=2, right AOP_LIT=0x02, siz
                            e=1
                      01954 ;;; /home/sdcc-builder/build/sdcc-build/orig/sdcc/src/pic14/genarith.c:159:genPlusIncr *{*
                      01955 ;; ***  genPlusIncr  161
                      01956 ;;      result AOP_REG, left AOP_REG, right AOP_LIT
                      01957 ;;      genPlusIncr  173
                      01958 ;;      genPlusIncr  197
                      01959 ;;      adding lit to something. size 2
                      01960 ;;; /home/sdcc-builder/build/sdcc-build/orig/sdcc/src/pic14/genarith.c:286:genAddLit *{*
                      01961 ;; ***  genAddLit  287
                      01962 ;; hi = 0       genAddLit  351
                      01963 ;; >>> /home/sdcc-builder/build/sdcc-build/orig/sdcc/src/pic14/genarith.c:367:genAddLit
0037                  01964 _00113_DS_:
                      01965         .line   42; "ssd.c"     for(current_ssd = SSD_1 ;current_ssd <= SSD_4 ;current_ssd ++ )
0037   3002           01966         MOVLW   0x02
                      01967 ;; >>> /home/sdcc-builder/build/sdcc-build/orig/sdcc/src/pic14/genarith.c:368:genAddLit
                      01968 ;;      1126 rIdx = r0x1049 
0038   0??? 0???      01969         BANKSEL r0x1024
003A   07??           01970         ADDWF   r0x1024,F
                      01971 ;; >>> /home/sdcc-builder/build/sdcc-build/orig/sdcc/src/pic14/genarith.c:369:genAddLit
003B   1803           01972         BTFSC   STATUS,0
                      01973 ;; >>> /home/sdcc-builder/build/sdcc-build/orig/sdcc/src/pic14/genarith.c:370:genAddLit
                      01974 ;;      1126 rIdx = r0x104A 
003C   0A??           01975         INCF    r0x1025,F
                      01976 ;; ***  addSign  1087
                      01977 ;;; /home/sdcc-builder/build/sdcc-build/orig/sdcc/src/pic14/genarith.c:1088:addSign *{*
                      01978 ;;; /home/sdcc-builder/build/sdcc-build/orig/sdcc/src/pic14/gen.c:2358:resultRemat *{*
                      01979 ;; ***  genPlus  707
                      01980 ;;; /home/sdcc-builder/build/sdcc-build/orig/sdcc/src/pic14/genarith.c:708:genPlus *{*
                      01981 ;;      708 register type nRegs=1
                      01982 ;;      589
                      01983 ;;      line = 714 result AOP_REG=r0x1048, size=1, left AOP_REG=r0x1048, size=1, right AOP_LIT=0x01, siz
                            e=1
                      01984 ;;; /home/sdcc-builder/build/sdcc-build/orig/sdcc/src/pic14/genarith.c:159:genPlusIncr *{*
                      01985 ;; ***  genPlusIncr  161
                      01986 ;;      result AOP_REG, left AOP_REG, right AOP_LIT
                      01987 ;;      genPlusIncr  173
                      01988 ;; >>> /home/sdcc-builder/build/sdcc-build/orig/sdcc/src/pic14/genarith.c:185:genPlusIncr
                      01989 ;;      1126 rIdx = r0x1048 
003D   0A??           01990         INCF    r0x1023,F
                      01991 ;;; /home/sdcc-builder/build/sdcc-build/orig/sdcc/src/pic14/gen.c:2358:resultRemat *{*
                      01992 ;;; /home/sdcc-builder/build/sdcc-build/orig/sdcc/src/pic14/gen.c:3616:genCmpGt *{*
                      01993 ;; ***  genCmpGt  3617
                      01994 ;;      708 register type nRegs=1
                      01995 ;;; /home/sdcc-builder/build/sdcc-build/orig/sdcc/src/pic14/gen.c:3354:genCmp *{*
                      01996 ;;swapping arguments (AOP_TYPEs 1/2)
                      01997 ;;unsigned compare: left >= lit(0x4=4), size=1
                      01998 ;; >>> /home/sdcc-builder/build/sdcc-build/orig/sdcc/src/pic14/gen.c:3325:pic14_mov2w_regOrLit
003E   3004           01999         MOVLW   0x04
gpasm-1.5.0 #1285 (Sep 12 2016) obj\Debug\ssd   8-8-2021  22:26:04          PAGE 39


LOC    OBJECT CODE    LINE  SOURCE TEXT
  VALUE

                      02000 ;; >>> /home/sdcc-builder/build/sdcc-build/orig/sdcc/src/pic14/gen.c:3492:genCmp
                      02001 ;;      1126 rIdx = r0x1048 
003F   02??           02002         SUBWF   r0x1023,W
                      02003 ;;; /home/sdcc-builder/build/sdcc-build/orig/sdcc/src/pic14/gen.c:3297:genSkipc *{*
                      02004 ;; >>> /home/sdcc-builder/build/sdcc-build/orig/sdcc/src/pic14/gen.c:3304:genSkipc
0040   1C03           02005         BTFSS   STATUS,0
                      02006 ;; >>> /home/sdcc-builder/build/sdcc-build/orig/sdcc/src/pic14/gen.c:3306:genSkipc
                      02007 ;; ***  popGetLabel  key=4, label offset 8
0041   2???           02008         GOTO    _00112_DS_
                      02009 ;;genSkipc:3307: created from rifx:0000000000BC9340
                      02010 ;;; /home/sdcc-builder/build/sdcc-build/orig/sdcc/src/pic14/gen.c:2358:resultRemat *{*
                      02011 ;;; /home/sdcc-builder/build/sdcc-build/orig/sdcc/src/pic14/gen.c:2358:resultRemat *{*
                      02012 ;;; /home/sdcc-builder/build/sdcc-build/orig/sdcc/src/pic14/gen.c:2802:genLabel *{*
                      02013 ;; ***  genLabel  2805
                      02014 ;;; /home/sdcc-builder/build/sdcc-build/orig/sdcc/src/pic14/gen.c:2358:resultRemat *{*
                      02015 ;;; /home/sdcc-builder/build/sdcc-build/orig/sdcc/src/pic14/gen.c:2570:genEndFunction *{*
                      02016 ;; ***  genEndFunction  2572
                      02017         .line   54; "ssd.c"     }
0042   0008           02018         RETURN  
                      02019 ; exit point of _SSD_Update
                      02020 ;;; /home/sdcc-builder/build/sdcc-build/orig/sdcc/src/pic14/gen.c:7710:genpic14Code *{*
                      02021 
                      02022 ;***
                      02023 ;  pBlock Stats: dbName = C
                      02024 ;***
                      02025 ;has an exit
                      02026 ;functions called:
                      02027 ;   _SSD_SetPinsAsOutput
                      02028 ;   _SSD_SetSymbol
                      02029 ;   _SSD_SetState
                      02030 ;   _SSD_SetPinsAsOutput
                      02031 ;   _SSD_SetSymbol
                      02032 ;   _SSD_SetState
                      02033 ;5 compiler assigned registers:
                      02034 ;   r0x1029
                      02035 ;   STK00
                      02036 ;   r0x102A
                      02037 ;   STK01
                      02038 ;   r0x102B
                      02039 ;; Starting pCode block
                      02040 ;;; /home/sdcc-builder/build/sdcc-build/orig/sdcc/src/pic14/gen.c:2358:resultRemat *{*
                      02041 ;;; /home/sdcc-builder/build/sdcc-build/orig/sdcc/src/pic14/gen.c:2802:genLabel *{*
                      02042 ;; ***  genLabel  2805
                      02043 ;;; /home/sdcc-builder/build/sdcc-build/orig/sdcc/src/pic14/gen.c:2358:resultRemat *{*
                      02044 ;;; /home/sdcc-builder/build/sdcc-build/orig/sdcc/src/pic14/gen.c:2382:genFunction *{*
                      02045 ;; ***  genFunction  2384 curr label offset=0previous max_key=0 
                      02046 S_ssd__SSD_Init code
0000                  02047 _SSD_Init:
                      02048 ; 2 exit points
                      02049 ;;; /home/sdcc-builder/build/sdcc-build/orig/sdcc/src/pic14/gen.c:2358:resultRemat *{*
                      02050 ;;; /home/sdcc-builder/build/sdcc-build/orig/sdcc/src/pic14/gen.c:7642:genReceive *{*
                      02051 ;; ***  genReceive  7643
                      02052 ;;      708 register type nRegs=1
gpasm-1.5.0 #1285 (Sep 12 2016) obj\Debug\ssd   8-8-2021  22:26:04          PAGE 40


LOC    OBJECT CODE    LINE  SOURCE TEXT
  VALUE

                      02053 ;;; /home/sdcc-builder/build/sdcc-build/orig/sdcc/src/pic14/gen.c:1929:assignResultValue *{*
                      02054 ;; ***  assignResultValue  1931
                      02055 ;;      line = 1933 result -=-, size=0, left AOP_REG=r0x1045, size=1, right -=-, size=0
                      02056 ;; >>> /home/sdcc-builder/build/sdcc-build/orig/sdcc/src/pic14/gen.c:1407:movwf
                      02057 ;;      1126 rIdx = r0x1045 
                      02058         .line   32; "ssd.c"     void SSD_Init(tSSD ssd ,tSSD_State init_state ,tSSD_Symbol init_symbol )
0000   0??? 0???      02059         BANKSEL r0x1029
0002   00??           02060         MOVWF   r0x1029
                      02061 ;;; /home/sdcc-builder/build/sdcc-build/orig/sdcc/src/pic14/gen.c:2358:resultRemat *{*
                      02062 ;;; /home/sdcc-builder/build/sdcc-build/orig/sdcc/src/pic14/gen.c:7642:genReceive *{*
                      02063 ;; ***  genReceive  7643
                      02064 ;;      708 register type nRegs=1
                      02065 ;;; /home/sdcc-builder/build/sdcc-build/orig/sdcc/src/pic14/gen.c:1929:assignResultValue *{*
                      02066 ;; ***  assignResultValue  1931
                      02067 ;;      line = 1933 result -=-, size=0, left AOP_REG=r0x1046, size=1, right -=-, size=0
                      02068 ;; >>> /home/sdcc-builder/build/sdcc-build/orig/sdcc/src/pic14/gen.c:1437:get_returnvalue
                      02069 ;; ***  popRegFromIdx,1059  , rIdx=0x7f
0003   08??           02070         MOVF    STK00,W
                      02071 ;; >>> /home/sdcc-builder/build/sdcc-build/orig/sdcc/src/pic14/gen.c:1407:movwf
                      02072 ;;      1126 rIdx = r0x1046 
0004   00??           02073         MOVWF   r0x102A
                      02074 ;;; /home/sdcc-builder/build/sdcc-build/orig/sdcc/src/pic14/gen.c:2358:resultRemat *{*
                      02075 ;;; /home/sdcc-builder/build/sdcc-build/orig/sdcc/src/pic14/gen.c:7642:genReceive *{*
                      02076 ;; ***  genReceive  7643
                      02077 ;;      708 register type nRegs=1
                      02078 ;;; /home/sdcc-builder/build/sdcc-build/orig/sdcc/src/pic14/gen.c:1929:assignResultValue *{*
                      02079 ;; ***  assignResultValue  1931
                      02080 ;;      line = 1933 result -=-, size=0, left AOP_REG=r0x1047, size=1, right -=-, size=0
                      02081 ;; >>> /home/sdcc-builder/build/sdcc-build/orig/sdcc/src/pic14/gen.c:1437:get_returnvalue
                      02082 ;; ***  popRegFromIdx,1059  , rIdx=0x7e
0005   08??           02083         MOVF    STK01,W
                      02084 ;; >>> /home/sdcc-builder/build/sdcc-build/orig/sdcc/src/pic14/gen.c:1407:movwf
                      02085 ;;      1126 rIdx = r0x1047 
0006   00??           02086         MOVWF   r0x102B
                      02087 ;;; /home/sdcc-builder/build/sdcc-build/orig/sdcc/src/pic14/gen.c:2358:resultRemat *{*
                      02088 ;;; /home/sdcc-builder/build/sdcc-build/orig/sdcc/src/pic14/gen.c:2358:resultRemat *{*
                      02089 ;;; /home/sdcc-builder/build/sdcc-build/orig/sdcc/src/pic14/gen.c:2108:genCall *{*
                      02090 ;; ***  genCall  2110
                      02091 ;;      708 register type nRegs=1
                      02092 ;;      708 register type nRegs=1
                      02093 ;;      2158 left AOP_REG
                      02094 ;;; /home/sdcc-builder/build/sdcc-build/orig/sdcc/src/pic14/gen.c:1357:mov2w_op *{*
                      02095 ;; ***  mov2w  1395  offset=0
                      02096 ;; >>> /home/sdcc-builder/build/sdcc-build/orig/sdcc/src/pic14/gen.c:1400:mov2w
                      02097 ;;      1126 rIdx = r0x1045 
                      02098         .line   35; "ssd.c"     SSD_SetPinsAsOutput(ssd) ;
0007   08??           02099         MOVF    r0x1029,W
                      02100 ;; >>> /home/sdcc-builder/build/sdcc-build/orig/sdcc/src/pic14/gen.c:2207:genCall
0008   0??? 0???      02101         PAGESEL _SSD_SetPinsAsOutput
                      02102 ;; >>> /home/sdcc-builder/build/sdcc-build/orig/sdcc/src/pic14/gen.c:2215:genCall
000A   2???           02103         CALL    _SSD_SetPinsAsOutput
                      02104 ;; >>> /home/sdcc-builder/build/sdcc-build/orig/sdcc/src/pic14/gen.c:2223:genCall
000B   0??? 0???      02105         PAGESEL $
gpasm-1.5.0 #1285 (Sep 12 2016) obj\Debug\ssd   8-8-2021  22:26:04          PAGE 41


LOC    OBJECT CODE    LINE  SOURCE TEXT
  VALUE

                      02106 ;;; /home/sdcc-builder/build/sdcc-build/orig/sdcc/src/pic14/gen.c:2358:resultRemat *{*
                      02107 ;;; /home/sdcc-builder/build/sdcc-build/orig/sdcc/src/pic14/gen.c:2358:resultRemat *{*
                      02108 ;;; /home/sdcc-builder/build/sdcc-build/orig/sdcc/src/pic14/gen.c:2358:resultRemat *{*
                      02109 ;;; /home/sdcc-builder/build/sdcc-build/orig/sdcc/src/pic14/gen.c:2108:genCall *{*
                      02110 ;; ***  genCall  2110
                      02111 ;;      708 register type nRegs=1
                      02112 ;;      708 register type nRegs=1
                      02113 ;;      708 register type nRegs=1
                      02114 ;;      2158 left AOP_REG
                      02115 ;;; /home/sdcc-builder/build/sdcc-build/orig/sdcc/src/pic14/gen.c:1357:mov2w_op *{*
                      02116 ;; ***  mov2w  1395  offset=0
                      02117 ;; >>> /home/sdcc-builder/build/sdcc-build/orig/sdcc/src/pic14/gen.c:1400:mov2w
                      02118 ;;      1126 rIdx = r0x1047 
                      02119         .line   36; "ssd.c"     SSD_SetSymbol(ssd,init_symbol) ;
000D   0??? 0???      02120         BANKSEL r0x102B
000F   08??           02121         MOVF    r0x102B,W
                      02122 ;;      708 register type nRegs=1
                      02123 ;;      2158 left AOP_REG
                      02124 ;; >>> /home/sdcc-builder/build/sdcc-build/orig/sdcc/src/pic14/gen.c:2166:genCall
                      02125 ;; ***  popRegFromIdx,1059  , rIdx=0x7f
0010   00??           02126         MOVWF   STK00
                      02127 ;;; /home/sdcc-builder/build/sdcc-build/orig/sdcc/src/pic14/gen.c:1357:mov2w_op *{*
                      02128 ;; ***  mov2w  1395  offset=0
                      02129 ;; >>> /home/sdcc-builder/build/sdcc-build/orig/sdcc/src/pic14/gen.c:1400:mov2w
                      02130 ;;      1126 rIdx = r0x1045 
0011   08??           02131         MOVF    r0x1029,W
                      02132 ;; >>> /home/sdcc-builder/build/sdcc-build/orig/sdcc/src/pic14/gen.c:2207:genCall
0012   0??? 0???      02133         PAGESEL _SSD_SetSymbol
                      02134 ;; >>> /home/sdcc-builder/build/sdcc-build/orig/sdcc/src/pic14/gen.c:2215:genCall
0014   2???           02135         CALL    _SSD_SetSymbol
                      02136 ;; >>> /home/sdcc-builder/build/sdcc-build/orig/sdcc/src/pic14/gen.c:2223:genCall
0015   0??? 0???      02137         PAGESEL $
                      02138 ;;; /home/sdcc-builder/build/sdcc-build/orig/sdcc/src/pic14/gen.c:2358:resultRemat *{*
                      02139 ;;; /home/sdcc-builder/build/sdcc-build/orig/sdcc/src/pic14/gen.c:2358:resultRemat *{*
                      02140 ;;; /home/sdcc-builder/build/sdcc-build/orig/sdcc/src/pic14/gen.c:2358:resultRemat *{*
                      02141 ;;; /home/sdcc-builder/build/sdcc-build/orig/sdcc/src/pic14/gen.c:2108:genCall *{*
                      02142 ;; ***  genCall  2110
                      02143 ;;      708 register type nRegs=1
                      02144 ;;      708 register type nRegs=1
                      02145 ;;      708 register type nRegs=1
                      02146 ;;      2158 left AOP_REG
                      02147 ;;; /home/sdcc-builder/build/sdcc-build/orig/sdcc/src/pic14/gen.c:1357:mov2w_op *{*
                      02148 ;; ***  mov2w  1395  offset=0
                      02149 ;; >>> /home/sdcc-builder/build/sdcc-build/orig/sdcc/src/pic14/gen.c:1400:mov2w
                      02150 ;;      1126 rIdx = r0x1046 
                      02151         .line   37; "ssd.c"     SSD_SetState(ssd ,init_state) ;
0017   0??? 0???      02152         BANKSEL r0x102A
0019   08??           02153         MOVF    r0x102A,W
                      02154 ;;      708 register type nRegs=1
                      02155 ;;      2158 left AOP_REG
                      02156 ;; >>> /home/sdcc-builder/build/sdcc-build/orig/sdcc/src/pic14/gen.c:2166:genCall
                      02157 ;; ***  popRegFromIdx,1059  , rIdx=0x7f
001A   00??           02158         MOVWF   STK00
gpasm-1.5.0 #1285 (Sep 12 2016) obj\Debug\ssd   8-8-2021  22:26:04          PAGE 42


LOC    OBJECT CODE    LINE  SOURCE TEXT
  VALUE

                      02159 ;;; /home/sdcc-builder/build/sdcc-build/orig/sdcc/src/pic14/gen.c:1357:mov2w_op *{*
                      02160 ;; ***  mov2w  1395  offset=0
                      02161 ;; >>> /home/sdcc-builder/build/sdcc-build/orig/sdcc/src/pic14/gen.c:1400:mov2w
                      02162 ;;      1126 rIdx = r0x1045 
001B   08??           02163         MOVF    r0x1029,W
                      02164 ;; >>> /home/sdcc-builder/build/sdcc-build/orig/sdcc/src/pic14/gen.c:2207:genCall
001C   0??? 0???      02165         PAGESEL _SSD_SetState
                      02166 ;; >>> /home/sdcc-builder/build/sdcc-build/orig/sdcc/src/pic14/gen.c:2215:genCall
001E   2???           02167         CALL    _SSD_SetState
                      02168 ;; >>> /home/sdcc-builder/build/sdcc-build/orig/sdcc/src/pic14/gen.c:2223:genCall
001F   0??? 0???      02169         PAGESEL $
                      02170 ;;; /home/sdcc-builder/build/sdcc-build/orig/sdcc/src/pic14/gen.c:2358:resultRemat *{*
                      02171 ;;; /home/sdcc-builder/build/sdcc-build/orig/sdcc/src/pic14/gen.c:2802:genLabel *{*
                      02172 ;; ***  genLabel  2805
                      02173 ;;; /home/sdcc-builder/build/sdcc-build/orig/sdcc/src/pic14/gen.c:2358:resultRemat *{*
                      02174 ;;; /home/sdcc-builder/build/sdcc-build/orig/sdcc/src/pic14/gen.c:2570:genEndFunction *{*
                      02175 ;; ***  genEndFunction  2572
                      02176         .line   38; "ssd.c"     }
0021   0008           02177         RETURN  
                      02178 ; exit point of _SSD_Init
                      02179 ;;; /home/sdcc-builder/build/sdcc-build/orig/sdcc/src/pic14/gen.c:7710:genpic14Code *{*
                      02180 
                      02181 
                      02182 ;       code size estimation:
                      02183 ;         331+  109 =   440 instructions ( 1098 byte)
                      02184 
                      02185         end
gpasm-1.5.0 #1285 (Sep 12 2016) obj\Debug\ssd   8-8-2021  22:26:04          PAGE 43


SYMBOL TABLE
  LABEL                              TYPE        VALUE         VALUE          VALUE
                                                 (hex)         (dec)          (text)

ACKDT                             CONSTANT      00000005              5
ACKEN                             CONSTANT      00000004              4
ACKSTAT                           CONSTANT      00000006              6
ADCON0                            CONSTANT      0000001F             31
ADCON1                            CONSTANT      0000009F            159
ADCS0                             CONSTANT      00000006              6
ADCS1                             CONSTANT      00000007              7
ADCS2                             CONSTANT      00000006              6
ADDEN                             CONSTANT      00000003              3
ADFM                              CONSTANT      00000007              7
ADIE                              CONSTANT      00000006              6
ADIF                              CONSTANT      00000006              6
ADON                              CONSTANT      00000000              0
ADRESH                            CONSTANT      0000001E             30
ADRESL                            CONSTANT      0000009E            158
BCLIE                             CONSTANT      00000003              3
BCLIF                             CONSTANT      00000003              3
BF                                CONSTANT      00000000              0
BRGH                              CONSTANT      00000002              2
C                                 CONSTANT      00000000              0
C1INV                             CONSTANT      00000004              4
C1OUT                             CONSTANT      00000006              6
C2INV                             CONSTANT      00000005              5
C2OUT                             CONSTANT      00000007              7
CCP1CON                           CONSTANT      00000017             23
CCP1IE                            CONSTANT      00000002              2
CCP1IF                            CONSTANT      00000002              2
CCP1M0                            CONSTANT      00000000              0
CCP1M1                            CONSTANT      00000001              1
CCP1M2                            CONSTANT      00000002              2
CCP1M3                            CONSTANT      00000003              3
CCP1X                             CONSTANT      00000005              5
CCP1Y                             CONSTANT      00000004              4
CCP2CON                           CONSTANT      0000001D             29
CCP2IE                            CONSTANT      00000000              0
CCP2IF                            CONSTANT      00000000              0
CCP2M0                            CONSTANT      00000000              0
CCP2M1                            CONSTANT      00000001              1
CCP2M2                            CONSTANT      00000002              2
CCP2M3                            CONSTANT      00000003              3
CCP2X                             CONSTANT      00000005              5
CCP2Y                             CONSTANT      00000004              4
CCPR1                             CONSTANT      00000015             21
CCPR1H                            CONSTANT      00000016             22
CCPR1L                            CONSTANT      00000015             21
CCPR2                             CONSTANT      0000001B             27
CCPR2H                            CONSTANT      0000001C             28
CCPR2L                            CONSTANT      0000001B             27
CHS0                              CONSTANT      00000003              3
CHS1                              CONSTANT      00000004              4
CHS2                              CONSTANT      00000005              5
CIS                               CONSTANT      00000003              3
gpasm-1.5.0 #1285 (Sep 12 2016) obj\Debug\ssd   8-8-2021  22:26:04          PAGE 44


SYMBOL TABLE
  LABEL                              TYPE        VALUE         VALUE          VALUE
                                                 (hex)         (dec)          (text)

CKE                               CONSTANT      00000006              6
CKP                               CONSTANT      00000004              4
CM0                               CONSTANT      00000000              0
CM1                               CONSTANT      00000001              1
CM2                               CONSTANT      00000002              2
CMCON                             CONSTANT      0000009C            156
CMIE                              CONSTANT      00000006              6
CMIF                              CONSTANT      00000006              6
CREN                              CONSTANT      00000004              4
CSRC                              CONSTANT      00000007              7
CVR0                              CONSTANT      00000000              0
CVR1                              CONSTANT      00000001              1
CVR2                              CONSTANT      00000002              2
CVR3                              CONSTANT      00000003              3
CVRCON                            CONSTANT      0000009D            157
CVREN                             CONSTANT      00000007              7
CVROE                             CONSTANT      00000006              6
CVRR                              CONSTANT      00000005              5
D                                 CONSTANT      00000005              5
DATA_ADDRESS                      CONSTANT      00000005              5
DC                                CONSTANT      00000001              1
D_A                               CONSTANT      00000005              5
D_NOT_A                           CONSTANT      00000005              5
EEADR                             CONSTANT      0000010D            269
EEADRH                            CONSTANT      0000010F            271
EECON1                            CONSTANT      0000018C            396
EECON2                            CONSTANT      0000018D            397
EEDATA                            CONSTANT      0000010C            268
EEDATH                            CONSTANT      0000010E            270
EEIE                              CONSTANT      00000004              4
EEIF                              CONSTANT      00000004              4
EEPGD                             CONSTANT      00000007              7
F                                 CONSTANT      00000001              1
FERR                              CONSTANT      00000002              2
FSR                               CONSTANT      00000004              4
GCEN                              CONSTANT      00000007              7
GIE                               CONSTANT      00000007              7
GO                                CONSTANT      00000002              2
GO_DONE                           CONSTANT      00000002              2
GO_NOT_DONE                       CONSTANT      00000002              2
I2C_DATA                          CONSTANT      00000005              5
I2C_READ                          CONSTANT      00000002              2
I2C_START                         CONSTANT      00000003              3
I2C_STOP                          CONSTANT      00000004              4
IBF                               CONSTANT      00000007              7
IBOV                              CONSTANT      00000005              5
INDF                              CONSTANT      00000000              0
INTCON                            CONSTANT      0000000B             11
INTE                              CONSTANT      00000004              4
INTEDG                            CONSTANT      00000006              6
INTF                              CONSTANT      00000001              1
IRP                               CONSTANT      00000007              7
gpasm-1.5.0 #1285 (Sep 12 2016) obj\Debug\ssd   8-8-2021  22:26:04          PAGE 45


SYMBOL TABLE
  LABEL                              TYPE        VALUE         VALUE          VALUE
                                                 (hex)         (dec)          (text)

NOT_A                             CONSTANT      00000005              5
NOT_ADDRESS                       CONSTANT      00000005              5
NOT_BO                            CONSTANT      00000000              0
NOT_BOR                           CONSTANT      00000000              0
NOT_DONE                          CONSTANT      00000002              2
NOT_PD                            CONSTANT      00000003              3
NOT_POR                           CONSTANT      00000001              1
NOT_RBPU                          CONSTANT      00000007              7
NOT_RC8                           CONSTANT      00000006              6
NOT_T1SYNC                        CONSTANT      00000002              2
NOT_TO                            CONSTANT      00000004              4
NOT_TX8                           CONSTANT      00000006              6
NOT_W                             CONSTANT      00000002              2
NOT_WRITE                         CONSTANT      00000002              2
OBF                               CONSTANT      00000006              6
OERR                              CONSTANT      00000001              1
OPTION_REG                        CONSTANT      00000081            129
P                                 CONSTANT      00000004              4
PCFG0                             CONSTANT      00000000              0
PCFG1                             CONSTANT      00000001              1
PCFG2                             CONSTANT      00000002              2
PCFG3                             CONSTANT      00000003              3
PCL                               CONSTANT      00000002              2
PCLATH                            CONSTANT      0000000A             10
PCON                              CONSTANT      0000008E            142
PEIE                              CONSTANT      00000006              6
PEN                               CONSTANT      00000002              2
PIE1                              CONSTANT      0000008C            140
PIE2                              CONSTANT      0000008D            141
PIR1                              CONSTANT      0000000C             12
PIR2                              CONSTANT      0000000D             13
PORTA                             CONSTANT      00000005              5
PORTB                             CONSTANT      00000006              6
PORTC                             CONSTANT      00000007              7
PORTD                             CONSTANT      00000008              8
PORTE                             CONSTANT      00000009              9
PR2                               CONSTANT      00000092            146
PS0                               CONSTANT      00000000              0
PS1                               CONSTANT      00000001              1
PS2                               CONSTANT      00000002              2
PSA                               CONSTANT      00000003              3
PSAVE                             EXTERNAL      00000000              0
PSPIE                             CONSTANT      00000007              7
PSPIF                             CONSTANT      00000007              7
PSPMODE                           CONSTANT      00000004              4
R                                 CONSTANT      00000002              2
RA0                               CONSTANT      00000000              0
RA1                               CONSTANT      00000001              1
RA2                               CONSTANT      00000002              2
RA3                               CONSTANT      00000003              3
RA4                               CONSTANT      00000004              4
RA5                               CONSTANT      00000005              5
gpasm-1.5.0 #1285 (Sep 12 2016) obj\Debug\ssd   8-8-2021  22:26:04          PAGE 46


SYMBOL TABLE
  LABEL                              TYPE        VALUE         VALUE          VALUE
                                                 (hex)         (dec)          (text)

RB0                               CONSTANT      00000000              0
RB1                               CONSTANT      00000001              1
RB2                               CONSTANT      00000002              2
RB3                               CONSTANT      00000003              3
RB4                               CONSTANT      00000004              4
RB5                               CONSTANT      00000005              5
RB6                               CONSTANT      00000006              6
RB7                               CONSTANT      00000007              7
RBIE                              CONSTANT      00000003              3
RBIF                              CONSTANT      00000000              0
RC0                               CONSTANT      00000000              0
RC1                               CONSTANT      00000001              1
RC2                               CONSTANT      00000002              2
RC3                               CONSTANT      00000003              3
RC4                               CONSTANT      00000004              4
RC5                               CONSTANT      00000005              5
RC6                               CONSTANT      00000006              6
RC7                               CONSTANT      00000007              7
RC8_9                             CONSTANT      00000006              6
RC9                               CONSTANT      00000006              6
RCD8                              CONSTANT      00000000              0
RCEN                              CONSTANT      00000003              3
RCIE                              CONSTANT      00000005              5
RCIF                              CONSTANT      00000005              5
RCREG                             CONSTANT      0000001A             26
RCSTA                             CONSTANT      00000018             24
RD                                CONSTANT      00000000              0
RD0                               CONSTANT      00000000              0
RD1                               CONSTANT      00000001              1
RD2                               CONSTANT      00000002              2
RD3                               CONSTANT      00000003              3
RD4                               CONSTANT      00000004              4
RD5                               CONSTANT      00000005              5
RD6                               CONSTANT      00000006              6
RD7                               CONSTANT      00000007              7
RE0                               CONSTANT      00000000              0
RE1                               CONSTANT      00000001              1
RE2                               CONSTANT      00000002              2
READ_WRITE                        CONSTANT      00000002              2
RP0                               CONSTANT      00000005              5
RP1                               CONSTANT      00000006              6
RSEN                              CONSTANT      00000001              1
RX9                               CONSTANT      00000006              6
RX9D                              CONSTANT      00000000              0
R_NOT_W                           CONSTANT      00000002              2
R_W                               CONSTANT      00000002              2
S                                 CONSTANT      00000003              3
SEN                               CONSTANT      00000000              0
SMP                               CONSTANT      00000007              7
SPBRG                             CONSTANT      00000099            153
SPEN                              CONSTANT      00000007              7
SREN                              CONSTANT      00000005              5
gpasm-1.5.0 #1285 (Sep 12 2016) obj\Debug\ssd   8-8-2021  22:26:04          PAGE 47


SYMBOL TABLE
  LABEL                              TYPE        VALUE         VALUE          VALUE
                                                 (hex)         (dec)          (text)

SSAVE                             EXTERNAL      00000000              0
SSPADD                            CONSTANT      00000093            147
SSPBUF                            CONSTANT      00000013             19
SSPCON                            CONSTANT      00000014             20
SSPCON2                           CONSTANT      00000091            145
SSPEN                             CONSTANT      00000005              5
SSPIE                             CONSTANT      00000003              3
SSPIF                             CONSTANT      00000003              3
SSPM0                             CONSTANT      00000000              0
SSPM1                             CONSTANT      00000001              1
SSPM2                             CONSTANT      00000002              2
SSPM3                             CONSTANT      00000003              3
SSPOV                             CONSTANT      00000006              6
SSPSTAT                           CONSTANT      00000094            148
STATUS                            CONSTANT      00000003              3
STK00                             EXTERNAL      00000000              0
STK01                             EXTERNAL      00000000              0
STK02                             EXTERNAL      00000000              0
STK03                             EXTERNAL      00000000              0
STK04                             EXTERNAL      00000000              0
STK05                             EXTERNAL      00000000              0
STK06                             EXTERNAL      00000000              0
STK07                             EXTERNAL      00000000              0
STK08                             EXTERNAL      00000000              0
STK09                             EXTERNAL      00000000              0
STK10                             EXTERNAL      00000000              0
STK11                             EXTERNAL      00000000              0
STK12                             EXTERNAL      00000000              0
SYNC                              CONSTANT      00000004              4
T0CS                              CONSTANT      00000005              5
T0IE                              CONSTANT      00000005              5
T0IF                              CONSTANT      00000002              2
T0SE                              CONSTANT      00000004              4
T1CKPS0                           CONSTANT      00000004              4
T1CKPS1                           CONSTANT      00000005              5
T1CON                             CONSTANT      00000010             16
T1INSYNC                          CONSTANT      00000002              2
T1OSCEN                           CONSTANT      00000003              3
T1SYNC                            CONSTANT      00000002              2
T2CKPS0                           CONSTANT      00000000              0
T2CKPS1                           CONSTANT      00000001              1
T2CON                             CONSTANT      00000012             18
TMR0                              CONSTANT      00000001              1
TMR0IE                            CONSTANT      00000005              5
TMR0IF                            CONSTANT      00000002              2
TMR1                              CONSTANT      0000000E             14
TMR1CS                            CONSTANT      00000001              1
TMR1H                             CONSTANT      0000000F             15
TMR1IE                            CONSTANT      00000000              0
TMR1IF                            CONSTANT      00000000              0
TMR1L                             CONSTANT      0000000E             14
TMR1ON                            CONSTANT      00000000              0
gpasm-1.5.0 #1285 (Sep 12 2016) obj\Debug\ssd   8-8-2021  22:26:04          PAGE 48


SYMBOL TABLE
  LABEL                              TYPE        VALUE         VALUE          VALUE
                                                 (hex)         (dec)          (text)

TMR2                              CONSTANT      00000011             17
TMR2IE                            CONSTANT      00000001              1
TMR2IF                            CONSTANT      00000001              1
TMR2ON                            CONSTANT      00000002              2
TOUTPS0                           CONSTANT      00000003              3
TOUTPS1                           CONSTANT      00000004              4
TOUTPS2                           CONSTANT      00000005              5
TOUTPS3                           CONSTANT      00000006              6
TRISA                             CONSTANT      00000085            133
TRISA0                            CONSTANT      00000000              0
TRISA1                            CONSTANT      00000001              1
TRISA2                            CONSTANT      00000002              2
TRISA3                            CONSTANT      00000003              3
TRISA4                            CONSTANT      00000004              4
TRISA5                            CONSTANT      00000005              5
TRISB                             CONSTANT      00000086            134
TRISB0                            CONSTANT      00000000              0
TRISB1                            CONSTANT      00000001              1
TRISB2                            CONSTANT      00000002              2
TRISB3                            CONSTANT      00000003              3
TRISB4                            CONSTANT      00000004              4
TRISB5                            CONSTANT      00000005              5
TRISB6                            CONSTANT      00000006              6
TRISB7                            CONSTANT      00000007              7
TRISC                             CONSTANT      00000087            135
TRISC0                            CONSTANT      00000000              0
TRISC1                            CONSTANT      00000001              1
TRISC2                            CONSTANT      00000002              2
TRISC3                            CONSTANT      00000003              3
TRISC4                            CONSTANT      00000004              4
TRISC5                            CONSTANT      00000005              5
TRISC6                            CONSTANT      00000006              6
TRISC7                            CONSTANT      00000007              7
TRISD                             CONSTANT      00000088            136
TRISD0                            CONSTANT      00000000              0
TRISD1                            CONSTANT      00000001              1
TRISD2                            CONSTANT      00000002              2
TRISD3                            CONSTANT      00000003              3
TRISD4                            CONSTANT      00000004              4
TRISD5                            CONSTANT      00000005              5
TRISD6                            CONSTANT      00000006              6
TRISD7                            CONSTANT      00000007              7
TRISE                             CONSTANT      00000089            137
TRISE0                            CONSTANT      00000000              0
TRISE1                            CONSTANT      00000001              1
TRISE2                            CONSTANT      00000002              2
TRMT                              CONSTANT      00000001              1
TX8_9                             CONSTANT      00000006              6
TX9                               CONSTANT      00000006              6
TX9D                              CONSTANT      00000000              0
TXD8                              CONSTANT      00000000              0
TXEN                              CONSTANT      00000005              5
gpasm-1.5.0 #1285 (Sep 12 2016) obj\Debug\ssd   8-8-2021  22:26:04          PAGE 49


SYMBOL TABLE
  LABEL                              TYPE        VALUE         VALUE          VALUE
                                                 (hex)         (dec)          (text)

TXIE                              CONSTANT      00000004              4
TXIF                              CONSTANT      00000004              4
TXREG                             CONSTANT      00000019             25
TXSTA                             CONSTANT      00000098            152
UA                                CONSTANT      00000001              1
W                                 CONSTANT      00000000              0
WCOL                              CONSTANT      00000007              7
WR                                CONSTANT      00000001              1
WREN                              CONSTANT      00000002              2
WRERR                             CONSTANT      00000003              3
WSAVE                             EXTERNAL      00000000              0
Z                                 CONSTANT      00000002              2
_00001_DS_                        ADDRESS       00000055             85
_00002_DS_                        ADDRESS       0000001E             30
_00003_DS_                        ADDRESS       00000015             21
_00112_DS_                        ADDRESS       00000005              5
_00113_DS_                        ADDRESS       00000037             55
_00122_DS_                        ADDRESS       0000001A             26
_00123_DS_                        ADDRESS       00000026             38
_00124_DS_                        ADDRESS       00000032             50
_00125_DS_                        ADDRESS       0000003E             62
_00127_DS_                        ADDRESS       00000049             73
_00135_DS_                        ADDRESS       00000016             22
_00148_DS_                        ADDRESS       00000023             35
_00149_DS_                        ADDRESS       0000002E             46
_00150_DS_                        ADDRESS       00000039             57
_00151_DS_                        ADDRESS       00000044             68
_00153_DS_                        ADDRESS       0000004E             78
_00160_DS_                        ADDRESS       0000001F             31
_00169_DS_                        ADDRESS       0000005A             90
_00170_DS_                        ADDRESS       00000065            101
_00171_DS_                        ADDRESS       00000070            112
_00172_DS_                        ADDRESS       0000007B            123
_00174_DS_                        ADDRESS       00000085            133
_00181_DS_                        ADDRESS       00000056             86
_BODEN_OFF                        CONSTANT      00003FBF          16319
_BODEN_ON                         CONSTANT      00003FFF          16383
_BOREN_OFF                        CONSTANT      00003FBF          16319
_BOREN_ON                         CONSTANT      00003FFF          16383
_CONFIG                           CONSTANT      00002007           8199
_CPD_OFF                          CONSTANT      00003FFF          16383
_CPD_ON                           CONSTANT      00003EFF          16127
_CP_ALL                           CONSTANT      00001FFF           8191
_CP_OFF                           CONSTANT      00003FFF          16383
_CP_ON                            CONSTANT      00001FFF           8191
_DEBUG_OFF                        CONSTANT      00003FFF          16383
_DEBUG_ON                         CONSTANT      000037FF          14335
_DEVID1                           CONSTANT      00002006           8198
_FOSC_EXTRC                       CONSTANT      00003FFF          16383
_FOSC_HS                          CONSTANT      00003FFE          16382
_FOSC_LP                          CONSTANT      00003FFC          16380
_FOSC_XT                          CONSTANT      00003FFD          16381
gpasm-1.5.0 #1285 (Sep 12 2016) obj\Debug\ssd   8-8-2021  22:26:04          PAGE 50


SYMBOL TABLE
  LABEL                              TYPE        VALUE         VALUE          VALUE
                                                 (hex)         (dec)          (text)

_GPIO_GetPinState                 EXTERNAL      00000000              0
_GPIO_SetPinDirection             EXTERNAL      00000000              0
_GPIO_SetPinState                 EXTERNAL      00000000              0
_GPIO_SetPortData                 EXTERNAL      00000000              0
_GPIO_SetPortDirection            EXTERNAL      00000000              0
_HS_OSC                           CONSTANT      00003FFE          16382
_IDLOC0                           CONSTANT      00002000           8192
_IDLOC1                           CONSTANT      00002001           8193
_IDLOC2                           CONSTANT      00002002           8194
_IDLOC3                           CONSTANT      00002003           8195
_LP_OSC                           CONSTANT      00003FFC          16380
_LVP_OFF                          CONSTANT      00003F7F          16255
_LVP_ON                           CONSTANT      00003FFF          16383
_PWRTE_OFF                        CONSTANT      00003FFF          16383
_PWRTE_ON                         CONSTANT      00003FF7          16375
_RC_OSC                           CONSTANT      00003FFF          16383
_SSD_GetState                     GLOBAL        00000000              0
_SSD_GetSymbol                    GLOBAL        00000000              0
_SSD_Init                         GLOBAL        00000000              0
_SSD_SetHardWare                  ADDRESS       00000000              0
_SSD_SetPinsAsOutput              ADDRESS       00000000              0
_SSD_SetState                     EXTERNAL      00000000              0
_SSD_SetStateData                 GLOBAL        00000000              0
_SSD_SetSymbol                    EXTERNAL      00000000              0
_SSD_SetSymbolData                GLOBAL        00000000              0
_SSD_TurnAllOff                   ADDRESS       00000000              0
_SSD_Update                       GLOBAL        00000000              0
_S_ssd__SSD_GetState_0020         ADDRESS       00000020             32
_S_ssd__SSD_GetState_002C         ADDRESS       0000002C             44
_S_ssd__SSD_GetState_0038         ADDRESS       00000038             56
_S_ssd__SSD_GetState_0044         ADDRESS       00000044             68
_S_ssd__SSD_GetSymbol_0009        ADDRESS       00000009              9
_S_ssd__SSD_Init_000B             ADDRESS       0000000B             11
_S_ssd__SSD_Init_0015             ADDRESS       00000015             21
_S_ssd__SSD_Init_001F             ADDRESS       0000001F             31
_S_ssd__SSD_SetHardWare_0009      ADDRESS       00000009              9
_S_ssd__SSD_SetHardWare_0040      ADDRESS       00000040             64
_S_ssd__SSD_SetHardWare_0062      ADDRESS       00000062             98
_S_ssd__SSD_SetHardWare_006D      ADDRESS       0000006D            109
_S_ssd__SSD_SetHardWare_0078      ADDRESS       00000078            120
_S_ssd__SSD_SetHardWare_0083      ADDRESS       00000083            131
_S_ssd__SSD_SetPinsAsOutput_0009  ADDRESS       00000009              9
_S_ssd__SSD_SetPinsAsOutput_002B  ADDRESS       0000002B             43
_S_ssd__SSD_SetPinsAsOutput_0036  ADDRESS       00000036             54
_S_ssd__SSD_SetPinsAsOutput_0041  ADDRESS       00000041             65
_S_ssd__SSD_SetPinsAsOutput_004C  ADDRESS       0000004C             76
_S_ssd__SSD_SetStateData_000B     ADDRESS       0000000B             11
_S_ssd__SSD_SetSymbolData_000B    ADDRESS       0000000B             11
_S_ssd__SSD_TurnAllOff_0008       ADDRESS       00000008              8
_S_ssd__SSD_TurnAllOff_0012       ADDRESS       00000012             18
_S_ssd__SSD_TurnAllOff_001C       ADDRESS       0000001C             28
_S_ssd__SSD_TurnAllOff_0026       ADDRESS       00000026             38
gpasm-1.5.0 #1285 (Sep 12 2016) obj\Debug\ssd   8-8-2021  22:26:04          PAGE 51


SYMBOL TABLE
  LABEL                              TYPE        VALUE         VALUE          VALUE
                                                 (hex)         (dec)          (text)

_S_ssd__SSD_Update_0025           ADDRESS       00000025             37
_S_ssd__SSD_Update_002D           ADDRESS       0000002D             45
_S_ssd__SSD_Update_0035           ADDRESS       00000035             53
_UTILITES_DelayMS                 EXTERNAL      00000000              0
_WDTE_OFF                         CONSTANT      00003FFB          16379
_WDTE_ON                          CONSTANT      00003FFF          16383
_WDT_OFF                          CONSTANT      00003FFB          16379
_WDT_ON                           CONSTANT      00003FFF          16383
_WRT_1FOURTH                      CONSTANT      00003BFF          15359
_WRT_256                          CONSTANT      00003DFF          15871
_WRT_HALF                         CONSTANT      000039FF          14847
_WRT_OFF                          CONSTANT      00003FFF          16383
_XT_OSC                           CONSTANT      00003FFD          16381
__14_BIT                          CONSTANT      00000001              1
__16F877A                         CONSTANT      00000001              1
__ACTIVE_BANK_ADDR                VARIABLE      FFFFFFFF             -1
__ACTIVE_PAGE_ADDR                VARIABLE      FFFFFFFF             -1
__ASSUMED_BANK_ADDR               VARIABLE      FFFFFFFF             -1
__BANK_0                          CONSTANT      00000000              0
__BANK_1                          CONSTANT      00000080            128
__BANK_2                          CONSTANT      00000100            256
__BANK_3                          CONSTANT      00000180            384
__BANK_BITS                       CONSTANT      00000180            384
__BANK_FIRST                      CONSTANT      00000000              0
__BANK_INV                        CONSTANT      FFFFFFFF             -1
__BANK_LAST                       CONSTANT      00000180            384
__BANK_MASK                       CONSTANT      0000007F            127
__BANK_SHIFT                      CONSTANT      00000007              7
__BANK_SIZE                       CONSTANT      00000080            128
__CODE_END                        CONSTANT      00001FFF           8191
__CODE_START                      CONSTANT      00000000              0
__COMMON_RAM_END                  CONSTANT      0000007F            127
__COMMON_RAM_START                CONSTANT      00000070            112
__CONFIG_END                      CONSTANT      00002007           8199
__CONFIG_START                    CONSTANT      00002007           8199
__EEPROM_END                      CONSTANT      000021FF           8703
__EEPROM_START                    CONSTANT      00002100           8448
__GPUTILS_SVN_VERSION             CONSTANT      00000505           1285
__GPUTILS_VERSION_MAJOR           CONSTANT      00000001              1
__GPUTILS_VERSION_MICRO           CONSTANT      00000000              0
__GPUTILS_VERSION_MINOR           CONSTANT      00000005              5
__IDLOCS_END                      CONSTANT      00002003           8195
__IDLOCS_START                    CONSTANT      00002000           8192
__NUM_BANKS                       CONSTANT      00000004              4
__NUM_PAGES                       CONSTANT      00000004              4
__PAGE_0                          CONSTANT      00000000              0
__PAGE_1                          CONSTANT      00000800           2048
__PAGE_2                          CONSTANT      00001000           4096
__PAGE_3                          CONSTANT      00001800           6144
__PAGE_BITS                       CONSTANT      00001800           6144
__PAGE_FIRST                      CONSTANT      00000000              0
__PAGE_INV                        CONSTANT      FFFFFFFF             -1
gpasm-1.5.0 #1285 (Sep 12 2016) obj\Debug\ssd   8-8-2021  22:26:04          PAGE 52


SYMBOL TABLE
  LABEL                              TYPE        VALUE         VALUE          VALUE
                                                 (hex)         (dec)          (text)

__PAGE_LAST                       CONSTANT      00001800           6144
__PAGE_MASK                       CONSTANT      000007FF           2047
__PAGE_SHIFT                      CONSTANT      0000000B             11
__PAGE_SIZE                       CONSTANT      00000800           2048
__VECTOR_INT                      CONSTANT      00000004              4
__VECTOR_RESET                    CONSTANT      00000000              0
__WHILE_LOOP_COUNT_MAX            CONSTANT      000000FF            255
__muluchar                        EXTERNAL      00000000              0
_ssd_data                         STATIC        00000000              0
_ssd_info                         GLOBAL        00000000              0
r0x101A                           STATIC        00000011             17
r0x101B                           STATIC        0000000C             12
r0x101C                           STATIC        0000000D             13
r0x101D                           STATIC        0000000E             14
r0x101E                           STATIC        0000000A             10
r0x101F                           STATIC        0000000B             11
r0x102A                           STATIC        00000001              1
r0x102B                           STATIC        00000002              2
r0x1013                           STATIC        00000013             19
r0x1014                           STATIC        00000015             21
r0x1015                           STATIC        00000014             20
r0x1016                           STATIC        00000016             22
r0x1017                           STATIC        00000012             18
r0x1018                           STATIC        0000000F             15
r0x1019                           STATIC        00000010             16
r0x1020                           STATIC        00000008              8
r0x1021                           STATIC        00000009              9
r0x1023                           STATIC        00000003              3
r0x1024                           STATIC        00000004              4
r0x1025                           STATIC        00000005              5
r0x1026                           STATIC        00000006              6
r0x1027                           STATIC        00000007              7
r0x1029                           STATIC        00000000              0

Errors   :     0
Warnings :     0 reported,     0 suppressed
Messages :     0 reported,     0 suppressed

